
/Users/ethan/Desktop/EDA_Phone_Case_Code_Repo/EDA_Phone_Case/target/2.0.0/argon/EDA_Phone_Case.elf:     file format elf32-littlearm

Sections:
Idx Name          Size      VMA       LMA       File off  Algn
  0 .module_info  00000018  000d4000  000d4000  00004000  2**0
                  CONTENTS, ALLOC, LOAD, READONLY, DATA
  1 .dynalib      00000004  000d4018  000d4018  00004018  2**2
                  CONTENTS, ALLOC, LOAD, READONLY, DATA
  2 .text         000056d0  000d4020  000d4020  00004020  2**3
                  CONTENTS, ALLOC, LOAD, READONLY, CODE
  3 .backup       00000004  2003f400  000d96f0  0000f400  2**2
                  CONTENTS, ALLOC, LOAD, DATA
  4 .data         00000078  2003e3cc  000d96f4  0001e3cc  2**2
                  CONTENTS, ALLOC, LOAD, DATA
  5 .bss          000003ac  2003e444  2003e444  0002e444  2**2
                  ALLOC
  6 .module_info_suffix 00000028  000d976c  000d976c  0002976c  2**0
                  CONTENTS, ALLOC, LOAD, READONLY, DATA
  7 .module_info_crc 00000004  000d9794  000d9794  00029794  2**0
                  CONTENTS, ALLOC, LOAD, READONLY, DATA
  8 .debug_info   00180d7b  00000000  00000000  00029798  2**0
                  CONTENTS, READONLY, DEBUGGING
  9 .debug_abbrev 00019902  00000000  00000000  001aa513  2**0
                  CONTENTS, READONLY, DEBUGGING
 10 .debug_loc    0002fcfd  00000000  00000000  001c3e15  2**0
                  CONTENTS, READONLY, DEBUGGING
 11 .debug_aranges 00002c68  00000000  00000000  001f3b12  2**0
                  CONTENTS, READONLY, DEBUGGING
 12 .debug_ranges 00007bd0  00000000  00000000  001f677a  2**0
                  CONTENTS, READONLY, DEBUGGING
 13 .debug_macro  0003d6c4  00000000  00000000  001fe34a  2**0
                  CONTENTS, READONLY, DEBUGGING
 14 .debug_line   00040e09  00000000  00000000  0023ba0e  2**0
                  CONTENTS, READONLY, DEBUGGING
 15 .debug_str    0011062e  00000000  00000000  0027c817  2**0
                  CONTENTS, READONLY, DEBUGGING
 16 .debug_frame  00007ce4  00000000  00000000  0038ce48  2**2
                  CONTENTS, READONLY, DEBUGGING

Disassembly of section .text:

000d4020 <module_user_pre_init>:
/**
 * Initializes this user module. Returns the start of the heap.
 */
void* module_user_pre_init() {

    if ( (&link_global_data_start!=&link_global_data_initial_values) && (link_global_data_size != 0))
   d4020:	4809      	ldr	r0, [pc, #36]	; (d4048 <module_user_pre_init+0x28>)
   d4022:	490a      	ldr	r1, [pc, #40]	; (d404c <module_user_pre_init+0x2c>)
   d4024:	4288      	cmp	r0, r1
void* module_user_pre_init() {
   d4026:	b508      	push	{r3, lr}
    if ( (&link_global_data_start!=&link_global_data_initial_values) && (link_global_data_size != 0))
   d4028:	d005      	beq.n	d4036 <module_user_pre_init+0x16>
   d402a:	4a09      	ldr	r2, [pc, #36]	; (d4050 <module_user_pre_init+0x30>)
   d402c:	4282      	cmp	r2, r0
   d402e:	d002      	beq.n	d4036 <module_user_pre_init+0x16>
    {
        memcpy(&link_global_data_start, &link_global_data_initial_values, link_global_data_size);
   d4030:	1a12      	subs	r2, r2, r0
   d4032:	f005 f865 	bl	d9100 <memcpy>
    }

    memset(&link_bss_location, 0, link_bss_size );
   d4036:	4807      	ldr	r0, [pc, #28]	; (d4054 <module_user_pre_init+0x34>)
   d4038:	4a07      	ldr	r2, [pc, #28]	; (d4058 <module_user_pre_init+0x38>)
   d403a:	2100      	movs	r1, #0
   d403c:	1a12      	subs	r2, r2, r0
   d403e:	f005 f86d 	bl	d911c <memset>
    return &link_global_data_start;
}
   d4042:	4801      	ldr	r0, [pc, #4]	; (d4048 <module_user_pre_init+0x28>)
   d4044:	bd08      	pop	{r3, pc}
   d4046:	bf00      	nop
   d4048:	2003e3cc 	.word	0x2003e3cc
   d404c:	000d96f4 	.word	0x000d96f4
   d4050:	2003e444 	.word	0x2003e444
   d4054:	2003e444 	.word	0x2003e444
   d4058:	2003e7f0 	.word	0x2003e7f0

000d405c <module_user_init>:
extern constructor_ptr_t link_constructors_location[];
extern constructor_ptr_t link_constructors_end;
#define link_constructors_size   ((unsigned long)&link_constructors_end  -  (unsigned long)&link_constructors_location )

void module_user_init()
{
   d405c:	b570      	push	{r4, r5, r6, lr}
    module_user_init_hook();

    // invoke constructors
    int ctor_num;
    for (ctor_num=0; ctor_num < link_constructors_size/sizeof(constructor_ptr_t); ctor_num++ )
   d405e:	4e07      	ldr	r6, [pc, #28]	; (d407c <module_user_init+0x20>)
   d4060:	4c07      	ldr	r4, [pc, #28]	; (d4080 <module_user_init+0x24>)
    module_user_init_hook();
   d4062:	f002 ff79 	bl	d6f58 <module_user_init_hook>
    for (ctor_num=0; ctor_num < link_constructors_size/sizeof(constructor_ptr_t); ctor_num++ )
   d4066:	1ba4      	subs	r4, r4, r6
   d4068:	08a4      	lsrs	r4, r4, #2
   d406a:	2500      	movs	r5, #0
   d406c:	42a5      	cmp	r5, r4
   d406e:	d100      	bne.n	d4072 <module_user_init+0x16>
    {
        link_constructors_location[ctor_num]();
    }
}
   d4070:	bd70      	pop	{r4, r5, r6, pc}
        link_constructors_location[ctor_num]();
   d4072:	f856 3b04 	ldr.w	r3, [r6], #4
   d4076:	4798      	blx	r3
    for (ctor_num=0; ctor_num < link_constructors_size/sizeof(constructor_ptr_t); ctor_num++ )
   d4078:	3501      	adds	r5, #1
   d407a:	e7f7      	b.n	d406c <module_user_init+0x10>
   d407c:	000d96c8 	.word	0x000d96c8
   d4080:	000d96f0 	.word	0x000d96f0

000d4084 <module_user_setup>:

/**
 * Export these functions with a fuller name so they don't clash with the setup/loop wrappers in the system module.
 */
void module_user_setup() {
    setup();
   d4084:	f000 bfec 	b.w	d5060 <setup>

000d4088 <module_user_loop>:
}

void module_user_loop() {
   d4088:	b508      	push	{r3, lr}
    loop();
   d408a:	f000 fe03 	bl	d4c94 <loop>
    _post_loop();
}
   d408e:	e8bd 4008 	ldmia.w	sp!, {r3, lr}
    _post_loop();
   d4092:	f002 bf23 	b.w	d6edc <_post_loop>

000d4096 <_Znwj>:
 * Implement C++ new/delete operators using the heap
 */

void *operator new(size_t size)
{
	return malloc(size);
   d4096:	f001 be43 	b.w	d5d20 <malloc>

000d409a <_Znaj>:
   d409a:	f001 be41 	b.w	d5d20 <malloc>

000d409e <_ZdlPv>:
	return malloc(size);
}

void operator delete(void *p)
{
	free(p);
   d409e:	f001 be47 	b.w	d5d30 <free>

000d40a2 <__cxa_guard_acquire>:

/* Provide default implemenation for __cxa_guard_acquire() and
 * __cxa_guard_release(). Note: these must be revisited if a multitasking
 * OS is ported to this platform. */
__extension__ typedef int __guard __attribute__((mode (__DI__)));
int __cxa_guard_acquire(__guard *g) {return !*(char *)(g);};
   d40a2:	7800      	ldrb	r0, [r0, #0]
   d40a4:	fab0 f080 	clz	r0, r0
   d40a8:	0940      	lsrs	r0, r0, #5
   d40aa:	4770      	bx	lr

000d40ac <__cxa_guard_release>:
void __cxa_guard_release (__guard *g) {*(char *)g = 1;};
   d40ac:	2301      	movs	r3, #1
   d40ae:	7003      	strb	r3, [r0, #0]
   d40b0:	4770      	bx	lr

000d40b2 <ICM_20948_execute_w>:
	pdev->_serif = s;
	return ICM_20948_Stat_Ok;
}

ICM_20948_Status_e ICM_20948_execute_w(ICM_20948_Device_t *pdev, uint8_t regaddr, uint8_t *pdata, uint32_t len)
{
   d40b2:	b410      	push	{r4}
   d40b4:	4604      	mov	r4, r0
   d40b6:	4608      	mov	r0, r1
   d40b8:	4611      	mov	r1, r2
   d40ba:	461a      	mov	r2, r3
	if (pdev->_serif->write == NULL)
   d40bc:	6823      	ldr	r3, [r4, #0]
   d40be:	681c      	ldr	r4, [r3, #0]
   d40c0:	b124      	cbz	r4, d40cc <ICM_20948_execute_w+0x1a>
	{
		return ICM_20948_Stat_NotImpl;
	}
	return (*pdev->_serif->write)(regaddr, pdata, len, pdev->_serif->user);
   d40c2:	46a4      	mov	ip, r4
   d40c4:	689b      	ldr	r3, [r3, #8]
}
   d40c6:	f85d 4b04 	ldr.w	r4, [sp], #4
	return (*pdev->_serif->write)(regaddr, pdata, len, pdev->_serif->user);
   d40ca:	4760      	bx	ip
}
   d40cc:	2002      	movs	r0, #2
   d40ce:	f85d 4b04 	ldr.w	r4, [sp], #4
   d40d2:	4770      	bx	lr

000d40d4 <ICM_20948_execute_r>:

ICM_20948_Status_e ICM_20948_execute_r(ICM_20948_Device_t *pdev, uint8_t regaddr, uint8_t *pdata, uint32_t len)
{
   d40d4:	b410      	push	{r4}
   d40d6:	4604      	mov	r4, r0
   d40d8:	4608      	mov	r0, r1
   d40da:	4611      	mov	r1, r2
   d40dc:	461a      	mov	r2, r3
	if (pdev->_serif->read == NULL)
   d40de:	6823      	ldr	r3, [r4, #0]
   d40e0:	685c      	ldr	r4, [r3, #4]
   d40e2:	b124      	cbz	r4, d40ee <ICM_20948_execute_r+0x1a>
	{
		return ICM_20948_Stat_NotImpl;
	}
	return (*pdev->_serif->read)(regaddr, pdata, len, pdev->_serif->user);
   d40e4:	46a4      	mov	ip, r4
   d40e6:	689b      	ldr	r3, [r3, #8]
}
   d40e8:	f85d 4b04 	ldr.w	r4, [sp], #4
	return (*pdev->_serif->read)(regaddr, pdata, len, pdev->_serif->user);
   d40ec:	4760      	bx	ip
}
   d40ee:	2002      	movs	r0, #2
   d40f0:	f85d 4b04 	ldr.w	r4, [sp], #4
   d40f4:	4770      	bx	lr

000d40f6 <ICM_20948_set_bank>:
	return ICM_20948_i2c_master_slv4_txn(pdev, addr, reg, data, 1, true, true);
}

ICM_20948_Status_e ICM_20948_set_bank(ICM_20948_Device_t *pdev, uint8_t bank)
{
	if (bank > 3)
   d40f6:	2903      	cmp	r1, #3
{
   d40f8:	b507      	push	{r0, r1, r2, lr}
	if (bank > 3)
   d40fa:	d80b      	bhi.n	d4114 <ICM_20948_set_bank+0x1e>
	{
		return ICM_20948_Stat_ParamErr;
	}						   // Only 4 possible banks
	bank = (bank << 4) & 0x30; // bits 5:4 of REG_BANK_SEL
   d40fc:	0109      	lsls	r1, r1, #4
   d40fe:	f88d 1007 	strb.w	r1, [sp, #7]
	return ICM_20948_execute_w(pdev, REG_BANK_SEL, &bank, 1);
   d4102:	2301      	movs	r3, #1
   d4104:	f10d 0207 	add.w	r2, sp, #7
   d4108:	217f      	movs	r1, #127	; 0x7f
   d410a:	f7ff ffd2 	bl	d40b2 <ICM_20948_execute_w>
}
   d410e:	b003      	add	sp, #12
   d4110:	f85d fb04 	ldr.w	pc, [sp], #4
		return ICM_20948_Stat_ParamErr;
   d4114:	2003      	movs	r0, #3
   d4116:	e7fa      	b.n	d410e <ICM_20948_set_bank+0x18>

000d4118 <ICM_20948_i2c_master_slv4_txn>:
{
   d4118:	e92d 43f0 	stmdb	sp!, {r4, r5, r6, r7, r8, r9, lr}
   d411c:	b085      	sub	sp, #20
   d411e:	461d      	mov	r5, r3
   d4120:	f89d 6034 	ldrb.w	r6, [sp, #52]	; 0x34
   d4124:	f88d 2006 	strb.w	r2, [sp, #6]
	addr = (((Rw) ? 0x80 : 0x00) | addr);
   d4128:	2e00      	cmp	r6, #0
   d412a:	bf14      	ite	ne
   d412c:	f06f 037f 	mvnne.w	r3, #127	; 0x7f
   d4130:	2300      	moveq	r3, #0
   d4132:	4319      	orrs	r1, r3
{
   d4134:	4604      	mov	r4, r0
	addr = (((Rw) ? 0x80 : 0x00) | addr);
   d4136:	f88d 1007 	strb.w	r1, [sp, #7]
	retval = ICM_20948_set_bank(pdev, 3);
   d413a:	2103      	movs	r1, #3
   d413c:	f7ff ffdb 	bl	d40f6 <ICM_20948_set_bank>
	retval = ICM_20948_execute_w(pdev, AGB3_REG_I2C_SLV4_ADDR, (uint8_t *)&addr, 1);
   d4140:	2301      	movs	r3, #1
   d4142:	f10d 0207 	add.w	r2, sp, #7
   d4146:	2113      	movs	r1, #19
   d4148:	4620      	mov	r0, r4
   d414a:	f7ff ffb2 	bl	d40b2 <ICM_20948_execute_w>
	if (retval != ICM_20948_Stat_Ok)
   d414e:	2800      	cmp	r0, #0
   d4150:	d168      	bne.n	d4224 <ICM_20948_i2c_master_slv4_txn+0x10c>
	retval = ICM_20948_set_bank(pdev, 3);
   d4152:	2103      	movs	r1, #3
   d4154:	4620      	mov	r0, r4
   d4156:	f7ff ffce 	bl	d40f6 <ICM_20948_set_bank>
	retval = ICM_20948_execute_w(pdev, AGB3_REG_I2C_SLV4_REG, (uint8_t *)&reg, 1);
   d415a:	2301      	movs	r3, #1
   d415c:	f10d 0206 	add.w	r2, sp, #6
   d4160:	2114      	movs	r1, #20
   d4162:	4620      	mov	r0, r4
   d4164:	f7ff ffa5 	bl	d40b2 <ICM_20948_execute_w>
	if (retval != ICM_20948_Stat_Ok)
   d4168:	2800      	cmp	r0, #0
   d416a:	d15b      	bne.n	d4224 <ICM_20948_i2c_master_slv4_txn+0x10c>
	ctrl.REG_DIS = !send_reg_addr;
   d416c:	f89d 2038 	ldrb.w	r2, [sp, #56]	; 0x38
	while (nByte < len)
   d4170:	f89d 9030 	ldrb.w	r9, [sp, #48]	; 0x30
	ctrl.REG_DIS = !send_reg_addr;
   d4174:	f082 0201 	eor.w	r2, r2, #1
	ctrl.DLY = 0;
   d4178:	0152      	lsls	r2, r2, #5
   d417a:	f062 027f 	orn	r2, r2, #127	; 0x7f
   d417e:	f88d 2008 	strb.w	r2, [sp, #8]
	while (nByte < len)
   d4182:	4607      	mov	r7, r0
   d4184:	fa1f f989 	uxth.w	r9, r9
   d4188:	b2bb      	uxth	r3, r7
   d418a:	4599      	cmp	r9, r3
   d418c:	d94a      	bls.n	d4224 <ICM_20948_i2c_master_slv4_txn+0x10c>
		if (!Rw)
   d418e:	2e00      	cmp	r6, #0
   d4190:	d03c      	beq.n	d420c <ICM_20948_i2c_master_slv4_txn+0xf4>
		retval = ICM_20948_set_bank(pdev, 3);
   d4192:	2103      	movs	r1, #3
   d4194:	4620      	mov	r0, r4
   d4196:	f7ff ffae 	bl	d40f6 <ICM_20948_set_bank>
		retval = ICM_20948_execute_w(pdev, AGB3_REG_I2C_SLV4_CTRL, (uint8_t *)&ctrl, sizeof(ICM_20948_I2C_SLV4_CTRL_t));
   d419a:	2301      	movs	r3, #1
   d419c:	aa02      	add	r2, sp, #8
   d419e:	2115      	movs	r1, #21
   d41a0:	4620      	mov	r0, r4
   d41a2:	f7ff ff86 	bl	d40b2 <ICM_20948_execute_w>
		if (retval != ICM_20948_Stat_Ok)
   d41a6:	2800      	cmp	r0, #0
   d41a8:	d13c      	bne.n	d4224 <ICM_20948_i2c_master_slv4_txn+0x10c>
		uint32_t count = 0;
   d41aa:	4680      	mov	r8, r0
			retval = ICM_20948_set_bank(pdev, 0);
   d41ac:	2100      	movs	r1, #0
   d41ae:	4620      	mov	r0, r4
   d41b0:	f7ff ffa1 	bl	d40f6 <ICM_20948_set_bank>
			retval = ICM_20948_execute_r(pdev, AGB0_REG_I2C_MST_STATUS, (uint8_t *)&i2c_mst_status, 1);
   d41b4:	2301      	movs	r3, #1
   d41b6:	aa03      	add	r2, sp, #12
   d41b8:	2117      	movs	r1, #23
   d41ba:	4620      	mov	r0, r4
   d41bc:	f7ff ff8a 	bl	d40d4 <ICM_20948_execute_r>
			slave4Done = (i2c_mst_status.I2C_SLV4_DONE /*| (millis() > tsTimeout) */); //Avoid forever-loops
   d41c0:	f89d 300c 	ldrb.w	r3, [sp, #12]
			slave4Done |= (count >= max_cycles);
   d41c4:	f240 31e7 	movw	r1, #999	; 0x3e7
			slave4Done = (i2c_mst_status.I2C_SLV4_DONE /*| (millis() > tsTimeout) */); //Avoid forever-loops
   d41c8:	461a      	mov	r2, r3
   d41ca:	f3c3 1380 	ubfx	r3, r3, #6, #1
   d41ce:	4588      	cmp	r8, r1
   d41d0:	bf88      	it	hi
   d41d2:	f043 0301 	orrhi.w	r3, r3, #1
		while (!slave4Done)
   d41d6:	07db      	lsls	r3, r3, #31
			count++;
   d41d8:	f108 0801 	add.w	r8, r8, #1
		while (!slave4Done)
   d41dc:	d5e6      	bpl.n	d41ac <ICM_20948_i2c_master_slv4_txn+0x94>
		txn_failed = (i2c_mst_status.I2C_SLV4_NACK /*| (millis() > tsTimeout) */);
   d41de:	f3c2 1300 	ubfx	r3, r2, #4, #1
		if (txn_failed)
   d41e2:	4588      	cmp	r8, r1
   d41e4:	bf94      	ite	ls
   d41e6:	4698      	movls	r8, r3
   d41e8:	f043 0801 	orrhi.w	r8, r3, #1
   d41ec:	f018 0f01 	tst.w	r8, #1
   d41f0:	d11b      	bne.n	d422a <ICM_20948_i2c_master_slv4_txn+0x112>
		if (Rw)
   d41f2:	b14e      	cbz	r6, d4208 <ICM_20948_i2c_master_slv4_txn+0xf0>
			retval = ICM_20948_set_bank(pdev, 3);
   d41f4:	2103      	movs	r1, #3
   d41f6:	4620      	mov	r0, r4
   d41f8:	f7ff ff7d 	bl	d40f6 <ICM_20948_set_bank>
			retval = ICM_20948_execute_r(pdev, AGB3_REG_I2C_SLV4_DI, &data[nByte], 1);
   d41fc:	2301      	movs	r3, #1
   d41fe:	19ea      	adds	r2, r5, r7
   d4200:	2117      	movs	r1, #23
   d4202:	4620      	mov	r0, r4
   d4204:	f7ff ff66 	bl	d40d4 <ICM_20948_execute_r>
		nByte++;
   d4208:	3701      	adds	r7, #1
   d420a:	e7bd      	b.n	d4188 <ICM_20948_i2c_master_slv4_txn+0x70>
			retval = ICM_20948_set_bank(pdev, 3);
   d420c:	2103      	movs	r1, #3
   d420e:	4620      	mov	r0, r4
   d4210:	f7ff ff71 	bl	d40f6 <ICM_20948_set_bank>
			retval = ICM_20948_execute_w(pdev, AGB3_REG_I2C_SLV4_DO, (uint8_t *)&(data[nByte]), 1);
   d4214:	2301      	movs	r3, #1
   d4216:	19ea      	adds	r2, r5, r7
   d4218:	2116      	movs	r1, #22
   d421a:	4620      	mov	r0, r4
   d421c:	f7ff ff49 	bl	d40b2 <ICM_20948_execute_w>
			if (retval != ICM_20948_Stat_Ok)
   d4220:	2800      	cmp	r0, #0
   d4222:	d0b6      	beq.n	d4192 <ICM_20948_i2c_master_slv4_txn+0x7a>
}
   d4224:	b005      	add	sp, #20
   d4226:	e8bd 83f0 	ldmia.w	sp!, {r4, r5, r6, r7, r8, r9, pc}
		return ICM_20948_Stat_Err;
   d422a:	2001      	movs	r0, #1
   d422c:	e7fa      	b.n	d4224 <ICM_20948_i2c_master_slv4_txn+0x10c>

000d422e <ICM_20948_i2c_master_single_w>:
{
   d422e:	b530      	push	{r4, r5, lr}
   d4230:	b085      	sub	sp, #20
	return ICM_20948_i2c_master_slv4_txn(pdev, addr, reg, data, 1, false, true);
   d4232:	2401      	movs	r4, #1
   d4234:	2500      	movs	r5, #0
   d4236:	e9cd 5401 	strd	r5, r4, [sp, #4]
   d423a:	9400      	str	r4, [sp, #0]
   d423c:	f7ff ff6c 	bl	d4118 <ICM_20948_i2c_master_slv4_txn>
}
   d4240:	b005      	add	sp, #20
   d4242:	bd30      	pop	{r4, r5, pc}

000d4244 <ICM_20948_i2c_master_single_r>:
{
   d4244:	b51f      	push	{r0, r1, r2, r3, r4, lr}
	return ICM_20948_i2c_master_slv4_txn(pdev, addr, reg, data, 1, true, true);
   d4246:	2401      	movs	r4, #1
   d4248:	e9cd 4401 	strd	r4, r4, [sp, #4]
   d424c:	9400      	str	r4, [sp, #0]
   d424e:	f7ff ff63 	bl	d4118 <ICM_20948_i2c_master_slv4_txn>
}
   d4252:	b004      	add	sp, #16
   d4254:	bd10      	pop	{r4, pc}

000d4256 <ICM_20948_sw_reset>:

ICM_20948_Status_e ICM_20948_sw_reset(ICM_20948_Device_t *pdev)
{
   d4256:	b513      	push	{r0, r1, r4, lr}
   d4258:	4604      	mov	r4, r0
	ICM_20948_Status_e retval = ICM_20948_Stat_Ok;
	ICM_20948_PWR_MGMT_1_t reg;

	ICM_20948_set_bank(pdev, 0); // Must be in the right bank
   d425a:	2100      	movs	r1, #0
   d425c:	f7ff ff4b 	bl	d40f6 <ICM_20948_set_bank>

	retval = ICM_20948_execute_r(pdev, AGB0_REG_PWR_MGMT_1, (uint8_t *)&reg, sizeof(ICM_20948_PWR_MGMT_1_t));
   d4260:	2301      	movs	r3, #1
   d4262:	aa01      	add	r2, sp, #4
   d4264:	2106      	movs	r1, #6
   d4266:	4620      	mov	r0, r4
   d4268:	f7ff ff34 	bl	d40d4 <ICM_20948_execute_r>
	if (retval != ICM_20948_Stat_Ok)
   d426c:	b958      	cbnz	r0, d4286 <ICM_20948_sw_reset+0x30>
	{
		return retval;
	}

	reg.DEVICE_RESET = 1;
   d426e:	f89d 3004 	ldrb.w	r3, [sp, #4]
   d4272:	f043 0380 	orr.w	r3, r3, #128	; 0x80
   d4276:	f88d 3004 	strb.w	r3, [sp, #4]

	retval = ICM_20948_execute_w(pdev, AGB0_REG_PWR_MGMT_1, (uint8_t *)&reg, sizeof(ICM_20948_PWR_MGMT_1_t));
   d427a:	aa01      	add	r2, sp, #4
   d427c:	2301      	movs	r3, #1
   d427e:	2106      	movs	r1, #6
   d4280:	4620      	mov	r0, r4
   d4282:	f7ff ff16 	bl	d40b2 <ICM_20948_execute_w>
	if (retval != ICM_20948_Stat_Ok)
	{
		return retval;
	}
	return retval;
}
   d4286:	b002      	add	sp, #8
   d4288:	bd10      	pop	{r4, pc}

000d428a <ICM_20948_sleep>:

ICM_20948_Status_e ICM_20948_sleep(ICM_20948_Device_t *pdev, bool on)
{
   d428a:	b537      	push	{r0, r1, r2, r4, r5, lr}
   d428c:	4604      	mov	r4, r0
   d428e:	460d      	mov	r5, r1
	ICM_20948_Status_e retval = ICM_20948_Stat_Ok;
	ICM_20948_PWR_MGMT_1_t reg;

	ICM_20948_set_bank(pdev, 0); // Must be in the right bank
   d4290:	2100      	movs	r1, #0
   d4292:	f7ff ff30 	bl	d40f6 <ICM_20948_set_bank>

	retval = ICM_20948_execute_r(pdev, AGB0_REG_PWR_MGMT_1, (uint8_t *)&reg, sizeof(ICM_20948_PWR_MGMT_1_t));
   d4296:	2301      	movs	r3, #1
   d4298:	aa01      	add	r2, sp, #4
   d429a:	2106      	movs	r1, #6
   d429c:	4620      	mov	r0, r4
   d429e:	f7ff ff19 	bl	d40d4 <ICM_20948_execute_r>
	if (retval != ICM_20948_Stat_Ok)
   d42a2:	b958      	cbnz	r0, d42bc <ICM_20948_sleep+0x32>
	{
		return retval;
	}

	if (on)
   d42a4:	f89d 3004 	ldrb.w	r3, [sp, #4]
   d42a8:	f365 1386 	bfi	r3, r5, #6, #1
   d42ac:	f88d 3004 	strb.w	r3, [sp, #4]
	else
	{
		reg.SLEEP = 0;
	}

	retval = ICM_20948_execute_w(pdev, AGB0_REG_PWR_MGMT_1, (uint8_t *)&reg, sizeof(ICM_20948_PWR_MGMT_1_t));
   d42b0:	aa01      	add	r2, sp, #4
   d42b2:	2301      	movs	r3, #1
   d42b4:	2106      	movs	r1, #6
   d42b6:	4620      	mov	r0, r4
   d42b8:	f7ff fefb 	bl	d40b2 <ICM_20948_execute_w>
	if (retval != ICM_20948_Stat_Ok)
	{
		return retval;
	}
	return retval;
}
   d42bc:	b003      	add	sp, #12
   d42be:	bd30      	pop	{r4, r5, pc}

000d42c0 <ICM_20948_low_power>:

ICM_20948_Status_e ICM_20948_low_power(ICM_20948_Device_t *pdev, bool on)
{
   d42c0:	b537      	push	{r0, r1, r2, r4, r5, lr}
   d42c2:	4604      	mov	r4, r0
   d42c4:	460d      	mov	r5, r1
	ICM_20948_Status_e retval = ICM_20948_Stat_Ok;
	ICM_20948_PWR_MGMT_1_t reg;

	ICM_20948_set_bank(pdev, 0); // Must be in the right bank
   d42c6:	2100      	movs	r1, #0
   d42c8:	f7ff ff15 	bl	d40f6 <ICM_20948_set_bank>

	retval = ICM_20948_execute_r(pdev, AGB0_REG_PWR_MGMT_1, (uint8_t *)&reg, sizeof(ICM_20948_PWR_MGMT_1_t));
   d42cc:	2301      	movs	r3, #1
   d42ce:	aa01      	add	r2, sp, #4
   d42d0:	2106      	movs	r1, #6
   d42d2:	4620      	mov	r0, r4
   d42d4:	f7ff fefe 	bl	d40d4 <ICM_20948_execute_r>
	if (retval != ICM_20948_Stat_Ok)
   d42d8:	b958      	cbnz	r0, d42f2 <ICM_20948_low_power+0x32>
	{
		return retval;
	}

	if (on)
   d42da:	f89d 3004 	ldrb.w	r3, [sp, #4]
   d42de:	f365 1345 	bfi	r3, r5, #5, #1
   d42e2:	f88d 3004 	strb.w	r3, [sp, #4]
	else
	{
		reg.LP_EN = 0;
	}

	retval = ICM_20948_execute_w(pdev, AGB0_REG_PWR_MGMT_1, (uint8_t *)&reg, sizeof(ICM_20948_PWR_MGMT_1_t));
   d42e6:	aa01      	add	r2, sp, #4
   d42e8:	2301      	movs	r3, #1
   d42ea:	2106      	movs	r1, #6
   d42ec:	4620      	mov	r0, r4
   d42ee:	f7ff fee0 	bl	d40b2 <ICM_20948_execute_w>
	if (retval != ICM_20948_Stat_Ok)
	{
		return retval;
	}
	return retval;
}
   d42f2:	b003      	add	sp, #12
   d42f4:	bd30      	pop	{r4, r5, pc}

000d42f6 <ICM_20948_get_who_am_i>:
	}
	return retval;
}

ICM_20948_Status_e ICM_20948_get_who_am_i(ICM_20948_Device_t *pdev, uint8_t *whoami)
{
   d42f6:	b570      	push	{r4, r5, r6, lr}
   d42f8:	4605      	mov	r5, r0
	if (whoami == NULL)
   d42fa:	460c      	mov	r4, r1
   d42fc:	b151      	cbz	r1, d4314 <ICM_20948_get_who_am_i+0x1e>
	{
		return ICM_20948_Stat_ParamErr;
	}
	ICM_20948_set_bank(pdev, 0); // Must be in the right bank
   d42fe:	2100      	movs	r1, #0
   d4300:	f7ff fef9 	bl	d40f6 <ICM_20948_set_bank>
	return ICM_20948_execute_r(pdev, AGB0_REG_WHO_AM_I, whoami, 1);
   d4304:	4622      	mov	r2, r4
   d4306:	4628      	mov	r0, r5
   d4308:	2301      	movs	r3, #1
}
   d430a:	e8bd 4070 	ldmia.w	sp!, {r4, r5, r6, lr}
	return ICM_20948_execute_r(pdev, AGB0_REG_WHO_AM_I, whoami, 1);
   d430e:	2100      	movs	r1, #0
   d4310:	f7ff bee0 	b.w	d40d4 <ICM_20948_execute_r>
}
   d4314:	2003      	movs	r0, #3
   d4316:	bd70      	pop	{r4, r5, r6, pc}

000d4318 <ICM_20948_check_id>:

ICM_20948_Status_e ICM_20948_check_id(ICM_20948_Device_t *pdev)
{
   d4318:	b507      	push	{r0, r1, r2, lr}
	ICM_20948_Status_e retval = ICM_20948_Stat_Ok;
	uint8_t whoami = 0x00;
   d431a:	2300      	movs	r3, #0
	retval = ICM_20948_get_who_am_i(pdev, &whoami);
   d431c:	f10d 0107 	add.w	r1, sp, #7
	uint8_t whoami = 0x00;
   d4320:	f88d 3007 	strb.w	r3, [sp, #7]
	retval = ICM_20948_get_who_am_i(pdev, &whoami);
   d4324:	f7ff ffe7 	bl	d42f6 <ICM_20948_get_who_am_i>
	if (retval != ICM_20948_Stat_Ok)
   d4328:	b920      	cbnz	r0, d4334 <ICM_20948_check_id+0x1c>
	{
		return retval;
	}
	if (whoami != ICM_20948_WHOAMI)
   d432a:	f89d 3007 	ldrb.w	r3, [sp, #7]
   d432e:	2bea      	cmp	r3, #234	; 0xea
	{
		return ICM_20948_Stat_WrongID;
   d4330:	bf18      	it	ne
   d4332:	2004      	movne	r0, #4
	}
	return retval;
}
   d4334:	b003      	add	sp, #12
   d4336:	f85d fb04 	ldr.w	pc, [sp], #4

000d433a <ICM_20948_set_sample_mode>:
ICM_20948_Status_e ICM_20948_set_sample_mode(ICM_20948_Device_t *pdev, ICM_20948_InternalSensorID_bm sensors, ICM_20948_LP_CONFIG_CYCLE_e mode)
{
	ICM_20948_Status_e retval = ICM_20948_Stat_Ok;
	ICM_20948_LP_CONFIG_t reg;

	if (!(sensors & (ICM_20948_Internal_Acc | ICM_20948_Internal_Gyr | ICM_20948_Internal_Mst)))
   d433a:	f011 0f13 	tst.w	r1, #19
{
   d433e:	b573      	push	{r0, r1, r4, r5, r6, lr}
   d4340:	4606      	mov	r6, r0
   d4342:	460c      	mov	r4, r1
   d4344:	4615      	mov	r5, r2
	if (!(sensors & (ICM_20948_Internal_Acc | ICM_20948_Internal_Gyr | ICM_20948_Internal_Mst)))
   d4346:	d02a      	beq.n	d439e <ICM_20948_set_sample_mode+0x64>
	{
		return ICM_20948_Stat_SensorNotSupported;
	}

	retval = ICM_20948_set_bank(pdev, 0); // Must be in the right bank
   d4348:	2100      	movs	r1, #0
   d434a:	f7ff fed4 	bl	d40f6 <ICM_20948_set_bank>
	if (retval != ICM_20948_Stat_Ok)
   d434e:	bb20      	cbnz	r0, d439a <ICM_20948_set_sample_mode+0x60>
	{
		return retval;
	}
	retval = ICM_20948_execute_r(pdev, AGB0_REG_LP_CONFIG, (uint8_t *)&reg, sizeof(ICM_20948_LP_CONFIG_t));
   d4350:	2301      	movs	r3, #1
   d4352:	aa01      	add	r2, sp, #4
   d4354:	2105      	movs	r1, #5
   d4356:	4630      	mov	r0, r6
   d4358:	f7ff febc 	bl	d40d4 <ICM_20948_execute_r>
	if (retval != ICM_20948_Stat_Ok)
   d435c:	b9e8      	cbnz	r0, d439a <ICM_20948_set_sample_mode+0x60>
	{
		return retval;
	}

	if (sensors & ICM_20948_Internal_Acc)
   d435e:	07e1      	lsls	r1, r4, #31
	{
		reg.ACCEL_CYCLE = mode;
   d4360:	bf42      	ittt	mi
   d4362:	f89d 3004 	ldrbmi.w	r3, [sp, #4]
   d4366:	f365 1345 	bfimi	r3, r5, #5, #1
   d436a:	f88d 3004 	strbmi.w	r3, [sp, #4]
	} // Set all desired sensors to this setting
	if (sensors & ICM_20948_Internal_Gyr)
   d436e:	07a2      	lsls	r2, r4, #30
	{
		reg.GYRO_CYCLE = mode;
   d4370:	bf42      	ittt	mi
   d4372:	f89d 3004 	ldrbmi.w	r3, [sp, #4]
   d4376:	f365 1304 	bfimi	r3, r5, #4, #1
   d437a:	f88d 3004 	strbmi.w	r3, [sp, #4]
	}
	if (sensors & ICM_20948_Internal_Mst)
   d437e:	06e3      	lsls	r3, r4, #27
	{
		reg.I2C_MST_CYCLE = mode;
   d4380:	bf42      	ittt	mi
   d4382:	f89d 3004 	ldrbmi.w	r3, [sp, #4]
   d4386:	f365 1386 	bfimi	r3, r5, #6, #1
   d438a:	f88d 3004 	strbmi.w	r3, [sp, #4]
	}

	retval = ICM_20948_execute_w(pdev, AGB0_REG_LP_CONFIG, (uint8_t *)&reg, sizeof(ICM_20948_LP_CONFIG_t));
   d438e:	aa01      	add	r2, sp, #4
   d4390:	2301      	movs	r3, #1
   d4392:	2105      	movs	r1, #5
   d4394:	4630      	mov	r0, r6
   d4396:	f7ff fe8c 	bl	d40b2 <ICM_20948_execute_w>
	if (retval != ICM_20948_Stat_Ok)
	{
		return retval;
	}
	return retval;
}
   d439a:	b002      	add	sp, #8
   d439c:	bd70      	pop	{r4, r5, r6, pc}
		return ICM_20948_Stat_SensorNotSupported;
   d439e:	2007      	movs	r0, #7
   d43a0:	e7fb      	b.n	d439a <ICM_20948_set_sample_mode+0x60>

000d43a2 <ICM_20948_set_full_scale>:

ICM_20948_Status_e ICM_20948_set_full_scale(ICM_20948_Device_t *pdev, ICM_20948_InternalSensorID_bm sensors, ICM_20948_fss_t fss)
{
	ICM_20948_Status_e retval = ICM_20948_Stat_Ok;

	if (!(sensors & (ICM_20948_Internal_Acc | ICM_20948_Internal_Gyr)))
   d43a2:	f011 0f03 	tst.w	r1, #3
{
   d43a6:	e92d 41f3 	stmdb	sp!, {r0, r1, r4, r5, r6, r7, r8, lr}
   d43aa:	4606      	mov	r6, r0
   d43ac:	4688      	mov	r8, r1
   d43ae:	4617      	mov	r7, r2
	if (!(sensors & (ICM_20948_Internal_Acc | ICM_20948_Internal_Gyr)))
   d43b0:	d041      	beq.n	d4436 <ICM_20948_set_full_scale+0x94>
	{
		return ICM_20948_Stat_SensorNotSupported;
	}

	if (sensors & ICM_20948_Internal_Acc)
   d43b2:	f011 0401 	ands.w	r4, r1, #1
   d43b6:	d019      	beq.n	d43ec <ICM_20948_set_full_scale+0x4a>
	{
		ICM_20948_ACCEL_CONFIG_t reg;
		retval |= ICM_20948_set_bank(pdev, 2); // Must be in the right bank
   d43b8:	2102      	movs	r1, #2
   d43ba:	f7ff fe9c 	bl	d40f6 <ICM_20948_set_bank>
		retval |= ICM_20948_execute_r(pdev, AGB2_REG_ACCEL_CONFIG, (uint8_t *)&reg, sizeof(ICM_20948_ACCEL_CONFIG_t));
   d43be:	2301      	movs	r3, #1
		retval |= ICM_20948_set_bank(pdev, 2); // Must be in the right bank
   d43c0:	4605      	mov	r5, r0
		retval |= ICM_20948_execute_r(pdev, AGB2_REG_ACCEL_CONFIG, (uint8_t *)&reg, sizeof(ICM_20948_ACCEL_CONFIG_t));
   d43c2:	aa01      	add	r2, sp, #4
   d43c4:	2114      	movs	r1, #20
   d43c6:	4630      	mov	r0, r6
   d43c8:	f7ff fe84 	bl	d40d4 <ICM_20948_execute_r>
		reg.ACCEL_FS_SEL = fss.a;
   d43cc:	f89d 3004 	ldrb.w	r3, [sp, #4]
		retval |= ICM_20948_execute_r(pdev, AGB2_REG_ACCEL_CONFIG, (uint8_t *)&reg, sizeof(ICM_20948_ACCEL_CONFIG_t));
   d43d0:	4328      	orrs	r0, r5
		reg.ACCEL_FS_SEL = fss.a;
   d43d2:	f367 0342 	bfi	r3, r7, #1, #2
		retval |= ICM_20948_execute_r(pdev, AGB2_REG_ACCEL_CONFIG, (uint8_t *)&reg, sizeof(ICM_20948_ACCEL_CONFIG_t));
   d43d6:	b2c4      	uxtb	r4, r0
		reg.ACCEL_FS_SEL = fss.a;
   d43d8:	f88d 3004 	strb.w	r3, [sp, #4]
		retval |= ICM_20948_execute_w(pdev, AGB2_REG_ACCEL_CONFIG, (uint8_t *)&reg, sizeof(ICM_20948_ACCEL_CONFIG_t));
   d43dc:	aa01      	add	r2, sp, #4
   d43de:	2301      	movs	r3, #1
   d43e0:	2114      	movs	r1, #20
   d43e2:	4630      	mov	r0, r6
   d43e4:	f7ff fe65 	bl	d40b2 <ICM_20948_execute_w>
   d43e8:	4304      	orrs	r4, r0
   d43ea:	b2e4      	uxtb	r4, r4
	}
	if (sensors & ICM_20948_Internal_Gyr)
   d43ec:	f018 0f02 	tst.w	r8, #2
   d43f0:	d01d      	beq.n	d442e <ICM_20948_set_full_scale+0x8c>
	{
		ICM_20948_GYRO_CONFIG_1_t reg;
		retval |= ICM_20948_set_bank(pdev, 2); // Must be in the right bank
   d43f2:	2102      	movs	r1, #2
   d43f4:	4630      	mov	r0, r6
   d43f6:	f7ff fe7e 	bl	d40f6 <ICM_20948_set_bank>
		retval |= ICM_20948_execute_r(pdev, AGB2_REG_GYRO_CONFIG_1, (uint8_t *)&reg, sizeof(ICM_20948_GYRO_CONFIG_1_t));
   d43fa:	2301      	movs	r3, #1
   d43fc:	4619      	mov	r1, r3
		retval |= ICM_20948_set_bank(pdev, 2); // Must be in the right bank
   d43fe:	4605      	mov	r5, r0
		retval |= ICM_20948_execute_r(pdev, AGB2_REG_GYRO_CONFIG_1, (uint8_t *)&reg, sizeof(ICM_20948_GYRO_CONFIG_1_t));
   d4400:	aa01      	add	r2, sp, #4
   d4402:	4630      	mov	r0, r6
   d4404:	f7ff fe66 	bl	d40d4 <ICM_20948_execute_r>
		reg.GYRO_FS_SEL = fss.g;
   d4408:	f89d 3004 	ldrb.w	r3, [sp, #4]
   d440c:	f3c7 0781 	ubfx	r7, r7, #2, #2
   d4410:	f367 0342 	bfi	r3, r7, #1, #2
		retval |= ICM_20948_execute_r(pdev, AGB2_REG_GYRO_CONFIG_1, (uint8_t *)&reg, sizeof(ICM_20948_GYRO_CONFIG_1_t));
   d4414:	4328      	orrs	r0, r5
		reg.GYRO_FS_SEL = fss.g;
   d4416:	f88d 3004 	strb.w	r3, [sp, #4]
		retval |= ICM_20948_execute_w(pdev, AGB2_REG_GYRO_CONFIG_1, (uint8_t *)&reg, sizeof(ICM_20948_GYRO_CONFIG_1_t));
   d441a:	2301      	movs	r3, #1
		retval |= ICM_20948_execute_r(pdev, AGB2_REG_GYRO_CONFIG_1, (uint8_t *)&reg, sizeof(ICM_20948_GYRO_CONFIG_1_t));
   d441c:	4304      	orrs	r4, r0
		retval |= ICM_20948_execute_w(pdev, AGB2_REG_GYRO_CONFIG_1, (uint8_t *)&reg, sizeof(ICM_20948_GYRO_CONFIG_1_t));
   d441e:	aa01      	add	r2, sp, #4
   d4420:	4619      	mov	r1, r3
   d4422:	4630      	mov	r0, r6
   d4424:	f7ff fe45 	bl	d40b2 <ICM_20948_execute_w>
		retval |= ICM_20948_execute_r(pdev, AGB2_REG_GYRO_CONFIG_1, (uint8_t *)&reg, sizeof(ICM_20948_GYRO_CONFIG_1_t));
   d4428:	b2e4      	uxtb	r4, r4
		retval |= ICM_20948_execute_w(pdev, AGB2_REG_GYRO_CONFIG_1, (uint8_t *)&reg, sizeof(ICM_20948_GYRO_CONFIG_1_t));
   d442a:	4304      	orrs	r4, r0
   d442c:	b2e4      	uxtb	r4, r4
	}
	return retval;
}
   d442e:	4620      	mov	r0, r4
   d4430:	b002      	add	sp, #8
   d4432:	e8bd 81f0 	ldmia.w	sp!, {r4, r5, r6, r7, r8, pc}
		return ICM_20948_Stat_SensorNotSupported;
   d4436:	2407      	movs	r4, #7
   d4438:	e7f9      	b.n	d442e <ICM_20948_set_full_scale+0x8c>

000d443a <ICM_20948_set_dlpf_cfg>:

ICM_20948_Status_e ICM_20948_set_dlpf_cfg(ICM_20948_Device_t *pdev, ICM_20948_InternalSensorID_bm sensors, ICM_20948_dlpcfg_t cfg)
{
   d443a:	b5f0      	push	{r4, r5, r6, r7, lr}
   d443c:	b085      	sub	sp, #20
   d443e:	4606      	mov	r6, r0
   d4440:	f8ad 2004 	strh.w	r2, [sp, #4]
	ICM_20948_Status_e retval = ICM_20948_Stat_Ok;

	if (!(sensors & (ICM_20948_Internal_Acc | ICM_20948_Internal_Gyr)))
   d4444:	078a      	lsls	r2, r1, #30
{
   d4446:	460f      	mov	r7, r1
	if (!(sensors & (ICM_20948_Internal_Acc | ICM_20948_Internal_Gyr)))
   d4448:	d042      	beq.n	d44d0 <ICM_20948_set_dlpf_cfg+0x96>
	{
		return ICM_20948_Stat_SensorNotSupported;
	}

	if (sensors & ICM_20948_Internal_Acc)
   d444a:	f011 0401 	ands.w	r4, r1, #1
   d444e:	d01c      	beq.n	d448a <ICM_20948_set_dlpf_cfg+0x50>
	{
		ICM_20948_ACCEL_CONFIG_t reg;
		retval |= ICM_20948_set_bank(pdev, 2); // Must be in the right bank
   d4450:	2102      	movs	r1, #2
   d4452:	f7ff fe50 	bl	d40f6 <ICM_20948_set_bank>
		retval |= ICM_20948_execute_r(pdev, AGB2_REG_ACCEL_CONFIG, (uint8_t *)&reg, sizeof(ICM_20948_ACCEL_CONFIG_t));
   d4456:	2301      	movs	r3, #1
		retval |= ICM_20948_set_bank(pdev, 2); // Must be in the right bank
   d4458:	4605      	mov	r5, r0
		retval |= ICM_20948_execute_r(pdev, AGB2_REG_ACCEL_CONFIG, (uint8_t *)&reg, sizeof(ICM_20948_ACCEL_CONFIG_t));
   d445a:	aa03      	add	r2, sp, #12
   d445c:	2114      	movs	r1, #20
   d445e:	4630      	mov	r0, r6
   d4460:	f7ff fe38 	bl	d40d4 <ICM_20948_execute_r>
		reg.ACCEL_DLPFCFG = cfg.a;
   d4464:	f89d 300c 	ldrb.w	r3, [sp, #12]
   d4468:	f89d 2004 	ldrb.w	r2, [sp, #4]
   d446c:	f362 03c5 	bfi	r3, r2, #3, #3
		retval |= ICM_20948_execute_r(pdev, AGB2_REG_ACCEL_CONFIG, (uint8_t *)&reg, sizeof(ICM_20948_ACCEL_CONFIG_t));
   d4470:	4305      	orrs	r5, r0
		reg.ACCEL_DLPFCFG = cfg.a;
   d4472:	f88d 300c 	strb.w	r3, [sp, #12]
		retval |= ICM_20948_execute_w(pdev, AGB2_REG_ACCEL_CONFIG, (uint8_t *)&reg, sizeof(ICM_20948_ACCEL_CONFIG_t));
   d4476:	aa03      	add	r2, sp, #12
   d4478:	2301      	movs	r3, #1
   d447a:	2114      	movs	r1, #20
   d447c:	4630      	mov	r0, r6
   d447e:	f7ff fe18 	bl	d40b2 <ICM_20948_execute_w>
		retval |= ICM_20948_execute_r(pdev, AGB2_REG_ACCEL_CONFIG, (uint8_t *)&reg, sizeof(ICM_20948_ACCEL_CONFIG_t));
   d4482:	b2ed      	uxtb	r5, r5
		retval |= ICM_20948_execute_w(pdev, AGB2_REG_ACCEL_CONFIG, (uint8_t *)&reg, sizeof(ICM_20948_ACCEL_CONFIG_t));
   d4484:	ea45 0400 	orr.w	r4, r5, r0
   d4488:	b2e4      	uxtb	r4, r4
	}
	if (sensors & ICM_20948_Internal_Gyr)
   d448a:	07bb      	lsls	r3, r7, #30
   d448c:	d51d      	bpl.n	d44ca <ICM_20948_set_dlpf_cfg+0x90>
	{
		ICM_20948_GYRO_CONFIG_1_t reg;
		retval |= ICM_20948_set_bank(pdev, 2); // Must be in the right bank
   d448e:	2102      	movs	r1, #2
   d4490:	4630      	mov	r0, r6
   d4492:	f7ff fe30 	bl	d40f6 <ICM_20948_set_bank>
		retval |= ICM_20948_execute_r(pdev, AGB2_REG_GYRO_CONFIG_1, (uint8_t *)&reg, sizeof(ICM_20948_GYRO_CONFIG_1_t));
   d4496:	2301      	movs	r3, #1
   d4498:	4619      	mov	r1, r3
		retval |= ICM_20948_set_bank(pdev, 2); // Must be in the right bank
   d449a:	4605      	mov	r5, r0
		retval |= ICM_20948_execute_r(pdev, AGB2_REG_GYRO_CONFIG_1, (uint8_t *)&reg, sizeof(ICM_20948_GYRO_CONFIG_1_t));
   d449c:	aa03      	add	r2, sp, #12
   d449e:	4630      	mov	r0, r6
   d44a0:	f7ff fe18 	bl	d40d4 <ICM_20948_execute_r>
		reg.GYRO_DLPFCFG = cfg.g;
   d44a4:	f89d 300c 	ldrb.w	r3, [sp, #12]
   d44a8:	f89d 2005 	ldrb.w	r2, [sp, #5]
   d44ac:	f362 03c5 	bfi	r3, r2, #3, #3
		retval |= ICM_20948_execute_r(pdev, AGB2_REG_GYRO_CONFIG_1, (uint8_t *)&reg, sizeof(ICM_20948_GYRO_CONFIG_1_t));
   d44b0:	4328      	orrs	r0, r5
		reg.GYRO_DLPFCFG = cfg.g;
   d44b2:	f88d 300c 	strb.w	r3, [sp, #12]
		retval |= ICM_20948_execute_w(pdev, AGB2_REG_GYRO_CONFIG_1, (uint8_t *)&reg, sizeof(ICM_20948_GYRO_CONFIG_1_t));
   d44b6:	2301      	movs	r3, #1
		retval |= ICM_20948_execute_r(pdev, AGB2_REG_GYRO_CONFIG_1, (uint8_t *)&reg, sizeof(ICM_20948_GYRO_CONFIG_1_t));
   d44b8:	4304      	orrs	r4, r0
		retval |= ICM_20948_execute_w(pdev, AGB2_REG_GYRO_CONFIG_1, (uint8_t *)&reg, sizeof(ICM_20948_GYRO_CONFIG_1_t));
   d44ba:	aa03      	add	r2, sp, #12
   d44bc:	4619      	mov	r1, r3
   d44be:	4630      	mov	r0, r6
   d44c0:	f7ff fdf7 	bl	d40b2 <ICM_20948_execute_w>
		retval |= ICM_20948_execute_r(pdev, AGB2_REG_GYRO_CONFIG_1, (uint8_t *)&reg, sizeof(ICM_20948_GYRO_CONFIG_1_t));
   d44c4:	b2e4      	uxtb	r4, r4
		retval |= ICM_20948_execute_w(pdev, AGB2_REG_GYRO_CONFIG_1, (uint8_t *)&reg, sizeof(ICM_20948_GYRO_CONFIG_1_t));
   d44c6:	4304      	orrs	r4, r0
   d44c8:	b2e4      	uxtb	r4, r4
	}
	return retval;
}
   d44ca:	4620      	mov	r0, r4
   d44cc:	b005      	add	sp, #20
   d44ce:	bdf0      	pop	{r4, r5, r6, r7, pc}
		return ICM_20948_Stat_SensorNotSupported;
   d44d0:	2407      	movs	r4, #7
   d44d2:	e7fa      	b.n	d44ca <ICM_20948_set_dlpf_cfg+0x90>

000d44d4 <ICM_20948_enable_dlpf>:

ICM_20948_Status_e ICM_20948_enable_dlpf(ICM_20948_Device_t *pdev, ICM_20948_InternalSensorID_bm sensors, bool enable)
{
	ICM_20948_Status_e retval = ICM_20948_Stat_Ok;

	if (!(sensors & (ICM_20948_Internal_Acc | ICM_20948_Internal_Gyr)))
   d44d4:	f011 0f03 	tst.w	r1, #3
{
   d44d8:	e92d 41f3 	stmdb	sp!, {r0, r1, r4, r5, r6, r7, r8, lr}
   d44dc:	4606      	mov	r6, r0
   d44de:	4688      	mov	r8, r1
   d44e0:	4617      	mov	r7, r2
	if (!(sensors & (ICM_20948_Internal_Acc | ICM_20948_Internal_Gyr)))
   d44e2:	d03f      	beq.n	d4564 <ICM_20948_enable_dlpf+0x90>
	{
		return ICM_20948_Stat_SensorNotSupported;
	}

	if (sensors & ICM_20948_Internal_Acc)
   d44e4:	f011 0401 	ands.w	r4, r1, #1
   d44e8:	d019      	beq.n	d451e <ICM_20948_enable_dlpf+0x4a>
	{
		ICM_20948_ACCEL_CONFIG_t reg;
		retval |= ICM_20948_set_bank(pdev, 2); // Must be in the right bank
   d44ea:	2102      	movs	r1, #2
   d44ec:	f7ff fe03 	bl	d40f6 <ICM_20948_set_bank>
		retval |= ICM_20948_execute_r(pdev, AGB2_REG_ACCEL_CONFIG, (uint8_t *)&reg, sizeof(ICM_20948_ACCEL_CONFIG_t));
   d44f0:	2301      	movs	r3, #1
		retval |= ICM_20948_set_bank(pdev, 2); // Must be in the right bank
   d44f2:	4605      	mov	r5, r0
		retval |= ICM_20948_execute_r(pdev, AGB2_REG_ACCEL_CONFIG, (uint8_t *)&reg, sizeof(ICM_20948_ACCEL_CONFIG_t));
   d44f4:	aa01      	add	r2, sp, #4
   d44f6:	2114      	movs	r1, #20
   d44f8:	4630      	mov	r0, r6
   d44fa:	f7ff fdeb 	bl	d40d4 <ICM_20948_execute_r>
   d44fe:	f89d 3004 	ldrb.w	r3, [sp, #4]
   d4502:	4328      	orrs	r0, r5
   d4504:	f367 0300 	bfi	r3, r7, #0, #1
   d4508:	b2c4      	uxtb	r4, r0
		if (enable)
   d450a:	f88d 3004 	strb.w	r3, [sp, #4]
		}
		else
		{
			reg.ACCEL_FCHOICE = 0;
		}
		retval |= ICM_20948_execute_w(pdev, AGB2_REG_ACCEL_CONFIG, (uint8_t *)&reg, sizeof(ICM_20948_ACCEL_CONFIG_t));
   d450e:	aa01      	add	r2, sp, #4
   d4510:	2301      	movs	r3, #1
   d4512:	2114      	movs	r1, #20
   d4514:	4630      	mov	r0, r6
   d4516:	f7ff fdcc 	bl	d40b2 <ICM_20948_execute_w>
   d451a:	4304      	orrs	r4, r0
   d451c:	b2e4      	uxtb	r4, r4
	}
	if (sensors & ICM_20948_Internal_Gyr)
   d451e:	f018 0f02 	tst.w	r8, #2
   d4522:	d01b      	beq.n	d455c <ICM_20948_enable_dlpf+0x88>
	{
		ICM_20948_GYRO_CONFIG_1_t reg;
		retval |= ICM_20948_set_bank(pdev, 2); // Must be in the right bank
   d4524:	2102      	movs	r1, #2
   d4526:	4630      	mov	r0, r6
   d4528:	f7ff fde5 	bl	d40f6 <ICM_20948_set_bank>
		retval |= ICM_20948_execute_r(pdev, AGB2_REG_GYRO_CONFIG_1, (uint8_t *)&reg, sizeof(ICM_20948_GYRO_CONFIG_1_t));
   d452c:	2301      	movs	r3, #1
   d452e:	4619      	mov	r1, r3
		retval |= ICM_20948_set_bank(pdev, 2); // Must be in the right bank
   d4530:	4605      	mov	r5, r0
		retval |= ICM_20948_execute_r(pdev, AGB2_REG_GYRO_CONFIG_1, (uint8_t *)&reg, sizeof(ICM_20948_GYRO_CONFIG_1_t));
   d4532:	aa01      	add	r2, sp, #4
   d4534:	4630      	mov	r0, r6
   d4536:	f7ff fdcd 	bl	d40d4 <ICM_20948_execute_r>
   d453a:	f89d 3004 	ldrb.w	r3, [sp, #4]
   d453e:	f367 0300 	bfi	r3, r7, #0, #1
   d4542:	4328      	orrs	r0, r5
   d4544:	f88d 3004 	strb.w	r3, [sp, #4]
		}
		else
		{
			reg.GYRO_FCHOICE = 0;
		}
		retval |= ICM_20948_execute_w(pdev, AGB2_REG_GYRO_CONFIG_1, (uint8_t *)&reg, sizeof(ICM_20948_GYRO_CONFIG_1_t));
   d4548:	2301      	movs	r3, #1
		retval |= ICM_20948_execute_r(pdev, AGB2_REG_GYRO_CONFIG_1, (uint8_t *)&reg, sizeof(ICM_20948_GYRO_CONFIG_1_t));
   d454a:	4304      	orrs	r4, r0
		retval |= ICM_20948_execute_w(pdev, AGB2_REG_GYRO_CONFIG_1, (uint8_t *)&reg, sizeof(ICM_20948_GYRO_CONFIG_1_t));
   d454c:	aa01      	add	r2, sp, #4
   d454e:	4619      	mov	r1, r3
   d4550:	4630      	mov	r0, r6
   d4552:	f7ff fdae 	bl	d40b2 <ICM_20948_execute_w>
		retval |= ICM_20948_execute_r(pdev, AGB2_REG_GYRO_CONFIG_1, (uint8_t *)&reg, sizeof(ICM_20948_GYRO_CONFIG_1_t));
   d4556:	b2e4      	uxtb	r4, r4
		retval |= ICM_20948_execute_w(pdev, AGB2_REG_GYRO_CONFIG_1, (uint8_t *)&reg, sizeof(ICM_20948_GYRO_CONFIG_1_t));
   d4558:	4304      	orrs	r4, r0
   d455a:	b2e4      	uxtb	r4, r4
	}
	return retval;
}
   d455c:	4620      	mov	r0, r4
   d455e:	b002      	add	sp, #8
   d4560:	e8bd 81f0 	ldmia.w	sp!, {r4, r5, r6, r7, r8, pc}
		return ICM_20948_Stat_SensorNotSupported;
   d4564:	2407      	movs	r4, #7
   d4566:	e7f9      	b.n	d455c <ICM_20948_enable_dlpf+0x88>

000d4568 <ICM_20948_i2c_master_passthrough>:
	return retval;
}

// Interface Things
ICM_20948_Status_e ICM_20948_i2c_master_passthrough(ICM_20948_Device_t *pdev, bool passthrough)
{
   d4568:	b537      	push	{r0, r1, r2, r4, r5, lr}
   d456a:	460d      	mov	r5, r1
	ICM_20948_Status_e retval = ICM_20948_Stat_Ok;

	ICM_20948_INT_PIN_CFG_t reg;
	retval = ICM_20948_set_bank(pdev, 0);
   d456c:	2100      	movs	r1, #0
{
   d456e:	4604      	mov	r4, r0
	retval = ICM_20948_set_bank(pdev, 0);
   d4570:	f7ff fdc1 	bl	d40f6 <ICM_20948_set_bank>
	if (retval != ICM_20948_Stat_Ok)
   d4574:	b990      	cbnz	r0, d459c <ICM_20948_i2c_master_passthrough+0x34>
	{
		return retval;
	}
	retval = ICM_20948_execute_r(pdev, AGB0_REG_INT_PIN_CONFIG, (uint8_t *)&reg, sizeof(ICM_20948_INT_PIN_CFG_t));
   d4576:	2301      	movs	r3, #1
   d4578:	aa01      	add	r2, sp, #4
   d457a:	210f      	movs	r1, #15
   d457c:	4620      	mov	r0, r4
   d457e:	f7ff fda9 	bl	d40d4 <ICM_20948_execute_r>
	if (retval != ICM_20948_Stat_Ok)
   d4582:	b958      	cbnz	r0, d459c <ICM_20948_i2c_master_passthrough+0x34>
	{
		return retval;
	}
	reg.BYPASS_EN = passthrough;
   d4584:	f89d 3004 	ldrb.w	r3, [sp, #4]
   d4588:	f365 0341 	bfi	r3, r5, #1, #1
   d458c:	f88d 3004 	strb.w	r3, [sp, #4]
	retval = ICM_20948_execute_w(pdev, AGB0_REG_INT_PIN_CONFIG, (uint8_t *)&reg, sizeof(ICM_20948_INT_PIN_CFG_t));
   d4590:	aa01      	add	r2, sp, #4
   d4592:	2301      	movs	r3, #1
   d4594:	210f      	movs	r1, #15
   d4596:	4620      	mov	r0, r4
   d4598:	f7ff fd8b 	bl	d40b2 <ICM_20948_execute_w>
	{
		return retval;
	}

	return retval;
}
   d459c:	b003      	add	sp, #12
   d459e:	bd30      	pop	{r4, r5, pc}

000d45a0 <ICM_20948_i2c_master_enable>:

ICM_20948_Status_e ICM_20948_i2c_master_enable(ICM_20948_Device_t *pdev, bool enable)
{
   d45a0:	b537      	push	{r0, r1, r2, r4, r5, lr}
   d45a2:	460d      	mov	r5, r1
	ICM_20948_Status_e retval = ICM_20948_Stat_Ok;

	// Disable BYPASS_EN
	retval = ICM_20948_i2c_master_passthrough(pdev, false);
   d45a4:	2100      	movs	r1, #0
{
   d45a6:	4604      	mov	r4, r0
	retval = ICM_20948_i2c_master_passthrough(pdev, false);
   d45a8:	f7ff ffde 	bl	d4568 <ICM_20948_i2c_master_passthrough>
	if (retval != ICM_20948_Stat_Ok)
   d45ac:	bb90      	cbnz	r0, d4614 <ICM_20948_i2c_master_enable+0x74>
	{
		return retval;
	}

	ICM_20948_I2C_MST_CTRL_t ctrl;
	retval = ICM_20948_set_bank(pdev, 3);
   d45ae:	2103      	movs	r1, #3
   d45b0:	4620      	mov	r0, r4
   d45b2:	f7ff fda0 	bl	d40f6 <ICM_20948_set_bank>
	if (retval != ICM_20948_Stat_Ok)
   d45b6:	bb68      	cbnz	r0, d4614 <ICM_20948_i2c_master_enable+0x74>
	{
		return retval;
	}
	retval = ICM_20948_execute_r(pdev, AGB3_REG_I2C_MST_CTRL, (uint8_t *)&ctrl, sizeof(ICM_20948_I2C_MST_CTRL_t));
   d45b8:	2301      	movs	r3, #1
   d45ba:	466a      	mov	r2, sp
   d45bc:	4619      	mov	r1, r3
   d45be:	4620      	mov	r0, r4
   d45c0:	f7ff fd88 	bl	d40d4 <ICM_20948_execute_r>
	if (retval != ICM_20948_Stat_Ok)
   d45c4:	bb30      	cbnz	r0, d4614 <ICM_20948_i2c_master_enable+0x74>
	{
		return retval;
	}
	ctrl.I2C_MST_CLK = 0x07; // corresponds to 345.6 kHz, good for up to 400 kHz
   d45c6:	f89d 3000 	ldrb.w	r3, [sp]
   d45ca:	f023 031f 	bic.w	r3, r3, #31
   d45ce:	f043 0317 	orr.w	r3, r3, #23
   d45d2:	f88d 3000 	strb.w	r3, [sp]
	ctrl.I2C_MST_P_NSR = 1;
	retval = ICM_20948_execute_w(pdev, AGB3_REG_I2C_MST_CTRL, (uint8_t *)&ctrl, sizeof(ICM_20948_I2C_MST_CTRL_t));
   d45d6:	2301      	movs	r3, #1
   d45d8:	466a      	mov	r2, sp
   d45da:	4619      	mov	r1, r3
   d45dc:	4620      	mov	r0, r4
   d45de:	f7ff fd68 	bl	d40b2 <ICM_20948_execute_w>
	if (retval != ICM_20948_Stat_Ok)
   d45e2:	b9b8      	cbnz	r0, d4614 <ICM_20948_i2c_master_enable+0x74>
	{
		return retval;
	}

	ICM_20948_USER_CTRL_t reg;
	retval = ICM_20948_set_bank(pdev, 0);
   d45e4:	4601      	mov	r1, r0
   d45e6:	4620      	mov	r0, r4
   d45e8:	f7ff fd85 	bl	d40f6 <ICM_20948_set_bank>
	if (retval != ICM_20948_Stat_Ok)
   d45ec:	b990      	cbnz	r0, d4614 <ICM_20948_i2c_master_enable+0x74>
	{
		return retval;
	}
	retval = ICM_20948_execute_r(pdev, AGB0_REG_USER_CTRL, (uint8_t *)&reg, sizeof(ICM_20948_USER_CTRL_t));
   d45ee:	2301      	movs	r3, #1
   d45f0:	aa01      	add	r2, sp, #4
   d45f2:	2103      	movs	r1, #3
   d45f4:	4620      	mov	r0, r4
   d45f6:	f7ff fd6d 	bl	d40d4 <ICM_20948_execute_r>
	if (retval != ICM_20948_Stat_Ok)
   d45fa:	b958      	cbnz	r0, d4614 <ICM_20948_i2c_master_enable+0x74>
	{
		return retval;
	}
	if (enable)
   d45fc:	f89d 3004 	ldrb.w	r3, [sp, #4]
   d4600:	f365 1345 	bfi	r3, r5, #5, #1
   d4604:	f88d 3004 	strb.w	r3, [sp, #4]
	}
	else
	{
		reg.I2C_MST_EN = 0;
	}
	retval = ICM_20948_execute_w(pdev, AGB0_REG_USER_CTRL, (uint8_t *)&reg, sizeof(ICM_20948_USER_CTRL_t));
   d4608:	aa01      	add	r2, sp, #4
   d460a:	2301      	movs	r3, #1
   d460c:	2103      	movs	r1, #3
   d460e:	4620      	mov	r0, r4
   d4610:	f7ff fd4f 	bl	d40b2 <ICM_20948_execute_w>
	{
		return retval;
	}

	return retval;
}
   d4614:	b003      	add	sp, #12
   d4616:	bd30      	pop	{r4, r5, pc}

000d4618 <ICM_20948_i2c_master_reset>:

ICM_20948_Status_e ICM_20948_i2c_master_reset(ICM_20948_Device_t *pdev)
{
   d4618:	b513      	push	{r0, r1, r4, lr}
	ICM_20948_Status_e retval = ICM_20948_Stat_Ok;

	ICM_20948_USER_CTRL_t ctrl;
	retval = ICM_20948_set_bank(pdev, 0);
   d461a:	2100      	movs	r1, #0
{
   d461c:	4604      	mov	r4, r0
	retval = ICM_20948_set_bank(pdev, 0);
   d461e:	f7ff fd6a 	bl	d40f6 <ICM_20948_set_bank>
	if (retval != ICM_20948_Stat_Ok)
   d4622:	b990      	cbnz	r0, d464a <ICM_20948_i2c_master_reset+0x32>
	{
		return retval;
	}

	retval = ICM_20948_execute_r(pdev, AGB0_REG_USER_CTRL, (uint8_t *)&ctrl, sizeof(ICM_20948_USER_CTRL_t));
   d4624:	2301      	movs	r3, #1
   d4626:	aa01      	add	r2, sp, #4
   d4628:	2103      	movs	r1, #3
   d462a:	4620      	mov	r0, r4
   d462c:	f7ff fd52 	bl	d40d4 <ICM_20948_execute_r>
	if (retval != ICM_20948_Stat_Ok)
   d4630:	b958      	cbnz	r0, d464a <ICM_20948_i2c_master_reset+0x32>
	{
		return retval;
	}

	ctrl.I2C_MST_RST = 1; //Reset!
   d4632:	f89d 3004 	ldrb.w	r3, [sp, #4]
   d4636:	f043 0302 	orr.w	r3, r3, #2
   d463a:	f88d 3004 	strb.w	r3, [sp, #4]

	retval = ICM_20948_execute_w(pdev, AGB0_REG_USER_CTRL, (uint8_t *)&ctrl, sizeof(ICM_20948_USER_CTRL_t));
   d463e:	aa01      	add	r2, sp, #4
   d4640:	2301      	movs	r3, #1
   d4642:	2103      	movs	r1, #3
   d4644:	4620      	mov	r0, r4
   d4646:	f7ff fd34 	bl	d40b2 <ICM_20948_execute_w>
	if (retval != ICM_20948_Stat_Ok)
	{
		return retval;
	}
	return retval;
}
   d464a:	b002      	add	sp, #8
   d464c:	bd10      	pop	{r4, pc}

000d464e <ICM_20948_i2c_master_configure_slave>:

ICM_20948_Status_e ICM_20948_i2c_master_configure_slave(ICM_20948_Device_t *pdev, uint8_t slave, uint8_t addr, uint8_t reg, uint8_t len, bool Rw, bool enable, bool data_only, bool grp, bool swap)
{
   d464e:	e92d 41ff 	stmdb	sp!, {r0, r1, r2, r3, r4, r5, r6, r7, r8, lr}
   d4652:	2903      	cmp	r1, #3
   d4654:	f89d 802c 	ldrb.w	r8, [sp, #44]	; 0x2c
   d4658:	4605      	mov	r5, r0
   d465a:	460c      	mov	r4, r1
   d465c:	4617      	mov	r7, r2
   d465e:	461e      	mov	r6, r3
   d4660:	d847      	bhi.n	d46f2 <ICM_20948_i2c_master_configure_slave+0xa4>
		break;
	default:
		return ICM_20948_Stat_ParamErr;
	}

	retval = ICM_20948_set_bank(pdev, 3);
   d4662:	2103      	movs	r1, #3
   d4664:	f7ff fd47 	bl	d40f6 <ICM_20948_set_bank>
	if (retval != ICM_20948_Stat_Ok)
   d4668:	2800      	cmp	r0, #0
   d466a:	d13f      	bne.n	d46ec <ICM_20948_i2c_master_configure_slave+0x9e>
		return retval;
	}

	// Set the slave address and the Rw flag
	ICM_20948_I2C_SLVX_ADDR_t address;
	address.ID = addr;
   d466c:	f89d 3004 	ldrb.w	r3, [sp, #4]
   d4670:	f367 0306 	bfi	r3, r7, #0, #7
   d4674:	f88d 3004 	strb.w	r3, [sp, #4]
	if (Rw)
   d4678:	f1b8 0f00 	cmp.w	r8, #0
   d467c:	d004      	beq.n	d4688 <ICM_20948_i2c_master_configure_slave+0x3a>
	{
		address.RNW = 1;
   d467e:	b2db      	uxtb	r3, r3
   d4680:	f043 0380 	orr.w	r3, r3, #128	; 0x80
   d4684:	f88d 3004 	strb.w	r3, [sp, #4]
   d4688:	00a4      	lsls	r4, r4, #2
   d468a:	b2e4      	uxtb	r4, r4
	}
	retval = ICM_20948_execute_w(pdev, slv_addr_reg, (uint8_t *)&address, sizeof(ICM_20948_I2C_SLVX_ADDR_t));
   d468c:	1ce1      	adds	r1, r4, #3
   d468e:	2301      	movs	r3, #1
   d4690:	aa01      	add	r2, sp, #4
   d4692:	b2c9      	uxtb	r1, r1
   d4694:	4628      	mov	r0, r5
   d4696:	f7ff fd0c 	bl	d40b2 <ICM_20948_execute_w>
	if (retval != ICM_20948_Stat_Ok)
   d469a:	bb38      	cbnz	r0, d46ec <ICM_20948_i2c_master_configure_slave+0x9e>
	}

	// Set the slave sub-address (reg)
	ICM_20948_I2C_SLVX_REG_t subaddress;
	subaddress.REG = reg;
	retval = ICM_20948_execute_w(pdev, slv_reg_reg, (uint8_t *)&subaddress, sizeof(ICM_20948_I2C_SLVX_REG_t));
   d469c:	1d21      	adds	r1, r4, #4
   d469e:	2301      	movs	r3, #1
   d46a0:	aa02      	add	r2, sp, #8
   d46a2:	f001 01fc 	and.w	r1, r1, #252	; 0xfc
   d46a6:	4628      	mov	r0, r5
	subaddress.REG = reg;
   d46a8:	f88d 6008 	strb.w	r6, [sp, #8]
	retval = ICM_20948_execute_w(pdev, slv_reg_reg, (uint8_t *)&subaddress, sizeof(ICM_20948_I2C_SLVX_REG_t));
   d46ac:	f7ff fd01 	bl	d40b2 <ICM_20948_execute_w>
	if (retval != ICM_20948_Stat_Ok)
   d46b0:	b9e0      	cbnz	r0, d46ec <ICM_20948_i2c_master_configure_slave+0x9e>
		return retval;
	}

	// Set up the control info
	ICM_20948_I2C_SLVX_CTRL_t ctrl;
	ctrl.LENG = len;
   d46b2:	f89d 3028 	ldrb.w	r3, [sp, #40]	; 0x28
   d46b6:	f89d 2038 	ldrb.w	r2, [sp, #56]	; 0x38
   d46ba:	f003 030f 	and.w	r3, r3, #15
   d46be:	ea43 1302 	orr.w	r3, r3, r2, lsl #4
   d46c2:	f89d 2034 	ldrb.w	r2, [sp, #52]	; 0x34
   d46c6:	ea43 1342 	orr.w	r3, r3, r2, lsl #5
   d46ca:	f89d 203c 	ldrb.w	r2, [sp, #60]	; 0x3c
   d46ce:	ea43 1382 	orr.w	r3, r3, r2, lsl #6
   d46d2:	f89d 2030 	ldrb.w	r2, [sp, #48]	; 0x30
	ctrl.EN = enable;
	ctrl.REG_DIS = data_only;
	ctrl.GRP = grp;
	ctrl.BYTE_SW = swap;
	retval = ICM_20948_execute_w(pdev, slv_ctrl_reg, (uint8_t *)&ctrl, sizeof(ICM_20948_I2C_SLVX_CTRL_t));
   d46d6:	1d61      	adds	r1, r4, #5
	ctrl.LENG = len;
   d46d8:	ea43 13c2 	orr.w	r3, r3, r2, lsl #7
   d46dc:	f88d 300c 	strb.w	r3, [sp, #12]
	retval = ICM_20948_execute_w(pdev, slv_ctrl_reg, (uint8_t *)&ctrl, sizeof(ICM_20948_I2C_SLVX_CTRL_t));
   d46e0:	aa03      	add	r2, sp, #12
   d46e2:	2301      	movs	r3, #1
   d46e4:	b2c9      	uxtb	r1, r1
   d46e6:	4628      	mov	r0, r5
   d46e8:	f7ff fce3 	bl	d40b2 <ICM_20948_execute_w>
	{
		return retval;
	}

	return retval;
}
   d46ec:	b004      	add	sp, #16
   d46ee:	e8bd 81f0 	ldmia.w	sp!, {r4, r5, r6, r7, r8, pc}
		return ICM_20948_Stat_ParamErr;
   d46f2:	2003      	movs	r0, #3
   d46f4:	e7fa      	b.n	d46ec <ICM_20948_i2c_master_configure_slave+0x9e>

000d46f6 <ICM_20948_get_agmt>:

// Higher Level
ICM_20948_Status_e ICM_20948_get_agmt(ICM_20948_Device_t *pdev, ICM_20948_AGMT_t *pagmt)
{
   d46f6:	e92d 41d0 	stmdb	sp!, {r4, r6, r7, r8, lr}
   d46fa:	4680      	mov	r8, r0
   d46fc:	b08b      	sub	sp, #44	; 0x2c
	if (pagmt == NULL)
   d46fe:	460f      	mov	r7, r1
   d4700:	2900      	cmp	r1, #0
   d4702:	f000 808f 	beq.w	d4824 <ICM_20948_get_agmt+0x12e>
	ICM_20948_Status_e retval = ICM_20948_Stat_Ok;
	const uint8_t numbytes = 14 + 9; //Read Accel, gyro, temp, and 9 bytes of mag
	uint8_t buff[numbytes];

	// Get readings
	retval |= ICM_20948_set_bank(pdev, 0);
   d4706:	2100      	movs	r1, #0
   d4708:	f7ff fcf5 	bl	d40f6 <ICM_20948_set_bank>
	retval |= ICM_20948_execute_r(pdev, (uint8_t)AGB0_REG_ACCEL_XOUT_H, buff, numbytes);
   d470c:	2317      	movs	r3, #23
	retval |= ICM_20948_set_bank(pdev, 0);
   d470e:	4606      	mov	r6, r0
	retval |= ICM_20948_execute_r(pdev, (uint8_t)AGB0_REG_ACCEL_XOUT_H, buff, numbytes);
   d4710:	aa04      	add	r2, sp, #16
   d4712:	212d      	movs	r1, #45	; 0x2d
   d4714:	4640      	mov	r0, r8
   d4716:	f7ff fcdd 	bl	d40d4 <ICM_20948_execute_r>

	pagmt->acc.axes.x = ((buff[0] << 8) | (buff[1] & 0xFF));
   d471a:	f89d 2010 	ldrb.w	r2, [sp, #16]
   d471e:	f89d 3011 	ldrb.w	r3, [sp, #17]
   d4722:	ea43 2302 	orr.w	r3, r3, r2, lsl #8
   d4726:	803b      	strh	r3, [r7, #0]
	pagmt->acc.axes.y = ((buff[2] << 8) | (buff[3] & 0xFF));
   d4728:	f89d 2012 	ldrb.w	r2, [sp, #18]
   d472c:	f89d 3013 	ldrb.w	r3, [sp, #19]
   d4730:	ea43 2302 	orr.w	r3, r3, r2, lsl #8
   d4734:	807b      	strh	r3, [r7, #2]
	pagmt->acc.axes.z = ((buff[4] << 8) | (buff[5] & 0xFF));
   d4736:	f89d 2014 	ldrb.w	r2, [sp, #20]
   d473a:	f89d 3015 	ldrb.w	r3, [sp, #21]
   d473e:	ea43 2302 	orr.w	r3, r3, r2, lsl #8
   d4742:	80bb      	strh	r3, [r7, #4]

	pagmt->gyr.axes.x = ((buff[6] << 8) | (buff[7] & 0xFF));
   d4744:	f89d 2016 	ldrb.w	r2, [sp, #22]
   d4748:	f89d 3017 	ldrb.w	r3, [sp, #23]
   d474c:	ea43 2302 	orr.w	r3, r3, r2, lsl #8
   d4750:	80fb      	strh	r3, [r7, #6]
	pagmt->gyr.axes.y = ((buff[8] << 8) | (buff[9] & 0xFF));
   d4752:	f89d 2018 	ldrb.w	r2, [sp, #24]
   d4756:	f89d 3019 	ldrb.w	r3, [sp, #25]
   d475a:	ea43 2302 	orr.w	r3, r3, r2, lsl #8
   d475e:	813b      	strh	r3, [r7, #8]
	pagmt->gyr.axes.z = ((buff[10] << 8) | (buff[11] & 0xFF));
   d4760:	f89d 201a 	ldrb.w	r2, [sp, #26]
   d4764:	f89d 301b 	ldrb.w	r3, [sp, #27]
   d4768:	ea43 2302 	orr.w	r3, r3, r2, lsl #8
   d476c:	817b      	strh	r3, [r7, #10]

	pagmt->tmp.val = ((buff[12] << 8) | (buff[13] & 0xFF));
   d476e:	f89d 201c 	ldrb.w	r2, [sp, #28]
   d4772:	f89d 301d 	ldrb.w	r3, [sp, #29]
   d4776:	ea43 2302 	orr.w	r3, r3, r2, lsl #8
   d477a:	827b      	strh	r3, [r7, #18]

	pagmt->magStat1 = buff[14];
   d477c:	f89d 301e 	ldrb.w	r3, [sp, #30]
	pagmt->mag.axes.x = ((buff[16] << 8) | (buff[15] & 0xFF)); //Mag data is read little endian
   d4780:	f89d 2020 	ldrb.w	r2, [sp, #32]
	pagmt->magStat1 = buff[14];
   d4784:	757b      	strb	r3, [r7, #21]
	pagmt->mag.axes.x = ((buff[16] << 8) | (buff[15] & 0xFF)); //Mag data is read little endian
   d4786:	f89d 301f 	ldrb.w	r3, [sp, #31]
   d478a:	ea43 2302 	orr.w	r3, r3, r2, lsl #8
   d478e:	81bb      	strh	r3, [r7, #12]
	pagmt->mag.axes.y = ((buff[18] << 8) | (buff[17] & 0xFF));
   d4790:	f89d 2022 	ldrb.w	r2, [sp, #34]	; 0x22
   d4794:	f89d 3021 	ldrb.w	r3, [sp, #33]	; 0x21
   d4798:	ea43 2302 	orr.w	r3, r3, r2, lsl #8
   d479c:	81fb      	strh	r3, [r7, #14]
	pagmt->mag.axes.z = ((buff[20] << 8) | (buff[19] & 0xFF));
   d479e:	f89d 2024 	ldrb.w	r2, [sp, #36]	; 0x24
   d47a2:	f89d 3023 	ldrb.w	r3, [sp, #35]	; 0x23
   d47a6:	ea43 2302 	orr.w	r3, r3, r2, lsl #8
	retval |= ICM_20948_execute_r(pdev, (uint8_t)AGB0_REG_ACCEL_XOUT_H, buff, numbytes);
   d47aa:	4330      	orrs	r0, r6
	pagmt->mag.axes.z = ((buff[20] << 8) | (buff[19] & 0xFF));
   d47ac:	823b      	strh	r3, [r7, #16]
	pagmt->magStat2 = buff[22];
   d47ae:	f89d 3026 	ldrb.w	r3, [sp, #38]	; 0x26
   d47b2:	75bb      	strb	r3, [r7, #22]
	retval |= ICM_20948_execute_r(pdev, (uint8_t)AGB0_REG_ACCEL_XOUT_H, buff, numbytes);
   d47b4:	b2c4      	uxtb	r4, r0

	// Get settings to be able to compute scaled values
	retval |= ICM_20948_set_bank(pdev, 2);
   d47b6:	2102      	movs	r1, #2
   d47b8:	4640      	mov	r0, r8
   d47ba:	f7ff fc9c 	bl	d40f6 <ICM_20948_set_bank>
   d47be:	4320      	orrs	r0, r4
   d47c0:	b2c6      	uxtb	r6, r0
	ICM_20948_ACCEL_CONFIG_t acfg;
	retval |= ICM_20948_execute_r(pdev, (uint8_t)AGB2_REG_ACCEL_CONFIG, (uint8_t *)&acfg, 1 * sizeof(acfg));
   d47c2:	2301      	movs	r3, #1
   d47c4:	aa01      	add	r2, sp, #4
   d47c6:	2114      	movs	r1, #20
   d47c8:	4640      	mov	r0, r8
   d47ca:	f7ff fc83 	bl	d40d4 <ICM_20948_execute_r>
	pagmt->fss.a = acfg.ACCEL_FS_SEL; // Worth noting that without explicitly setting the FS range of the accelerometer it was showing the register value for +/- 2g but the reported values were actually scaled to the +/- 16g range
   d47ce:	f89d 3004 	ldrb.w	r3, [sp, #4]
   d47d2:	7d3a      	ldrb	r2, [r7, #20]
   d47d4:	f3c3 0341 	ubfx	r3, r3, #1, #2
   d47d8:	f363 0201 	bfi	r2, r3, #0, #2
	retval |= ICM_20948_execute_r(pdev, (uint8_t)AGB2_REG_ACCEL_CONFIG, (uint8_t *)&acfg, 1 * sizeof(acfg));
   d47dc:	4330      	orrs	r0, r6
   d47de:	b2c6      	uxtb	r6, r0
	pagmt->fss.a = acfg.ACCEL_FS_SEL; // Worth noting that without explicitly setting the FS range of the accelerometer it was showing the register value for +/- 2g but the reported values were actually scaled to the +/- 16g range
   d47e0:	753a      	strb	r2, [r7, #20]
									  // Wait a minute... now it seems like this problem actually comes from the digital low-pass filter. When enabled the value is 1/8 what it should be...
	retval |= ICM_20948_set_bank(pdev, 2);
   d47e2:	2102      	movs	r1, #2
   d47e4:	4640      	mov	r0, r8
   d47e6:	f7ff fc86 	bl	d40f6 <ICM_20948_set_bank>
	ICM_20948_GYRO_CONFIG_1_t gcfg1;
	retval |= ICM_20948_execute_r(pdev, (uint8_t)AGB2_REG_GYRO_CONFIG_1, (uint8_t *)&gcfg1, 1 * sizeof(gcfg1));
   d47ea:	2301      	movs	r3, #1
   d47ec:	4619      	mov	r1, r3
	retval |= ICM_20948_set_bank(pdev, 2);
   d47ee:	4306      	orrs	r6, r0
	retval |= ICM_20948_execute_r(pdev, (uint8_t)AGB2_REG_GYRO_CONFIG_1, (uint8_t *)&gcfg1, 1 * sizeof(gcfg1));
   d47f0:	aa02      	add	r2, sp, #8
   d47f2:	4640      	mov	r0, r8
   d47f4:	f7ff fc6e 	bl	d40d4 <ICM_20948_execute_r>
	pagmt->fss.g = gcfg1.GYRO_FS_SEL;
   d47f8:	f89d 3008 	ldrb.w	r3, [sp, #8]
   d47fc:	7d3a      	ldrb	r2, [r7, #20]
   d47fe:	f3c3 0341 	ubfx	r3, r3, #1, #2
   d4802:	f363 0283 	bfi	r2, r3, #2, #2
	retval |= ICM_20948_set_bank(pdev, 2);
   d4806:	b2f4      	uxtb	r4, r6
	retval |= ICM_20948_execute_r(pdev, (uint8_t)AGB2_REG_GYRO_CONFIG_1, (uint8_t *)&gcfg1, 1 * sizeof(gcfg1));
   d4808:	4304      	orrs	r4, r0
	pagmt->fss.g = gcfg1.GYRO_FS_SEL;
   d480a:	753a      	strb	r2, [r7, #20]
	ICM_20948_ACCEL_CONFIG_2_t acfg2;
	retval |= ICM_20948_execute_r(pdev, (uint8_t)AGB2_REG_ACCEL_CONFIG_2, (uint8_t *)&acfg2, 1 * sizeof(acfg2));
   d480c:	2301      	movs	r3, #1
   d480e:	aa03      	add	r2, sp, #12
   d4810:	2115      	movs	r1, #21
   d4812:	4640      	mov	r0, r8
   d4814:	f7ff fc5e 	bl	d40d4 <ICM_20948_execute_r>
	retval |= ICM_20948_execute_r(pdev, (uint8_t)AGB2_REG_GYRO_CONFIG_1, (uint8_t *)&gcfg1, 1 * sizeof(gcfg1));
   d4818:	b2e4      	uxtb	r4, r4
	retval |= ICM_20948_execute_r(pdev, (uint8_t)AGB2_REG_ACCEL_CONFIG_2, (uint8_t *)&acfg2, 1 * sizeof(acfg2));
   d481a:	4320      	orrs	r0, r4
   d481c:	b2c0      	uxtb	r0, r0

	return retval;
}
   d481e:	b00b      	add	sp, #44	; 0x2c
   d4820:	e8bd 81d0 	ldmia.w	sp!, {r4, r6, r7, r8, pc}
		return ICM_20948_Stat_ParamErr;
   d4824:	2003      	movs	r0, #3
   d4826:	e7fa      	b.n	d481e <ICM_20948_get_agmt+0x128>

000d4828 <_Z21PulseSensorAmped_dataii>:
  // Serial.println((millis() - loopTimer));
}


void PulseSensorAmped_data(int BPM, int IBI){  //This is clunky.  Could clean up later
  pulse = BPM;
   d4828:	4b01      	ldr	r3, [pc, #4]	; (d4830 <_Z21PulseSensorAmped_dataii+0x8>)
   d482a:	6018      	str	r0, [r3, #0]
}
   d482c:	4770      	bx	lr
   d482e:	bf00      	nop
   d4830:	2003e560 	.word	0x2003e560
   d4834:	00000000 	.word	0x00000000

000d4838 <_Z12calculateHRVi>:


void calculateHRV(int IBI){
   d4838:	b5f8      	push	{r3, r4, r5, r6, r7, lr}
   d483a:	ed2d 8b02 	vpush	{d8}
  float avg_ibi = 0;
  float ibi_stdev = 0;

  /*  Add the latest IBI to the buffer */
  ibi_buffer[ibiBufferCounter] = IBI;
   d483e:	4a2e      	ldr	r2, [pc, #184]	; (d48f8 <_Z12calculateHRVi+0xc0>)
   d4840:	492e      	ldr	r1, [pc, #184]	; (d48fc <_Z12calculateHRVi+0xc4>)
   d4842:	7813      	ldrb	r3, [r2, #0]
   d4844:	4d2d      	ldr	r5, [pc, #180]	; (d48fc <_Z12calculateHRVi+0xc4>)
   d4846:	f841 0023 	str.w	r0, [r1, r3, lsl #2]
  ibiBufferCounter++;
   d484a:	3301      	adds	r3, #1
   d484c:	b2db      	uxtb	r3, r3
  if (ibiBufferCounter >= IBI_BUFFER_SIZE){
   d484e:	2b04      	cmp	r3, #4
    ibiBufferCounter = 0;
   d4850:	bf88      	it	hi
   d4852:	2300      	movhi	r3, #0
  float avg_ibi = 0;
   d4854:	eddf 8a2a 	vldr	s17, [pc, #168]	; d4900 <_Z12calculateHRVi+0xc8>
    ibiBufferCounter = 0;
   d4858:	7013      	strb	r3, [r2, #0]
void calculateHRV(int IBI){
   d485a:	4629      	mov	r1, r5
  }

  /*  Compute the Standard Deviation  */
  for (int i=0;i<IBI_BUFFER_SIZE;i++){
   d485c:	2200      	movs	r2, #0
    avg_ibi += ibi_buffer[i]/IBI_BUFFER_SIZE;
   d485e:	2005      	movs	r0, #5
   d4860:	f851 3b04 	ldr.w	r3, [r1], #4
   d4864:	fbb3 f3f0 	udiv	r3, r3, r0
   d4868:	ee07 3a90 	vmov	s15, r3
  for (int i=0;i<IBI_BUFFER_SIZE;i++){
   d486c:	3201      	adds	r2, #1
    avg_ibi += ibi_buffer[i]/IBI_BUFFER_SIZE;
   d486e:	eef8 7ae7 	vcvt.f32.s32	s15, s15
  for (int i=0;i<IBI_BUFFER_SIZE;i++){
   d4872:	2a05      	cmp	r2, #5
    avg_ibi += ibi_buffer[i]/IBI_BUFFER_SIZE;
   d4874:	ee78 8aa7 	vadd.f32	s17, s17, s15
  for (int i=0;i<IBI_BUFFER_SIZE;i++){
   d4878:	d1f2      	bne.n	d4860 <_Z12calculateHRVi+0x28>
  float ibi_stdev = 0;
   d487a:	ed9f 8a21 	vldr	s16, [pc, #132]	; d4900 <_Z12calculateHRVi+0xc8>
  }
  for (int j=0;j<IBI_BUFFER_SIZE;j++){
   d487e:	2400      	movs	r4, #0
    ibi_stdev += pow((ibi_buffer[j] - avg_ibi), 2);
   d4880:	ecf5 7a01 	vldmia	r5!, {s15}
   d4884:	eef8 7a67 	vcvt.f32.u32	s15, s15
  for (int j=0;j<IBI_BUFFER_SIZE;j++){
   d4888:	3401      	adds	r4, #1
    inline _GLIBCXX_CONSTEXPR
    typename __gnu_cxx::__promote_2<_Tp, _Up>::__type
    pow(_Tp __x, _Up __y)
    {
      typedef typename __gnu_cxx::__promote_2<_Tp, _Up>::__type __type;
      return pow(__type(__x), __type(__y));
   d488a:	ee77 7ae8 	vsub.f32	s15, s15, s17
   d488e:	ee17 0a90 	vmov	r0, s15
   d4892:	f004 f8cf 	bl	d8a34 <__aeabi_f2d>
   d4896:	4602      	mov	r2, r0
   d4898:	460b      	mov	r3, r1
   d489a:	f004 f923 	bl	d8ae4 <__aeabi_dmul>
   d489e:	4606      	mov	r6, r0
    ibi_stdev += pow((ibi_buffer[j] - avg_ibi), 2);
   d48a0:	ee18 0a10 	vmov	r0, s16
   d48a4:	460f      	mov	r7, r1
   d48a6:	f004 f8c5 	bl	d8a34 <__aeabi_f2d>
   d48aa:	4602      	mov	r2, r0
   d48ac:	460b      	mov	r3, r1
   d48ae:	4630      	mov	r0, r6
   d48b0:	4639      	mov	r1, r7
   d48b2:	f003 ff61 	bl	d8778 <__adddf3>
   d48b6:	f004 fbc5 	bl	d9044 <__aeabi_d2f>
  for (int j=0;j<IBI_BUFFER_SIZE;j++){
   d48ba:	2c05      	cmp	r4, #5
    ibi_stdev += pow((ibi_buffer[j] - avg_ibi), 2);
   d48bc:	ee08 0a10 	vmov	s16, r0
  for (int j=0;j<IBI_BUFFER_SIZE;j++){
   d48c0:	d1de      	bne.n	d4880 <_Z12calculateHRVi+0x48>
   d48c2:	eef1 7a04 	vmov.f32	s15, #20	; 0x40a00000  5.0
   d48c6:	eec8 7a27 	vdiv.f32	s15, s16, s15
   d48ca:	ee17 0a90 	vmov	r0, s15
   d48ce:	f004 f8b1 	bl	d8a34 <__aeabi_f2d>
   d48d2:	ed9f 1b07 	vldr	d1, [pc, #28]	; d48f0 <_Z12calculateHRVi+0xb8>
   d48d6:	ec41 0b10 	vmov	d0, r0, r1
   d48da:	f002 fda9 	bl	d7430 <pow>
   d48de:	ec51 0b10 	vmov	r0, r1, d0
  }
  ibi_stdev /= IBI_BUFFER_SIZE;
  ibi_stdev = pow(ibi_stdev, 0.5);
   d48e2:	f004 fbaf 	bl	d9044 <__aeabi_d2f>
   d48e6:	4b07      	ldr	r3, [pc, #28]	; (d4904 <_Z12calculateHRVi+0xcc>)
   d48e8:	6018      	str	r0, [r3, #0]

  hrv = ibi_stdev;
}
   d48ea:	ecbd 8b02 	vpop	{d8}
   d48ee:	bdf8      	pop	{r3, r4, r5, r6, r7, pc}
   d48f0:	00000000 	.word	0x00000000
   d48f4:	3fe00000 	.word	0x3fe00000
   d48f8:	2003e514 	.word	0x2003e514
   d48fc:	2003e518 	.word	0x2003e518
   d4900:	00000000 	.word	0x00000000
   d4904:	2003e510 	.word	0x2003e510

000d4908 <_Z21PulseSensorAmped_lostv>:


void PulseSensorAmped_lost(void) {
  //Serial.println("Pulse Lost");
}
   d4908:	4770      	bx	lr
   d490a:	0000      	movs	r0, r0
   d490c:	0000      	movs	r0, r0
	...

000d4910 <_Z20computeSummaryReportv>:


void computeSummaryReport(){
   d4910:	e92d 4ff0 	stmdb	sp!, {r4, r5, r6, r7, r8, r9, sl, fp, lr}
  avg_tc1 = avg_tc1 / baseReadCounter;
   d4914:	4974      	ldr	r1, [pc, #464]	; (d4ae8 <_Z20computeSummaryReportv+0x1d8>)
  avg_tc2 = avg_tc2 / baseReadCounter;
   d4916:	f8df 9240 	ldr.w	r9, [pc, #576]	; d4b58 <_Z20computeSummaryReportv+0x248>
  avg_accx = avg_accx / baseReadCounter;
   d491a:	4f74      	ldr	r7, [pc, #464]	; (d4aec <_Z20computeSummaryReportv+0x1dc>)
  avg_accy = avg_accy / baseReadCounter;
   d491c:	f8df 823c 	ldr.w	r8, [pc, #572]	; d4b5c <_Z20computeSummaryReportv+0x24c>
  avg_accz = avg_accz / baseReadCounter;
   d4920:	4873      	ldr	r0, [pc, #460]	; (d4af0 <_Z20computeSummaryReportv+0x1e0>)
  avg_gyrx = avg_gyrx / baseReadCounter;
   d4922:	4c74      	ldr	r4, [pc, #464]	; (d4af4 <_Z20computeSummaryReportv+0x1e4>)
  avg_tc1 = avg_tc1 / baseReadCounter;
   d4924:	4b74      	ldr	r3, [pc, #464]	; (d4af8 <_Z20computeSummaryReportv+0x1e8>)
   d4926:	680a      	ldr	r2, [r1, #0]
   d4928:	681b      	ldr	r3, [r3, #0]
  avg_gyry = avg_gyry / baseReadCounter;
  avg_gyrz = avg_gyrz / baseReadCounter;
   d492a:	4d74      	ldr	r5, [pc, #464]	; (d4afc <_Z20computeSummaryReportv+0x1ec>)
  avg_brdtemp = avg_brdtemp / baseReadCounter;
   d492c:	4e74      	ldr	r6, [pc, #464]	; (d4b00 <_Z20computeSummaryReportv+0x1f0>)
  avg_tc1 = avg_tc1 / baseReadCounter;
   d492e:	fb92 f2f3 	sdiv	r2, r2, r3
   d4932:	600a      	str	r2, [r1, #0]
  avg_tc2 = avg_tc2 / baseReadCounter;
   d4934:	f8d9 2000 	ldr.w	r2, [r9]
   d4938:	fb92 f2f3 	sdiv	r2, r2, r3
   d493c:	f8c9 2000 	str.w	r2, [r9]
  avg_accx = avg_accx / baseReadCounter;
   d4940:	683a      	ldr	r2, [r7, #0]
   d4942:	fb92 f2f3 	sdiv	r2, r2, r3
   d4946:	603a      	str	r2, [r7, #0]
  avg_accy = avg_accy / baseReadCounter;
   d4948:	f8d8 2000 	ldr.w	r2, [r8]
   d494c:	fb92 f2f3 	sdiv	r2, r2, r3
   d4950:	f8c8 2000 	str.w	r2, [r8]
  avg_accz = avg_accz / baseReadCounter;
   d4954:	6802      	ldr	r2, [r0, #0]
   d4956:	fb92 f2f3 	sdiv	r2, r2, r3
   d495a:	6002      	str	r2, [r0, #0]
  avg_gyrx = avg_gyrx / baseReadCounter;
   d495c:	6822      	ldr	r2, [r4, #0]
   d495e:	fb92 f2f3 	sdiv	r2, r2, r3
   d4962:	6022      	str	r2, [r4, #0]
  avg_gyry = avg_gyry / baseReadCounter;
   d4964:	4c67      	ldr	r4, [pc, #412]	; (d4b04 <_Z20computeSummaryReportv+0x1f4>)
  avg_tp1 = avg_tp1 / tp1ReadCounter;
  avg_tp2 = avg_tp2 / tp2ReadCounter;
   d4966:	4868      	ldr	r0, [pc, #416]	; (d4b08 <_Z20computeSummaryReportv+0x1f8>)
  avg_gyry = avg_gyry / baseReadCounter;
   d4968:	6822      	ldr	r2, [r4, #0]
   d496a:	fb92 f2f3 	sdiv	r2, r2, r3
   d496e:	6022      	str	r2, [r4, #0]
  avg_gyrz = avg_gyrz / baseReadCounter;
   d4970:	682a      	ldr	r2, [r5, #0]
   d4972:	fb92 f2f3 	sdiv	r2, r2, r3
   d4976:	602a      	str	r2, [r5, #0]
  avg_brdtemp = avg_brdtemp / baseReadCounter;
   d4978:	6832      	ldr	r2, [r6, #0]
   d497a:	fb92 f3f3 	sdiv	r3, r2, r3
   d497e:	6033      	str	r3, [r6, #0]
  avg_tp1 = avg_tp1 / tp1ReadCounter;
   d4980:	4b62      	ldr	r3, [pc, #392]	; (d4b0c <_Z20computeSummaryReportv+0x1fc>)
   d4982:	4a63      	ldr	r2, [pc, #396]	; (d4b10 <_Z20computeSummaryReportv+0x200>)
  avg_tp2 = avg_tp2 / tp2ReadCounter;
   d4984:	f8df a1d8 	ldr.w	sl, [pc, #472]	; d4b60 <_Z20computeSummaryReportv+0x250>
  avg_fsr = avg_fsr / fsrReadCounter;
   d4988:	f8df b1d8 	ldr.w	fp, [pc, #472]	; d4b64 <_Z20computeSummaryReportv+0x254>
  avg_tp1 = avg_tp1 / tp1ReadCounter;
   d498c:	6812      	ldr	r2, [r2, #0]
   d498e:	4619      	mov	r1, r3
   d4990:	681b      	ldr	r3, [r3, #0]
   d4992:	fb93 f3f2 	sdiv	r3, r3, r2
   d4996:	600b      	str	r3, [r1, #0]
  avg_fsr = avg_fsr / fsrReadCounter;
   d4998:	495e      	ldr	r1, [pc, #376]	; (d4b14 <_Z20computeSummaryReportv+0x204>)
  avg_tp2 = avg_tp2 / tp2ReadCounter;
   d499a:	6802      	ldr	r2, [r0, #0]
   d499c:	f8da 3000 	ldr.w	r3, [sl]
   d49a0:	fb93 f3f2 	sdiv	r3, r3, r2
void computeSummaryReport(){
   d49a4:	b09f      	sub	sp, #124	; 0x7c

  float voltage = analogRead(BATT) * 0.0011224;
   d49a6:	2021      	movs	r0, #33	; 0x21
  avg_fsr = avg_fsr / fsrReadCounter;
   d49a8:	680a      	ldr	r2, [r1, #0]
  avg_tp2 = avg_tp2 / tp2ReadCounter;
   d49aa:	f8ca 3000 	str.w	r3, [sl]
  avg_fsr = avg_fsr / fsrReadCounter;
   d49ae:	f8db 3000 	ldr.w	r3, [fp]
   d49b2:	fb93 f3f2 	sdiv	r3, r3, r2
   d49b6:	f8cb 3000 	str.w	r3, [fp]
  float voltage = analogRead(BATT) * 0.0011224;
   d49ba:	f002 fb67 	bl	d708c <analogRead>
  float batt_perc = ((voltage - 3.0) / 1.125) * 100.0;

  summaryReport = String::format("{ \"ATC1\": %d, \"ATP1\": %d, \"ATC2\": %d, \"ATP2\": %d, \"AFSR\": %d \
   d49be:	4b56      	ldr	r3, [pc, #344]	; (d4b18 <_Z20computeSummaryReportv+0x208>)
   d49c0:	681b      	ldr	r3, [r3, #0]
   d49c2:	9318      	str	r3, [sp, #96]	; 0x60
  float voltage = analogRead(BATT) * 0.0011224;
   d49c4:	f004 f824 	bl	d8a10 <__aeabi_i2d>
   d49c8:	a345      	add	r3, pc, #276	; (adr r3, d4ae0 <_Z20computeSummaryReportv+0x1d0>)
   d49ca:	e9d3 2300 	ldrd	r2, r3, [r3]
   d49ce:	f004 f889 	bl	d8ae4 <__aeabi_dmul>
   d49d2:	f004 fb37 	bl	d9044 <__aeabi_d2f>
  float batt_perc = ((voltage - 3.0) / 1.125) * 100.0;
   d49d6:	f004 f82d 	bl	d8a34 <__aeabi_f2d>
   d49da:	4b50      	ldr	r3, [pc, #320]	; (d4b1c <_Z20computeSummaryReportv+0x20c>)
   d49dc:	2200      	movs	r2, #0
   d49de:	f003 fec9 	bl	d8774 <__aeabi_dsub>
   d49e2:	4b4f      	ldr	r3, [pc, #316]	; (d4b20 <_Z20computeSummaryReportv+0x210>)
   d49e4:	2200      	movs	r2, #0
   d49e6:	f004 f9a7 	bl	d8d38 <__aeabi_ddiv>
   d49ea:	2200      	movs	r2, #0
   d49ec:	4b4d      	ldr	r3, [pc, #308]	; (d4b24 <_Z20computeSummaryReportv+0x214>)
   d49ee:	f004 f879 	bl	d8ae4 <__aeabi_dmul>
   d49f2:	f004 fb27 	bl	d9044 <__aeabi_d2f>
  summaryReport = String::format("{ \"ATC1\": %d, \"ATP1\": %d, \"ATC2\": %d, \"ATP2\": %d, \"AFSR\": %d \
   d49f6:	f004 f81d 	bl	d8a34 <__aeabi_f2d>
   d49fa:	e9cd 0116 	strd	r0, r1, [sp, #88]	; 0x58
   d49fe:	4b4a      	ldr	r3, [pc, #296]	; (d4b28 <_Z20computeSummaryReportv+0x218>)
   d4a00:	6818      	ldr	r0, [r3, #0]
   d4a02:	f004 f817 	bl	d8a34 <__aeabi_f2d>
   d4a06:	e9cd 0114 	strd	r0, r1, [sp, #80]	; 0x50
   d4a0a:	4b48      	ldr	r3, [pc, #288]	; (d4b2c <_Z20computeSummaryReportv+0x21c>)
   d4a0c:	4848      	ldr	r0, [pc, #288]	; (d4b30 <_Z20computeSummaryReportv+0x220>)
   d4a0e:	681b      	ldr	r3, [r3, #0]
   d4a10:	9312      	str	r3, [sp, #72]	; 0x48
   d4a12:	4b48      	ldr	r3, [pc, #288]	; (d4b34 <_Z20computeSummaryReportv+0x224>)
   d4a14:	4a48      	ldr	r2, [pc, #288]	; (d4b38 <_Z20computeSummaryReportv+0x228>)
   d4a16:	681b      	ldr	r3, [r3, #0]
   d4a18:	9311      	str	r3, [sp, #68]	; 0x44
   d4a1a:	4b48      	ldr	r3, [pc, #288]	; (d4b3c <_Z20computeSummaryReportv+0x22c>)
   d4a1c:	4948      	ldr	r1, [pc, #288]	; (d4b40 <_Z20computeSummaryReportv+0x230>)
   d4a1e:	681b      	ldr	r3, [r3, #0]
   d4a20:	9310      	str	r3, [sp, #64]	; 0x40
   d4a22:	4b48      	ldr	r3, [pc, #288]	; (d4b44 <_Z20computeSummaryReportv+0x234>)
   d4a24:	681b      	ldr	r3, [r3, #0]
   d4a26:	930f      	str	r3, [sp, #60]	; 0x3c
   d4a28:	6803      	ldr	r3, [r0, #0]
   d4a2a:	930e      	str	r3, [sp, #56]	; 0x38
   d4a2c:	4b46      	ldr	r3, [pc, #280]	; (d4b48 <_Z20computeSummaryReportv+0x238>)
   d4a2e:	4847      	ldr	r0, [pc, #284]	; (d4b4c <_Z20computeSummaryReportv+0x23c>)
   d4a30:	681b      	ldr	r3, [r3, #0]
   d4a32:	930d      	str	r3, [sp, #52]	; 0x34
   d4a34:	6813      	ldr	r3, [r2, #0]
   d4a36:	930c      	str	r3, [sp, #48]	; 0x30
   d4a38:	680b      	ldr	r3, [r1, #0]
   d4a3a:	930b      	str	r3, [sp, #44]	; 0x2c
   d4a3c:	6803      	ldr	r3, [r0, #0]
   d4a3e:	930a      	str	r3, [sp, #40]	; 0x28
   d4a40:	6833      	ldr	r3, [r6, #0]
   d4a42:	9309      	str	r3, [sp, #36]	; 0x24
   d4a44:	682b      	ldr	r3, [r5, #0]
   d4a46:	9308      	str	r3, [sp, #32]
   d4a48:	6823      	ldr	r3, [r4, #0]
   d4a4a:	4c2a      	ldr	r4, [pc, #168]	; (d4af4 <_Z20computeSummaryReportv+0x1e4>)
   d4a4c:	9307      	str	r3, [sp, #28]
   d4a4e:	6823      	ldr	r3, [r4, #0]
   d4a50:	4827      	ldr	r0, [pc, #156]	; (d4af0 <_Z20computeSummaryReportv+0x1e0>)
   d4a52:	9306      	str	r3, [sp, #24]
   d4a54:	6803      	ldr	r3, [r0, #0]
   d4a56:	9305      	str	r3, [sp, #20]
   d4a58:	f8d8 3000 	ldr.w	r3, [r8]
   d4a5c:	9304      	str	r3, [sp, #16]
   d4a5e:	683b      	ldr	r3, [r7, #0]
   d4a60:	9303      	str	r3, [sp, #12]
   d4a62:	f8db 3000 	ldr.w	r3, [fp]
   d4a66:	9302      	str	r3, [sp, #8]
   d4a68:	f8da 3000 	ldr.w	r3, [sl]
   d4a6c:	9301      	str	r3, [sp, #4]
   d4a6e:	4a27      	ldr	r2, [pc, #156]	; (d4b0c <_Z20computeSummaryReportv+0x1fc>)
   d4a70:	f8d9 3000 	ldr.w	r3, [r9]
   d4a74:	491c      	ldr	r1, [pc, #112]	; (d4ae8 <_Z20computeSummaryReportv+0x1d8>)
   d4a76:	9300      	str	r3, [sp, #0]
   d4a78:	f10d 0c68 	add.w	ip, sp, #104	; 0x68
   d4a7c:	6813      	ldr	r3, [r2, #0]
   d4a7e:	680a      	ldr	r2, [r1, #0]
   d4a80:	4933      	ldr	r1, [pc, #204]	; (d4b50 <_Z20computeSummaryReportv+0x240>)
                                  , avg_tc1, avg_tp1, avg_tc2, avg_tp2, avg_fsr, avg_accx, avg_accy, avg_accz, \
                                  avg_gyrx, avg_gyry, avg_gyrz, avg_brdtemp, max_tp1, max_tp2, \
                                  max_accx, max_accy, max_accz, max_gyrx, max_gyry, max_gyrz, pulse, \
                                  hrv, batt_perc, max_fsr);

  max_tp1 = 0;
   d4a82:	4c32      	ldr	r4, [pc, #200]	; (d4b4c <_Z20computeSummaryReportv+0x23c>)
  max_tp2 = 0;
   d4a84:	4f2e      	ldr	r7, [pc, #184]	; (d4b40 <_Z20computeSummaryReportv+0x230>)
  max_accx = 0;
   d4a86:	4e2c      	ldr	r6, [pc, #176]	; (d4b38 <_Z20computeSummaryReportv+0x228>)
  max_accy = 0;
   d4a88:	4d2f      	ldr	r5, [pc, #188]	; (d4b48 <_Z20computeSummaryReportv+0x238>)
  summaryReport = String::format("{ \"ATC1\": %d, \"ATP1\": %d, \"ATC2\": %d, \"ATP2\": %d, \"AFSR\": %d \
   d4a8a:	4660      	mov	r0, ip
   d4a8c:	f002 f80e 	bl	d6aac <_ZN6String6formatEPKcz>
                                  hrv, batt_perc, max_fsr);
   d4a90:	f10d 0c68 	add.w	ip, sp, #104	; 0x68
   d4a94:	4661      	mov	r1, ip
   d4a96:	482f      	ldr	r0, [pc, #188]	; (d4b54 <_Z20computeSummaryReportv+0x244>)
   d4a98:	f001 ff8c 	bl	d69b4 <_ZN6StringaSEOS_>
   d4a9c:	f10d 0c68 	add.w	ip, sp, #104	; 0x68
   d4aa0:	4660      	mov	r0, ip
   d4aa2:	f001 fef1 	bl	d6888 <_ZN6StringD1Ev>
  max_tp1 = 0;
   d4aa6:	2300      	movs	r3, #0
   d4aa8:	6023      	str	r3, [r4, #0]
  max_gyrx = 0;
  max_gyry = 0;
  max_gyrz = 0;
  max_fsr = 0;

  baseReadCounter = 0;
   d4aaa:	4a13      	ldr	r2, [pc, #76]	; (d4af8 <_Z20computeSummaryReportv+0x1e8>)
  max_accz = 0;
   d4aac:	4c20      	ldr	r4, [pc, #128]	; (d4b30 <_Z20computeSummaryReportv+0x220>)
  max_tp2 = 0;
   d4aae:	603b      	str	r3, [r7, #0]
  max_accx = 0;
   d4ab0:	6033      	str	r3, [r6, #0]
  max_accy = 0;
   d4ab2:	602b      	str	r3, [r5, #0]
  max_accz = 0;
   d4ab4:	6023      	str	r3, [r4, #0]
  baseReadCounter = 0;
   d4ab6:	6013      	str	r3, [r2, #0]
  max_gyrx = 0;
   d4ab8:	4f22      	ldr	r7, [pc, #136]	; (d4b44 <_Z20computeSummaryReportv+0x234>)
  max_gyry = 0;
   d4aba:	4e20      	ldr	r6, [pc, #128]	; (d4b3c <_Z20computeSummaryReportv+0x22c>)
  max_gyrz = 0;
   d4abc:	4d1d      	ldr	r5, [pc, #116]	; (d4b34 <_Z20computeSummaryReportv+0x224>)
  max_fsr = 0;
   d4abe:	4c16      	ldr	r4, [pc, #88]	; (d4b18 <_Z20computeSummaryReportv+0x208>)
  tp1ReadCounter = 0;
   d4ac0:	4a13      	ldr	r2, [pc, #76]	; (d4b10 <_Z20computeSummaryReportv+0x200>)
  tp2ReadCounter = 0;
   d4ac2:	4811      	ldr	r0, [pc, #68]	; (d4b08 <_Z20computeSummaryReportv+0x1f8>)
  fsrReadCounter = 0;
   d4ac4:	4913      	ldr	r1, [pc, #76]	; (d4b14 <_Z20computeSummaryReportv+0x204>)
  max_gyrx = 0;
   d4ac6:	603b      	str	r3, [r7, #0]
  max_gyry = 0;
   d4ac8:	6033      	str	r3, [r6, #0]
  max_gyrz = 0;
   d4aca:	602b      	str	r3, [r5, #0]
  max_fsr = 0;
   d4acc:	6023      	str	r3, [r4, #0]
  tp1ReadCounter = 0;
   d4ace:	6013      	str	r3, [r2, #0]
  tp2ReadCounter = 0;
   d4ad0:	6003      	str	r3, [r0, #0]
  fsrReadCounter = 0;
   d4ad2:	600b      	str	r3, [r1, #0]
}
   d4ad4:	b01f      	add	sp, #124	; 0x7c
   d4ad6:	e8bd 8ff0 	ldmia.w	sp!, {r4, r5, r6, r7, r8, r9, sl, fp, pc}
   d4ada:	bf00      	nop
   d4adc:	f3af 8000 	nop.w
   d4ae0:	d2c10294 	.word	0xd2c10294
   d4ae4:	3f5263af 	.word	0x3f5263af
   d4ae8:	2003e4bc 	.word	0x2003e4bc
   d4aec:	2003e49c 	.word	0x2003e49c
   d4af0:	2003e4a4 	.word	0x2003e4a4
   d4af4:	2003e4b0 	.word	0x2003e4b0
   d4af8:	2003e4cc 	.word	0x2003e4cc
   d4afc:	2003e4b8 	.word	0x2003e4b8
   d4b00:	2003e4a8 	.word	0x2003e4a8
   d4b04:	2003e4b4 	.word	0x2003e4b4
   d4b08:	2003e58c 	.word	0x2003e58c
   d4b0c:	2003e4c4 	.word	0x2003e4c4
   d4b10:	2003e584 	.word	0x2003e584
   d4b14:	2003e500 	.word	0x2003e500
   d4b18:	2003e53c 	.word	0x2003e53c
   d4b1c:	40080000 	.word	0x40080000
   d4b20:	3ff20000 	.word	0x3ff20000
   d4b24:	40590000 	.word	0x40590000
   d4b28:	2003e510 	.word	0x2003e510
   d4b2c:	2003e560 	.word	0x2003e560
   d4b30:	2003e534 	.word	0x2003e534
   d4b34:	2003e548 	.word	0x2003e548
   d4b38:	2003e52c 	.word	0x2003e52c
   d4b3c:	2003e544 	.word	0x2003e544
   d4b40:	2003e558 	.word	0x2003e558
   d4b44:	2003e540 	.word	0x2003e540
   d4b48:	2003e530 	.word	0x2003e530
   d4b4c:	2003e554 	.word	0x2003e554
   d4b50:	000d924c 	.word	0x000d924c
   d4b54:	2003e568 	.word	0x2003e568
   d4b58:	2003e4c0 	.word	0x2003e4c0
   d4b5c:	2003e4a0 	.word	0x2003e4a0
   d4b60:	2003e4c8 	.word	0x2003e4c8
   d4b64:	2003e4ac 	.word	0x2003e4ac

000d4b68 <_Z17updateSummaryValsPi>:


void updateSummaryVals(int summaryArray[9]){
  avg_tc1 = avg_tc1 + summaryArray[0];
   d4b68:	4a2d      	ldr	r2, [pc, #180]	; (d4c20 <_Z17updateSummaryValsPi+0xb8>)
   d4b6a:	6803      	ldr	r3, [r0, #0]
   d4b6c:	6811      	ldr	r1, [r2, #0]
   d4b6e:	440b      	add	r3, r1
   d4b70:	6013      	str	r3, [r2, #0]
  if(summaryArray[0] > max_tc1){
   d4b72:	4b2c      	ldr	r3, [pc, #176]	; (d4c24 <_Z17updateSummaryValsPi+0xbc>)
   d4b74:	6802      	ldr	r2, [r0, #0]
   d4b76:	6819      	ldr	r1, [r3, #0]
   d4b78:	428a      	cmp	r2, r1
    max_tc1 = summaryArray[0];
  }
  avg_tc2 = avg_tc2 + summaryArray[1];
   d4b7a:	492b      	ldr	r1, [pc, #172]	; (d4c28 <_Z17updateSummaryValsPi+0xc0>)
    max_tc1 = summaryArray[0];
   d4b7c:	bfc8      	it	gt
   d4b7e:	601a      	strgt	r2, [r3, #0]
  avg_tc2 = avg_tc2 + summaryArray[1];
   d4b80:	680a      	ldr	r2, [r1, #0]
   d4b82:	6843      	ldr	r3, [r0, #4]
   d4b84:	441a      	add	r2, r3
   d4b86:	600a      	str	r2, [r1, #0]
  if(summaryArray[1] > max_tc2){
   d4b88:	4a28      	ldr	r2, [pc, #160]	; (d4c2c <_Z17updateSummaryValsPi+0xc4>)
   d4b8a:	6811      	ldr	r1, [r2, #0]
   d4b8c:	428b      	cmp	r3, r1
    max_tc2 = summaryArray[1];
  }
  avg_accx = avg_accx + summaryArray[2];
   d4b8e:	4928      	ldr	r1, [pc, #160]	; (d4c30 <_Z17updateSummaryValsPi+0xc8>)
    max_tc2 = summaryArray[1];
   d4b90:	bfc8      	it	gt
   d4b92:	6013      	strgt	r3, [r2, #0]
  avg_accx = avg_accx + summaryArray[2];
   d4b94:	680a      	ldr	r2, [r1, #0]
   d4b96:	6883      	ldr	r3, [r0, #8]
   d4b98:	441a      	add	r2, r3
   d4b9a:	600a      	str	r2, [r1, #0]
  if(summaryArray[2] > max_accx){
   d4b9c:	4a25      	ldr	r2, [pc, #148]	; (d4c34 <_Z17updateSummaryValsPi+0xcc>)
   d4b9e:	6811      	ldr	r1, [r2, #0]
   d4ba0:	428b      	cmp	r3, r1
    max_accx = summaryArray[2];
  }
  avg_accy = avg_accy + summaryArray[3];
   d4ba2:	4925      	ldr	r1, [pc, #148]	; (d4c38 <_Z17updateSummaryValsPi+0xd0>)
    max_accx = summaryArray[2];
   d4ba4:	bfc8      	it	gt
   d4ba6:	6013      	strgt	r3, [r2, #0]
  avg_accy = avg_accy + summaryArray[3];
   d4ba8:	680a      	ldr	r2, [r1, #0]
   d4baa:	68c3      	ldr	r3, [r0, #12]
   d4bac:	441a      	add	r2, r3
   d4bae:	600a      	str	r2, [r1, #0]
  if(summaryArray[3] > max_accy){
   d4bb0:	4a22      	ldr	r2, [pc, #136]	; (d4c3c <_Z17updateSummaryValsPi+0xd4>)
   d4bb2:	6811      	ldr	r1, [r2, #0]
   d4bb4:	428b      	cmp	r3, r1
    max_accy = summaryArray[3];
  }
  avg_accz = avg_accz + summaryArray[4];
   d4bb6:	4922      	ldr	r1, [pc, #136]	; (d4c40 <_Z17updateSummaryValsPi+0xd8>)
    max_accy = summaryArray[3];
   d4bb8:	bfc8      	it	gt
   d4bba:	6013      	strgt	r3, [r2, #0]
  avg_accz = avg_accz + summaryArray[4];
   d4bbc:	6903      	ldr	r3, [r0, #16]
   d4bbe:	680a      	ldr	r2, [r1, #0]
   d4bc0:	441a      	add	r2, r3
   d4bc2:	600a      	str	r2, [r1, #0]
  if(summaryArray[4] > max_accz){
   d4bc4:	4a1f      	ldr	r2, [pc, #124]	; (d4c44 <_Z17updateSummaryValsPi+0xdc>)
   d4bc6:	6811      	ldr	r1, [r2, #0]
   d4bc8:	428b      	cmp	r3, r1
    max_accz = summaryArray[4];
  }
  avg_gyrx = avg_gyrx + summaryArray[5];
   d4bca:	491f      	ldr	r1, [pc, #124]	; (d4c48 <_Z17updateSummaryValsPi+0xe0>)
    max_accz = summaryArray[4];
   d4bcc:	bfc8      	it	gt
   d4bce:	6013      	strgt	r3, [r2, #0]
  avg_gyrx = avg_gyrx + summaryArray[5];
   d4bd0:	6943      	ldr	r3, [r0, #20]
   d4bd2:	680a      	ldr	r2, [r1, #0]
   d4bd4:	441a      	add	r2, r3
   d4bd6:	600a      	str	r2, [r1, #0]
  if(summaryArray[5] > max_gyrx){
   d4bd8:	4a1c      	ldr	r2, [pc, #112]	; (d4c4c <_Z17updateSummaryValsPi+0xe4>)
   d4bda:	6811      	ldr	r1, [r2, #0]
   d4bdc:	428b      	cmp	r3, r1
    max_gyrx = summaryArray[5];
  }
  avg_gyry = avg_gyry + summaryArray[6];
   d4bde:	491c      	ldr	r1, [pc, #112]	; (d4c50 <_Z17updateSummaryValsPi+0xe8>)
    max_gyrx = summaryArray[5];
   d4be0:	bfc8      	it	gt
   d4be2:	6013      	strgt	r3, [r2, #0]
  avg_gyry = avg_gyry + summaryArray[6];
   d4be4:	6983      	ldr	r3, [r0, #24]
   d4be6:	680a      	ldr	r2, [r1, #0]
   d4be8:	441a      	add	r2, r3
   d4bea:	600a      	str	r2, [r1, #0]
  if(summaryArray[6] > max_gyry){
   d4bec:	4a19      	ldr	r2, [pc, #100]	; (d4c54 <_Z17updateSummaryValsPi+0xec>)
   d4bee:	6811      	ldr	r1, [r2, #0]
   d4bf0:	428b      	cmp	r3, r1
    max_gyry = summaryArray[6];
  }
  avg_gyrz = avg_gyrz + summaryArray[7];
   d4bf2:	4919      	ldr	r1, [pc, #100]	; (d4c58 <_Z17updateSummaryValsPi+0xf0>)
    max_gyry = summaryArray[6];
   d4bf4:	bfc8      	it	gt
   d4bf6:	6013      	strgt	r3, [r2, #0]
  avg_gyrz = avg_gyrz + summaryArray[7];
   d4bf8:	69c3      	ldr	r3, [r0, #28]
   d4bfa:	680a      	ldr	r2, [r1, #0]
   d4bfc:	441a      	add	r2, r3
   d4bfe:	600a      	str	r2, [r1, #0]
  if(summaryArray[7] > max_gyrz){
   d4c00:	4a16      	ldr	r2, [pc, #88]	; (d4c5c <_Z17updateSummaryValsPi+0xf4>)
   d4c02:	6811      	ldr	r1, [r2, #0]
   d4c04:	428b      	cmp	r3, r1
    max_gyrz = summaryArray[7];
  }
  avg_brdtemp = avg_brdtemp + summaryArray[8];
   d4c06:	4916      	ldr	r1, [pc, #88]	; (d4c60 <_Z17updateSummaryValsPi+0xf8>)
    max_gyrz = summaryArray[7];
   d4c08:	bfc8      	it	gt
   d4c0a:	6013      	strgt	r3, [r2, #0]
  avg_brdtemp = avg_brdtemp + summaryArray[8];
   d4c0c:	6a03      	ldr	r3, [r0, #32]
   d4c0e:	680a      	ldr	r2, [r1, #0]
   d4c10:	441a      	add	r2, r3
   d4c12:	600a      	str	r2, [r1, #0]
  if(summaryArray[8] > max_brdtemp){
   d4c14:	4a13      	ldr	r2, [pc, #76]	; (d4c64 <_Z17updateSummaryValsPi+0xfc>)
   d4c16:	6811      	ldr	r1, [r2, #0]
   d4c18:	428b      	cmp	r3, r1
    max_brdtemp = summaryArray[8];
   d4c1a:	bfc8      	it	gt
   d4c1c:	6013      	strgt	r3, [r2, #0]
  }
}
   d4c1e:	4770      	bx	lr
   d4c20:	2003e4bc 	.word	0x2003e4bc
   d4c24:	2003e54c 	.word	0x2003e54c
   d4c28:	2003e4c0 	.word	0x2003e4c0
   d4c2c:	2003e550 	.word	0x2003e550
   d4c30:	2003e49c 	.word	0x2003e49c
   d4c34:	2003e52c 	.word	0x2003e52c
   d4c38:	2003e4a0 	.word	0x2003e4a0
   d4c3c:	2003e530 	.word	0x2003e530
   d4c40:	2003e4a4 	.word	0x2003e4a4
   d4c44:	2003e534 	.word	0x2003e534
   d4c48:	2003e4b0 	.word	0x2003e4b0
   d4c4c:	2003e540 	.word	0x2003e540
   d4c50:	2003e4b4 	.word	0x2003e4b4
   d4c54:	2003e544 	.word	0x2003e544
   d4c58:	2003e4b8 	.word	0x2003e4b8
   d4c5c:	2003e548 	.word	0x2003e548
   d4c60:	2003e4a8 	.word	0x2003e4a8
   d4c64:	2003e538 	.word	0x2003e538

000d4c68 <_ZNSt14__shared_countILN9__gnu_cxx12_Lock_policyE0EED1Ev>:
      explicit __shared_count(const __weak_count<_Lp>& __r);

      // Does not throw if __r._M_get_use_count() == 0, caller must check.
      explicit __shared_count(const __weak_count<_Lp>& __r, std::nothrow_t);

      ~__shared_count() noexcept
   d4c68:	b538      	push	{r3, r4, r5, lr}
      {
	if (_M_pi != nullptr)
   d4c6a:	6804      	ldr	r4, [r0, #0]
      ~__shared_count() noexcept
   d4c6c:	4605      	mov	r5, r0
	if (_M_pi != nullptr)
   d4c6e:	b17c      	cbz	r4, d4c90 <_ZNSt14__shared_countILN9__gnu_cxx12_Lock_policyE0EED1Ev+0x28>
      if (--_M_use_count == 0)
   d4c70:	6863      	ldr	r3, [r4, #4]
   d4c72:	3b01      	subs	r3, #1
   d4c74:	6063      	str	r3, [r4, #4]
   d4c76:	b95b      	cbnz	r3, d4c90 <_ZNSt14__shared_countILN9__gnu_cxx12_Lock_policyE0EED1Ev+0x28>
          _M_dispose();
   d4c78:	6823      	ldr	r3, [r4, #0]
   d4c7a:	4620      	mov	r0, r4
   d4c7c:	689b      	ldr	r3, [r3, #8]
   d4c7e:	4798      	blx	r3
          if (--_M_weak_count == 0)
   d4c80:	68a3      	ldr	r3, [r4, #8]
   d4c82:	3b01      	subs	r3, #1
   d4c84:	60a3      	str	r3, [r4, #8]
   d4c86:	b91b      	cbnz	r3, d4c90 <_ZNSt14__shared_countILN9__gnu_cxx12_Lock_policyE0EED1Ev+0x28>
            _M_destroy();
   d4c88:	6823      	ldr	r3, [r4, #0]
   d4c8a:	4620      	mov	r0, r4
   d4c8c:	68db      	ldr	r3, [r3, #12]
   d4c8e:	4798      	blx	r3
	  _M_pi->_M_release();
      }
   d4c90:	4628      	mov	r0, r5
   d4c92:	bd38      	pop	{r3, r4, r5, pc}

000d4c94 <loop>:
void loop() {
   d4c94:	e92d 43f0 	stmdb	sp!, {r4, r5, r6, r7, r8, r9, lr}
  if((edaTurnCounter == 1) && ((millis()-edaReadTimer) >= 20)){
   d4c98:	4c8d      	ldr	r4, [pc, #564]	; (d4ed0 <loop+0x23c>)
   d4c9a:	7825      	ldrb	r5, [r4, #0]
   d4c9c:	2d01      	cmp	r5, #1
void loop() {
   d4c9e:	b091      	sub	sp, #68	; 0x44
  if((edaTurnCounter == 1) && ((millis()-edaReadTimer) >= 20)){
   d4ca0:	d129      	bne.n	d4cf6 <loop+0x62>
   d4ca2:	4e8c      	ldr	r6, [pc, #560]	; (d4ed4 <loop+0x240>)

#ifdef __cplusplus
extern "C" {
#endif

inline system_tick_t millis(void) { return HAL_Timer_Get_Milli_Seconds(); }
   d4ca4:	f000 fe5e 	bl	d5964 <HAL_Timer_Get_Milli_Seconds>
   d4ca8:	6833      	ldr	r3, [r6, #0]
   d4caa:	1ac0      	subs	r0, r0, r3
   d4cac:	2813      	cmp	r0, #19
   d4cae:	d922      	bls.n	d4cf6 <loop+0x62>
   d4cb0:	f000 fe58 	bl	d5964 <HAL_Timer_Get_Milli_Seconds>
    edaReadTimer = millis();
   d4cb4:	6030      	str	r0, [r6, #0]
    eda1 = ads_eda.readADC_Differential_0_1();
   d4cb6:	4888      	ldr	r0, [pc, #544]	; (d4ed8 <loop+0x244>)
   d4cb8:	4e88      	ldr	r6, [pc, #544]	; (d4edc <loop+0x248>)
   d4cba:	f000 fabd 	bl	d5238 <_ZN16Adafruit_ADS101524readADC_Differential_0_1Ev>
};

class StringSumHelper : public String
{
public:
	StringSumHelper(const String &s) : String(s) {}
   d4cbe:	4988      	ldr	r1, [pc, #544]	; (d4ee0 <loop+0x24c>)
   d4cc0:	6030      	str	r0, [r6, #0]
   d4cc2:	a807      	add	r0, sp, #28
   d4cc4:	f001 fe6b 	bl	d699e <_ZN6StringC1ERKS_>
    eda1Report = eda1Report + String(eda1) + ' '; //EDA1
   d4cc8:	220a      	movs	r2, #10
   d4cca:	6831      	ldr	r1, [r6, #0]
   d4ccc:	a803      	add	r0, sp, #12
   d4cce:	f001 fe8b 	bl	d69e8 <_ZN6StringC1Eih>
   d4cd2:	a903      	add	r1, sp, #12
   d4cd4:	a807      	add	r0, sp, #28
   d4cd6:	f001 febe 	bl	d6a56 <_ZplRK15StringSumHelperRK6String>
   d4cda:	2120      	movs	r1, #32
   d4cdc:	f001 fedc 	bl	d6a98 <_ZplRK15StringSumHelperc>
   d4ce0:	4601      	mov	r1, r0
   d4ce2:	487f      	ldr	r0, [pc, #508]	; (d4ee0 <loop+0x24c>)
   d4ce4:	f001 fe4c 	bl	d6980 <_ZN6StringaSERKS_>
   d4ce8:	a803      	add	r0, sp, #12
   d4cea:	f001 fdcd 	bl	d6888 <_ZN6StringD1Ev>
class StringSumHelper : public String
   d4cee:	a807      	add	r0, sp, #28
   d4cf0:	f001 fdca 	bl	d6888 <_ZN6StringD1Ev>
    edaTurnCounter = 1;
   d4cf4:	7025      	strb	r5, [r4, #0]
  tc1 = analogRead(TC1);
   d4cf6:	2012      	movs	r0, #18
   d4cf8:	f002 f9c8 	bl	d708c <analogRead>
   d4cfc:	f8df 926c 	ldr.w	r9, [pc, #620]	; d4f6c <loop+0x2d8>
  ICM.getAGMT();  // Update IMU Values
   d4d00:	4c78      	ldr	r4, [pc, #480]	; (d4ee4 <loop+0x250>)
  tc1 = analogRead(TC1);
   d4d02:	f8c9 0000 	str.w	r0, [r9]
  tc2 = analogRead(TC2);
   d4d06:	2011      	movs	r0, #17
   d4d08:	f002 f9c0 	bl	d708c <analogRead>
   d4d0c:	f8df 8260 	ldr.w	r8, [pc, #608]	; d4f70 <loop+0x2dc>
  ICM.getAGMT();  // Update IMU Values
   d4d10:	1d21      	adds	r1, r4, #4
  tc2 = analogRead(TC2);
   d4d12:	f8c8 0000 	str.w	r0, [r8]
  ICM.getAGMT();  // Update IMU Values
   d4d16:	a807      	add	r0, sp, #28
   d4d18:	f000 fc7a 	bl	d5610 <_ZN9ICM_209487getAGMTEv>
  accx = ICM.agmt.acc.axes.x;
   d4d1c:	4b72      	ldr	r3, [pc, #456]	; (d4ee8 <loop+0x254>)
   d4d1e:	f9b4 7008 	ldrsh.w	r7, [r4, #8]
   d4d22:	601f      	str	r7, [r3, #0]
  accy = ICM.agmt.acc.axes.y;
   d4d24:	4b71      	ldr	r3, [pc, #452]	; (d4eec <loop+0x258>)
   d4d26:	f9b4 600a 	ldrsh.w	r6, [r4, #10]
   d4d2a:	601e      	str	r6, [r3, #0]
  accz = ICM.agmt.acc.axes.z;
   d4d2c:	4b70      	ldr	r3, [pc, #448]	; (d4ef0 <loop+0x25c>)
   d4d2e:	f9b4 500c 	ldrsh.w	r5, [r4, #12]
   d4d32:	601d      	str	r5, [r3, #0]
  gyrx = ICM.agmt.gyr.axes.x;
   d4d34:	4b6f      	ldr	r3, [pc, #444]	; (d4ef4 <loop+0x260>)
   d4d36:	f9b4 000e 	ldrsh.w	r0, [r4, #14]
   d4d3a:	6018      	str	r0, [r3, #0]
  gyry = ICM.agmt.gyr.axes.y;
   d4d3c:	4b6e      	ldr	r3, [pc, #440]	; (d4ef8 <loop+0x264>)
   d4d3e:	f9b4 1010 	ldrsh.w	r1, [r4, #16]
   d4d42:	6019      	str	r1, [r3, #0]
  gyrz = ICM.agmt.gyr.axes.z;
   d4d44:	4b6d      	ldr	r3, [pc, #436]	; (d4efc <loop+0x268>)
   d4d46:	f9b4 2012 	ldrsh.w	r2, [r4, #18]
   d4d4a:	601a      	str	r2, [r3, #0]
  brdtemp = ICM.agmt.tmp.val;
   d4d4c:	f9b4 301a 	ldrsh.w	r3, [r4, #26]
   d4d50:	4c6b      	ldr	r4, [pc, #428]	; (d4f00 <loop+0x26c>)
  int summaryArray[9] = {tc1, tc2, accx, accy, accz, gyrx, gyry, gyrz, brdtemp};
   d4d52:	e9cd 230e 	strd	r2, r3, [sp, #56]	; 0x38
  baseReadCounter++;
   d4d56:	4a6b      	ldr	r2, [pc, #428]	; (d4f04 <loop+0x270>)
  brdtemp = ICM.agmt.tmp.val;
   d4d58:	6023      	str	r3, [r4, #0]
  baseReadCounter++;
   d4d5a:	6813      	ldr	r3, [r2, #0]
  int summaryArray[9] = {tc1, tc2, accx, accy, accz, gyrx, gyry, gyrz, brdtemp};
   d4d5c:	f8d9 4000 	ldr.w	r4, [r9]
   d4d60:	9407      	str	r4, [sp, #28]
   d4d62:	f8d8 4000 	ldr.w	r4, [r8]
  baseReadCounter++;
   d4d66:	3301      	adds	r3, #1
  int summaryArray[9] = {tc1, tc2, accx, accy, accz, gyrx, gyry, gyrz, brdtemp};
   d4d68:	e9cd 010c 	strd	r0, r1, [sp, #48]	; 0x30
  updateSummaryVals(summaryArray);
   d4d6c:	a807      	add	r0, sp, #28
  baseReadCounter++;
   d4d6e:	6013      	str	r3, [r2, #0]
  int summaryArray[9] = {tc1, tc2, accx, accy, accz, gyrx, gyry, gyrz, brdtemp};
   d4d70:	e9cd 4708 	strd	r4, r7, [sp, #32]
   d4d74:	e9cd 650a 	strd	r6, r5, [sp, #40]	; 0x28
  if((micros() - otherReadTimer) > 1500){  //This is probably superfluous given our current loop time of ~5-10 ms
   d4d78:	4c63      	ldr	r4, [pc, #396]	; (d4f08 <loop+0x274>)
  updateSummaryVals(summaryArray);
   d4d7a:	f7ff fef5 	bl	d4b68 <_Z17updateSummaryValsPi>
  PulseSensorAmped.process();
   d4d7e:	4863      	ldr	r0, [pc, #396]	; (d4f0c <loop+0x278>)
   d4d80:	f000 fbd6 	bl	d5530 <_ZN21PulseSensorAmpedClass7processEv>
inline unsigned long micros(void) { return HAL_Timer_Get_Micro_Seconds(); }
   d4d84:	f000 fde6 	bl	d5954 <HAL_Timer_Get_Micro_Seconds>
  if((micros() - otherReadTimer) > 1500){  //This is probably superfluous given our current loop time of ~5-10 ms
   d4d88:	6823      	ldr	r3, [r4, #0]
   d4d8a:	1ac0      	subs	r0, r0, r3
   d4d8c:	f240 53dc 	movw	r3, #1500	; 0x5dc
   d4d90:	4298      	cmp	r0, r3
   d4d92:	d91f      	bls.n	d4dd4 <loop+0x140>
   d4d94:	f000 fdde 	bl	d5954 <HAL_Timer_Get_Micro_Seconds>
    otherReadTimer = micros();
   d4d98:	6020      	str	r0, [r4, #0]
    switch (readTurnCounter){ //Take turns reading from each line
   d4d9a:	4c5d      	ldr	r4, [pc, #372]	; (d4f10 <loop+0x27c>)
   d4d9c:	7823      	ldrb	r3, [r4, #0]
   d4d9e:	2b02      	cmp	r3, #2
   d4da0:	d02c      	beq.n	d4dfc <loop+0x168>
   d4da2:	2b03      	cmp	r3, #3
   d4da4:	d03f      	beq.n	d4e26 <loop+0x192>
   d4da6:	2b01      	cmp	r3, #1
   d4da8:	d114      	bne.n	d4dd4 <loop+0x140>
        tp1 = ads_other.readADC_SingleEnded(0);  //Thermopile #1
   d4daa:	485a      	ldr	r0, [pc, #360]	; (d4f14 <loop+0x280>)
   d4dac:	2100      	movs	r1, #0
   d4dae:	f000 fa1a 	bl	d51e6 <_ZN16Adafruit_ADS101519readADC_SingleEndedEh>
        avg_tp1 = avg_tp1 + tp1;
   d4db2:	4a59      	ldr	r2, [pc, #356]	; (d4f18 <loop+0x284>)
        tp1 = ads_other.readADC_SingleEnded(0);  //Thermopile #1
   d4db4:	4b59      	ldr	r3, [pc, #356]	; (d4f1c <loop+0x288>)
   d4db6:	6018      	str	r0, [r3, #0]
        avg_tp1 = avg_tp1 + tp1;
   d4db8:	6813      	ldr	r3, [r2, #0]
   d4dba:	4403      	add	r3, r0
   d4dbc:	6013      	str	r3, [r2, #0]
        if(tp1 > max_tp1){
   d4dbe:	4b58      	ldr	r3, [pc, #352]	; (d4f20 <loop+0x28c>)
   d4dc0:	681a      	ldr	r2, [r3, #0]
   d4dc2:	4290      	cmp	r0, r2
        tp1ReadCounter++;
   d4dc4:	4a57      	ldr	r2, [pc, #348]	; (d4f24 <loop+0x290>)
          max_tp1 = tp1;
   d4dc6:	bfc8      	it	gt
   d4dc8:	6018      	strgt	r0, [r3, #0]
        tp1ReadCounter++;
   d4dca:	6813      	ldr	r3, [r2, #0]
   d4dcc:	3301      	adds	r3, #1
   d4dce:	6013      	str	r3, [r2, #0]
        readTurnCounter = 2;
   d4dd0:	2302      	movs	r3, #2
        readTurnCounter = 1;
   d4dd2:	7023      	strb	r3, [r4, #0]
  if((millis() - reportTimer) >= 1001){
   d4dd4:	4c54      	ldr	r4, [pc, #336]	; (d4f28 <loop+0x294>)
inline system_tick_t millis(void) { return HAL_Timer_Get_Milli_Seconds(); }
   d4dd6:	f000 fdc5 	bl	d5964 <HAL_Timer_Get_Milli_Seconds>
   d4dda:	6823      	ldr	r3, [r4, #0]
   d4ddc:	1ac0      	subs	r0, r0, r3
   d4dde:	f5b0 7f7a 	cmp.w	r0, #1000	; 0x3e8
   d4de2:	d908      	bls.n	d4df6 <loop+0x162>
   d4de4:	f000 fdbe 	bl	d5964 <HAL_Timer_Get_Milli_Seconds>
    reportTimer = millis();
   d4de8:	6020      	str	r0, [r4, #0]
    switch (reportTurnCounter){
   d4dea:	4c50      	ldr	r4, [pc, #320]	; (d4f2c <loop+0x298>)
   d4dec:	7823      	ldrb	r3, [r4, #0]
   d4dee:	2b01      	cmp	r3, #1
   d4df0:	d02e      	beq.n	d4e50 <loop+0x1bc>
   d4df2:	2b03      	cmp	r3, #3
   d4df4:	d053      	beq.n	d4e9e <loop+0x20a>
}
   d4df6:	b011      	add	sp, #68	; 0x44
   d4df8:	e8bd 83f0 	ldmia.w	sp!, {r4, r5, r6, r7, r8, r9, pc}
        tp2 = ads_other.readADC_SingleEnded(1);  //Thermopile #2
   d4dfc:	4845      	ldr	r0, [pc, #276]	; (d4f14 <loop+0x280>)
   d4dfe:	2101      	movs	r1, #1
   d4e00:	f000 f9f1 	bl	d51e6 <_ZN16Adafruit_ADS101519readADC_SingleEndedEh>
        avg_tp2 = avg_tp2 + tp2;
   d4e04:	4a4a      	ldr	r2, [pc, #296]	; (d4f30 <loop+0x29c>)
        tp2 = ads_other.readADC_SingleEnded(1);  //Thermopile #2
   d4e06:	4b4b      	ldr	r3, [pc, #300]	; (d4f34 <loop+0x2a0>)
   d4e08:	6018      	str	r0, [r3, #0]
        avg_tp2 = avg_tp2 + tp2;
   d4e0a:	6813      	ldr	r3, [r2, #0]
   d4e0c:	4403      	add	r3, r0
   d4e0e:	6013      	str	r3, [r2, #0]
        if(tp2 > max_tp2){
   d4e10:	4b49      	ldr	r3, [pc, #292]	; (d4f38 <loop+0x2a4>)
   d4e12:	681a      	ldr	r2, [r3, #0]
   d4e14:	4290      	cmp	r0, r2
        tp2ReadCounter++;
   d4e16:	4a49      	ldr	r2, [pc, #292]	; (d4f3c <loop+0x2a8>)
          max_tp2 = tp2;
   d4e18:	bfc8      	it	gt
   d4e1a:	6018      	strgt	r0, [r3, #0]
        tp2ReadCounter++;
   d4e1c:	6813      	ldr	r3, [r2, #0]
   d4e1e:	3301      	adds	r3, #1
   d4e20:	6013      	str	r3, [r2, #0]
        readTurnCounter = 3;
   d4e22:	2303      	movs	r3, #3
   d4e24:	e7d5      	b.n	d4dd2 <loop+0x13e>
        fsr = ads_other.readADC_SingleEnded(2); //FSR
   d4e26:	483b      	ldr	r0, [pc, #236]	; (d4f14 <loop+0x280>)
   d4e28:	2102      	movs	r1, #2
   d4e2a:	f000 f9dc 	bl	d51e6 <_ZN16Adafruit_ADS101519readADC_SingleEndedEh>
        avg_fsr = avg_fsr + fsr;
   d4e2e:	4a44      	ldr	r2, [pc, #272]	; (d4f40 <loop+0x2ac>)
        fsr = ads_other.readADC_SingleEnded(2); //FSR
   d4e30:	4b44      	ldr	r3, [pc, #272]	; (d4f44 <loop+0x2b0>)
   d4e32:	6018      	str	r0, [r3, #0]
        avg_fsr = avg_fsr + fsr;
   d4e34:	6813      	ldr	r3, [r2, #0]
   d4e36:	4403      	add	r3, r0
   d4e38:	6013      	str	r3, [r2, #0]
        if(fsr > max_fsr){
   d4e3a:	4b43      	ldr	r3, [pc, #268]	; (d4f48 <loop+0x2b4>)
   d4e3c:	681a      	ldr	r2, [r3, #0]
   d4e3e:	4290      	cmp	r0, r2
        fsrReadCounter++;
   d4e40:	4a42      	ldr	r2, [pc, #264]	; (d4f4c <loop+0x2b8>)
          max_fsr = fsr;
   d4e42:	bfc8      	it	gt
   d4e44:	6018      	strgt	r0, [r3, #0]
        fsrReadCounter++;
   d4e46:	6813      	ldr	r3, [r2, #0]
   d4e48:	3301      	adds	r3, #1
   d4e4a:	6013      	str	r3, [r2, #0]
        readTurnCounter = 1;
   d4e4c:	2301      	movs	r3, #1
   d4e4e:	e7c0      	b.n	d4dd2 <loop+0x13e>
    static void sleep(Spark_Sleep_TypeDef sleepMode, long seconds=0) __attribute__ ((deprecated("Please use System.sleep() instead.")))
    { SystemClass::sleep(sleepMode, seconds); }
    static void sleep(uint16_t wakeUpPin, InterruptMode edgeTriggerMode, long seconds=0) __attribute__ ((deprecated("Please use System.sleep() instead.")))
    { SystemClass::sleep(wakeUpPin, edgeTriggerMode, seconds); }

    static bool connected(void) { return spark_cloud_flag_connected(); }
   d4e50:	f000 fefe 	bl	d5c50 <spark_cloud_flag_connected>
        if(Particle.connected()){
   d4e54:	b1e0      	cbz	r0, d4e90 <loop+0x1fc>
	StringSumHelper(const String &s) : String(s) {}
   d4e56:	4d22      	ldr	r5, [pc, #136]	; (d4ee0 <loop+0x24c>)
   d4e58:	a803      	add	r0, sp, #12
   d4e5a:	4629      	mov	r1, r5
   d4e5c:	f001 fd9f 	bl	d699e <_ZN6StringC1ERKS_>
          eda1Report = eda1Report + "\"}";
   d4e60:	493b      	ldr	r1, [pc, #236]	; (d4f50 <loop+0x2bc>)
   d4e62:	a803      	add	r0, sp, #12
   d4e64:	f001 fe03 	bl	d6a6e <_ZplRK15StringSumHelperPKc>
   d4e68:	4601      	mov	r1, r0
   d4e6a:	4628      	mov	r0, r5
   d4e6c:	f001 fd88 	bl	d6980 <_ZN6StringaSERKS_>
class StringSumHelper : public String
   d4e70:	a803      	add	r0, sp, #12
   d4e72:	f001 fd09 	bl	d6888 <_ZN6StringD1Ev>
inline particle::Flags<TagT, ValueT>::Flags(Flag<TagT, ValueT> flag) :
        val_(flag.value()) {
}

template<typename TagT, typename ValueT>
inline particle::Flags<TagT, ValueT>::Flags(ValueT val) :
   d4e76:	4b37      	ldr	r3, [pc, #220]	; (d4f54 <loop+0x2c0>)
        return publish_event(eventName, eventData, ttl, flags1 | flags2);
   d4e78:	4937      	ldr	r1, [pc, #220]	; (d4f58 <loop+0x2c4>)
   d4e7a:	781b      	ldrb	r3, [r3, #0]
   d4e7c:	f88d 3000 	strb.w	r3, [sp]
   d4e80:	a803      	add	r0, sp, #12
   d4e82:	682a      	ldr	r2, [r5, #0]
   d4e84:	233c      	movs	r3, #60	; 0x3c
   d4e86:	f001 f907 	bl	d6098 <_ZN10CloudClass13publish_eventEPKcS1_iN8particle5FlagsI15PublishFlagTypehEE>
	: _M_ptr(__p), _M_refcount(__r._M_refcount) // never throws
	{ }

      __shared_ptr(const __shared_ptr&) noexcept = default;
      __shared_ptr& operator=(const __shared_ptr&) noexcept = default;
      ~__shared_ptr() = default;
   d4e8a:	a804      	add	r0, sp, #16
   d4e8c:	f7ff feec 	bl	d4c68 <_ZNSt14__shared_countILN9__gnu_cxx12_Lock_policyE0EED1Ev>
        eda1Report = "{ \"EDA1\": \"";
   d4e90:	4932      	ldr	r1, [pc, #200]	; (d4f5c <loop+0x2c8>)
   d4e92:	4813      	ldr	r0, [pc, #76]	; (d4ee0 <loop+0x24c>)
   d4e94:	f001 fd96 	bl	d69c4 <_ZN6StringaSEPKc>
        reportTurnCounter = 3;
   d4e98:	2303      	movs	r3, #3
        reportTurnCounter = 1;
   d4e9a:	7023      	strb	r3, [r4, #0]
}
   d4e9c:	e7ab      	b.n	d4df6 <loop+0x162>
        computeSummaryReport();
   d4e9e:	f7ff fd37 	bl	d4910 <_Z20computeSummaryReportv>
    static bool connected(void) { return spark_cloud_flag_connected(); }
   d4ea2:	f000 fed5 	bl	d5c50 <spark_cloud_flag_connected>
        if(Particle.connected()){
   d4ea6:	b168      	cbz	r0, d4ec4 <loop+0x230>
   d4ea8:	4b2a      	ldr	r3, [pc, #168]	; (d4f54 <loop+0x2c0>)
        return publish_event(eventName, eventData, ttl, flags1 | flags2);
   d4eaa:	4a2d      	ldr	r2, [pc, #180]	; (d4f60 <loop+0x2cc>)
   d4eac:	781b      	ldrb	r3, [r3, #0]
   d4eae:	f88d 3000 	strb.w	r3, [sp]
   d4eb2:	a803      	add	r0, sp, #12
   d4eb4:	6812      	ldr	r2, [r2, #0]
   d4eb6:	492b      	ldr	r1, [pc, #172]	; (d4f64 <loop+0x2d0>)
   d4eb8:	233c      	movs	r3, #60	; 0x3c
   d4eba:	f001 f8ed 	bl	d6098 <_ZN10CloudClass13publish_eventEPKcS1_iN8particle5FlagsI15PublishFlagTypehEE>
   d4ebe:	a804      	add	r0, sp, #16
   d4ec0:	f7ff fed2 	bl	d4c68 <_ZNSt14__shared_countILN9__gnu_cxx12_Lock_policyE0EED1Ev>
        summaryReport = "";
   d4ec4:	4928      	ldr	r1, [pc, #160]	; (d4f68 <loop+0x2d4>)
   d4ec6:	4826      	ldr	r0, [pc, #152]	; (d4f60 <loop+0x2cc>)
   d4ec8:	f001 fd7c 	bl	d69c4 <_ZN6StringaSEPKc>
        reportTurnCounter = 1;
   d4ecc:	2301      	movs	r3, #1
   d4ece:	e7e4      	b.n	d4e9a <loop+0x206>
   d4ed0:	2003e3cc 	.word	0x2003e3cc
   d4ed4:	2003e4f8 	.word	0x2003e4f8
   d4ed8:	2003e490 	.word	0x2003e490
   d4edc:	2003e4d4 	.word	0x2003e4d4
   d4ee0:	2003e4d8 	.word	0x2003e4d8
   d4ee4:	2003e448 	.word	0x2003e448
   d4ee8:	2003e484 	.word	0x2003e484
   d4eec:	2003e488 	.word	0x2003e488
   d4ef0:	2003e48c 	.word	0x2003e48c
   d4ef4:	2003e504 	.word	0x2003e504
   d4ef8:	2003e508 	.word	0x2003e508
   d4efc:	2003e50c 	.word	0x2003e50c
   d4f00:	2003e4d0 	.word	0x2003e4d0
   d4f04:	2003e4cc 	.word	0x2003e4cc
   d4f08:	2003e55c 	.word	0x2003e55c
   d4f0c:	2003e590 	.word	0x2003e590
   d4f10:	2003e3cd 	.word	0x2003e3cd
   d4f14:	2003e496 	.word	0x2003e496
   d4f18:	2003e4c4 	.word	0x2003e4c4
   d4f1c:	2003e580 	.word	0x2003e580
   d4f20:	2003e554 	.word	0x2003e554
   d4f24:	2003e584 	.word	0x2003e584
   d4f28:	2003e564 	.word	0x2003e564
   d4f2c:	2003e3ce 	.word	0x2003e3ce
   d4f30:	2003e4c8 	.word	0x2003e4c8
   d4f34:	2003e588 	.word	0x2003e588
   d4f38:	2003e558 	.word	0x2003e558
   d4f3c:	2003e58c 	.word	0x2003e58c
   d4f40:	2003e4ac 	.word	0x2003e4ac
   d4f44:	2003e4fc 	.word	0x2003e4fc
   d4f48:	2003e53c 	.word	0x2003e53c
   d4f4c:	2003e500 	.word	0x2003e500
   d4f50:	000d9425 	.word	0x000d9425
   d4f54:	2003e480 	.word	0x2003e480
   d4f58:	000d9428 	.word	0x000d9428
   d4f5c:	000d942d 	.word	0x000d942d
   d4f60:	2003e568 	.word	0x2003e568
   d4f64:	000d9439 	.word	0x000d9439
   d4f68:	000d946e 	.word	0x000d946e
   d4f6c:	2003e578 	.word	0x2003e578
   d4f70:	2003e57c 	.word	0x2003e57c

000d4f74 <_GLOBAL__sub_I_reportTurnCounter>:
      delay(500);
    }else{
      initialized = true;
    }
  }
   d4f74:	b570      	push	{r4, r5, r6, lr}
        val_(val) {
   d4f76:	4b18      	ldr	r3, [pc, #96]	; (d4fd8 <_GLOBAL__sub_I_reportTurnCounter+0x64>)
String eda1Report = "";
   d4f78:	4d18      	ldr	r5, [pc, #96]	; (d4fdc <_GLOBAL__sub_I_reportTurnCounter+0x68>)
   d4f7a:	4e19      	ldr	r6, [pc, #100]	; (d4fe0 <_GLOBAL__sub_I_reportTurnCounter+0x6c>)
   d4f7c:	4c19      	ldr	r4, [pc, #100]	; (d4fe4 <_GLOBAL__sub_I_reportTurnCounter+0x70>)
   d4f7e:	2201      	movs	r2, #1
   d4f80:	701a      	strb	r2, [r3, #0]
   d4f82:	4629      	mov	r1, r5
   d4f84:	4630      	mov	r0, r6
   d4f86:	f001 fcca 	bl	d691e <_ZN6StringC1EPKc>
   d4f8a:	4630      	mov	r0, r6
String eda2Report = "";
   d4f8c:	4e16      	ldr	r6, [pc, #88]	; (d4fe8 <_GLOBAL__sub_I_reportTurnCounter+0x74>)
String eda1Report = "";
   d4f8e:	4a17      	ldr	r2, [pc, #92]	; (d4fec <_GLOBAL__sub_I_reportTurnCounter+0x78>)
   d4f90:	4621      	mov	r1, r4
   d4f92:	f002 fa41 	bl	d7418 <__aeabi_atexit>
String eda2Report = "";
   d4f96:	4629      	mov	r1, r5
   d4f98:	4630      	mov	r0, r6
   d4f9a:	f001 fcc0 	bl	d691e <_ZN6StringC1EPKc>
   d4f9e:	4630      	mov	r0, r6
String summaryReport = "";
   d4fa0:	4e13      	ldr	r6, [pc, #76]	; (d4ff0 <_GLOBAL__sub_I_reportTurnCounter+0x7c>)
String eda2Report = "";
   d4fa2:	4a12      	ldr	r2, [pc, #72]	; (d4fec <_GLOBAL__sub_I_reportTurnCounter+0x78>)
   d4fa4:	4621      	mov	r1, r4
   d4fa6:	f002 fa37 	bl	d7418 <__aeabi_atexit>
String summaryReport = "";
   d4faa:	4629      	mov	r1, r5
   d4fac:	4630      	mov	r0, r6
   d4fae:	f001 fcb6 	bl	d691e <_ZN6StringC1EPKc>
   d4fb2:	4621      	mov	r1, r4
   d4fb4:	4a0d      	ldr	r2, [pc, #52]	; (d4fec <_GLOBAL__sub_I_reportTurnCounter+0x78>)
   d4fb6:	4630      	mov	r0, r6
   d4fb8:	f002 fa2e 	bl	d7418 <__aeabi_atexit>
ICM_20948_I2C ICM;
   d4fbc:	480d      	ldr	r0, [pc, #52]	; (d4ff4 <_GLOBAL__sub_I_reportTurnCounter+0x80>)
   d4fbe:	f000 fbd1 	bl	d5764 <_ZN13ICM_20948_I2CC1Ev>
Adafruit_ADS1115 ads_other(0x48);
   d4fc2:	2148      	movs	r1, #72	; 0x48
   d4fc4:	480c      	ldr	r0, [pc, #48]	; (d4ff8 <_GLOBAL__sub_I_reportTurnCounter+0x84>)
   d4fc6:	f000 f8fe 	bl	d51c6 <_ZN16Adafruit_ADS1115C1Eh>
   d4fca:	e8bd 4070 	ldmia.w	sp!, {r4, r5, r6, lr}
Adafruit_ADS1115 ads_eda(0x49);
   d4fce:	480b      	ldr	r0, [pc, #44]	; (d4ffc <_GLOBAL__sub_I_reportTurnCounter+0x88>)
   d4fd0:	2149      	movs	r1, #73	; 0x49
   d4fd2:	f000 b8f8 	b.w	d51c6 <_ZN16Adafruit_ADS1115C1Eh>
   d4fd6:	bf00      	nop
   d4fd8:	2003e480 	.word	0x2003e480
   d4fdc:	000d946e 	.word	0x000d946e
   d4fe0:	2003e4d8 	.word	0x2003e4d8
   d4fe4:	000d6889 	.word	0x000d6889
   d4fe8:	2003e4e8 	.word	0x2003e4e8
   d4fec:	2003e444 	.word	0x2003e444
   d4ff0:	2003e568 	.word	0x2003e568
   d4ff4:	2003e448 	.word	0x2003e448
   d4ff8:	2003e496 	.word	0x2003e496
   d4ffc:	2003e490 	.word	0x2003e490

000d5000 <_Z13initializeIMUv>:
void initializeIMU(){
   d5000:	b5f8      	push	{r3, r4, r5, r6, r7, lr}
    ICM.begin( Wire, AD0_VAL );
   d5002:	4d14      	ldr	r5, [pc, #80]	; (d5054 <_Z13initializeIMUv+0x54>)
    Serial.print( F("Initialization of the sensor returned: ") );
   d5004:	4e14      	ldr	r6, [pc, #80]	; (d5058 <_Z13initializeIMUv+0x58>)
    Serial.println( ICM.statusString() );
   d5006:	1d2f      	adds	r7, r5, #4
    ICM.begin( Wire, AD0_VAL );
   d5008:	f002 f870 	bl	d70ec <_Z19__fetch_global_Wirev>
   d500c:	23ff      	movs	r3, #255	; 0xff
   d500e:	2200      	movs	r2, #0
   d5010:	4601      	mov	r1, r0
   d5012:	4810      	ldr	r0, [pc, #64]	; (d5054 <_Z13initializeIMUv+0x54>)
   d5014:	f000 fc50 	bl	d58b8 <_ZN13ICM_20948_I2C5beginER7TwoWirebh>
    Serial.print( F("Initialization of the sensor returned: ") );
   d5018:	f001 fe84 	bl	d6d24 <_Z16_fetch_usbserialv>
   d501c:	4631      	mov	r1, r6
   d501e:	f001 fbc8 	bl	d67b2 <_ZN5Print5printEPK19__FlashStringHelper>
    Serial.println( ICM.statusString() );
   d5022:	f001 fe7f 	bl	d6d24 <_Z16_fetch_usbserialv>
   d5026:	2108      	movs	r1, #8
   d5028:	4604      	mov	r4, r0
   d502a:	4638      	mov	r0, r7
   d502c:	f000 fb08 	bl	d5640 <_ZN9ICM_2094812statusStringE18ICM_20948_Status_e>
   d5030:	4601      	mov	r1, r0
   d5032:	4620      	mov	r0, r4
   d5034:	f001 fbcd 	bl	d67d2 <_ZN5Print7printlnEPKc>
    if( ICM.status != ICM_20948_Stat_Ok ){
   d5038:	f895 3020 	ldrb.w	r3, [r5, #32]
   d503c:	b14b      	cbz	r3, d5052 <_Z13initializeIMUv+0x52>
      Serial.println( "Trying again..." );
   d503e:	f001 fe71 	bl	d6d24 <_Z16_fetch_usbserialv>
   d5042:	4906      	ldr	r1, [pc, #24]	; (d505c <_Z13initializeIMUv+0x5c>)
   d5044:	f001 fbc5 	bl	d67d2 <_ZN5Print7printlnEPKc>
      delay(500);
   d5048:	f44f 70fa 	mov.w	r0, #500	; 0x1f4
   d504c:	f000 fea8 	bl	d5da0 <delay>
   d5050:	e7da      	b.n	d5008 <_Z13initializeIMUv+0x8>
   d5052:	bdf8      	pop	{r3, r4, r5, r6, r7, pc}
   d5054:	2003e448 	.word	0x2003e448
   d5058:	000d9447 	.word	0x000d9447
   d505c:	000d946f 	.word	0x000d946f

000d5060 <setup>:
void setup() {
   d5060:	b538      	push	{r3, r4, r5, lr}
  Serial.begin(115200);
   d5062:	f001 fe5f 	bl	d6d24 <_Z16_fetch_usbserialv>
   d5066:	f44f 31e1 	mov.w	r1, #115200	; 0x1c200
   d506a:	f001 fe4f 	bl	d6d0c <_ZN9USBSerial5beginEl>
  Wire.begin();
   d506e:	f002 f83d 	bl	d70ec <_Z19__fetch_global_Wirev>
   d5072:	f001 fa07 	bl	d6484 <_ZN7TwoWire5beginEv>
  Wire.setClock(400000);  //The IMU is capped at the 400khz level
   d5076:	f002 f839 	bl	d70ec <_Z19__fetch_global_Wirev>

public:
  TwoWire(hal_i2c_interface_t i2c, const hal_i2c_config_t& config);
  virtual ~TwoWire() {};
  inline void setClock(uint32_t speed) {
	  setSpeed(speed);
   d507a:	4927      	ldr	r1, [pc, #156]	; (d5118 <setup+0xb8>)
  ads_other.setGain(GAIN_TWOTHIRDS);  //Should be able to put this to one eventually
   d507c:	4d27      	ldr	r5, [pc, #156]	; (d511c <setup+0xbc>)
  ads_eda.setGain(GAIN_ONE);  //No higher than one since the max output of the op amp is the same as Vdd on the ADS1115
   d507e:	4c28      	ldr	r4, [pc, #160]	; (d5120 <setup+0xc0>)
   d5080:	f001 f9fc 	bl	d647c <_ZN7TwoWire8setSpeedEm>
  initializeIMU();  // ***This will become blocking when we add the Rev3 sleep code ***
   d5084:	f7ff ffbc 	bl	d5000 <_Z13initializeIMUv>
  pinMode(TC1,INPUT);  //Local temp compensation PTC resistors from the thermopile assemblies
   d5088:	2100      	movs	r1, #0
   d508a:	2012      	movs	r0, #18
   d508c:	f001 ffd4 	bl	d7038 <pinMode>
  pinMode(TC2,INPUT);
   d5090:	2100      	movs	r1, #0
   d5092:	2011      	movs	r0, #17
   d5094:	f001 ffd0 	bl	d7038 <pinMode>
  pinMode(eda1_out,OUTPUT);  //To send voltage out into the hand
   d5098:	2101      	movs	r1, #1
   d509a:	2005      	movs	r0, #5
   d509c:	f001 ffcc 	bl	d7038 <pinMode>
  pinMode(eda2_out,OUTPUT);
   d50a0:	2101      	movs	r1, #1
   d50a2:	2004      	movs	r0, #4
   d50a4:	f001 ffc8 	bl	d7038 <pinMode>
  pinMode(led_on,OUTPUT);  //To turn the pulse LED on
   d50a8:	2101      	movs	r1, #1
   d50aa:	2007      	movs	r0, #7
   d50ac:	f001 ffc4 	bl	d7038 <pinMode>
  pinMode(slp,OUTPUT);  //To turn off much of the board functionality when not in use
   d50b0:	2101      	movs	r1, #1
   d50b2:	2008      	movs	r0, #8
   d50b4:	f001 ffc0 	bl	d7038 <pinMode>
  digitalWrite(eda1_out,HIGH);  //On constant for now, later only have this on sometimes to prevent shorts
   d50b8:	2101      	movs	r1, #1
   d50ba:	2005      	movs	r0, #5
   d50bc:	f001 ffcd 	bl	d705a <digitalWrite>
  digitalWrite(eda2_out,HIGH);
   d50c0:	2101      	movs	r1, #1
   d50c2:	2004      	movs	r0, #4
   d50c4:	f001 ffc9 	bl	d705a <digitalWrite>
  ads_other.setGain(GAIN_TWOTHIRDS);  //Should be able to put this to one eventually
   d50c8:	2100      	movs	r1, #0
   d50ca:	4628      	mov	r0, r5
   d50cc:	f000 f889 	bl	d51e2 <_ZN16Adafruit_ADS10157setGainE9adsGain_t>
  ads_eda.setGain(GAIN_ONE);  //No higher than one since the max output of the op amp is the same as Vdd on the ADS1115
   d50d0:	f44f 7100 	mov.w	r1, #512	; 0x200
   d50d4:	4620      	mov	r0, r4
   d50d6:	f000 f884 	bl	d51e2 <_ZN16Adafruit_ADS10157setGainE9adsGain_t>
  ads_other.begin();
   d50da:	4628      	mov	r0, r5
   d50dc:	f000 f87a 	bl	d51d4 <_ZN16Adafruit_ADS10155beginEv>
  ads_eda.begin();
   d50e0:	4620      	mov	r0, r4
   d50e2:	f000 f877 	bl	d51d4 <_ZN16Adafruit_ADS10155beginEv>
  digitalWrite(led_on,HIGH);  //For now this is on all the time.  Doesn't seem to work well with the library if partiall off.
   d50e6:	2101      	movs	r1, #1
   d50e8:	2007      	movs	r0, #7
   d50ea:	f001 ffb6 	bl	d705a <digitalWrite>
  PulseSensorAmped.attach(PULSE_SIGNAL_PIN);
   d50ee:	210f      	movs	r1, #15
   d50f0:	480c      	ldr	r0, [pc, #48]	; (d5124 <setup+0xc4>)
   d50f2:	f000 f90b 	bl	d530c <_ZN21PulseSensorAmpedClass6attachEi>
  PulseSensorAmped.start();  //Start reading heart beats
   d50f6:	480b      	ldr	r0, [pc, #44]	; (d5124 <setup+0xc4>)
   d50f8:	f000 f910 	bl	d531c <_ZN21PulseSensorAmpedClass5startEv>
   d50fc:	f000 fc32 	bl	d5964 <HAL_Timer_Get_Milli_Seconds>
  reportTimer = millis();  //Timer to avoid sending reports more than once per second (Particle cap)
   d5100:	4b09      	ldr	r3, [pc, #36]	; (d5128 <setup+0xc8>)
   d5102:	6018      	str	r0, [r3, #0]
   d5104:	f000 fc2e 	bl	d5964 <HAL_Timer_Get_Milli_Seconds>
  edaReadTimer = millis();  //Timer to rate limit EDA readings to the Particle publishing size cap (622 bytes)
   d5108:	4b08      	ldr	r3, [pc, #32]	; (d512c <setup+0xcc>)
   d510a:	6018      	str	r0, [r3, #0]
inline unsigned long micros(void) { return HAL_Timer_Get_Micro_Seconds(); }
   d510c:	f000 fc22 	bl	d5954 <HAL_Timer_Get_Micro_Seconds>
  otherReadTimer = micros();  //Timer to rate limit the other ADS signals to the max rate of the ADS1115
   d5110:	4b07      	ldr	r3, [pc, #28]	; (d5130 <setup+0xd0>)
   d5112:	6018      	str	r0, [r3, #0]
}
   d5114:	bd38      	pop	{r3, r4, r5, pc}
   d5116:	bf00      	nop
   d5118:	00061a80 	.word	0x00061a80
   d511c:	2003e496 	.word	0x2003e496
   d5120:	2003e490 	.word	0x2003e490
   d5124:	2003e590 	.word	0x2003e590
   d5128:	2003e564 	.word	0x2003e564
   d512c:	2003e4f8 	.word	0x2003e4f8
   d5130:	2003e55c 	.word	0x2003e55c

000d5134 <_ZL8i2cwriteh>:
/*!
    @brief  Abstract away platform differences in Arduino wire library
    @param x byte to write
*/
/**************************************************************************/
static void i2cwrite(uint8_t x) {
   d5134:	b507      	push	{r0, r1, r2, lr}
   d5136:	9001      	str	r0, [sp, #4]
#if ARDUINO >= 100
  Wire.write((uint8_t)x);
   d5138:	f001 ffd8 	bl	d70ec <_Z19__fetch_global_Wirev>
   d513c:	6803      	ldr	r3, [r0, #0]
   d513e:	9901      	ldr	r1, [sp, #4]
   d5140:	689b      	ldr	r3, [r3, #8]
#else
  Wire.send(x);
#endif
}
   d5142:	b003      	add	sp, #12
   d5144:	f85d eb04 	ldr.w	lr, [sp], #4
  Wire.write((uint8_t)x);
   d5148:	4718      	bx	r3

000d514a <_ZL7i2creadv>:
static uint8_t i2cread(void) {
   d514a:	b508      	push	{r3, lr}
  return Wire.read();
   d514c:	f001 ffce 	bl	d70ec <_Z19__fetch_global_Wirev>
   d5150:	6803      	ldr	r3, [r0, #0]
   d5152:	695b      	ldr	r3, [r3, #20]
   d5154:	4798      	blx	r3
}
   d5156:	b2c0      	uxtb	r0, r0
   d5158:	bd08      	pop	{r3, pc}

000d515a <_ZL13writeRegisterhht>:
    @param i2cAddress I2C address of device
    @param reg register address to write to
    @param value value to write to register
*/
/**************************************************************************/
static void writeRegister(uint8_t i2cAddress, uint8_t reg, uint16_t value) {
   d515a:	b570      	push	{r4, r5, r6, lr}
   d515c:	4606      	mov	r6, r0
   d515e:	4614      	mov	r4, r2
   d5160:	460d      	mov	r5, r1
  Wire.beginTransmission(i2cAddress);
   d5162:	f001 ffc3 	bl	d70ec <_Z19__fetch_global_Wirev>
   d5166:	4631      	mov	r1, r6
   d5168:	f001 f9be 	bl	d64e8 <_ZN7TwoWire17beginTransmissionEh>
  i2cwrite((uint8_t)reg);
   d516c:	4628      	mov	r0, r5
   d516e:	f7ff ffe1 	bl	d5134 <_ZL8i2cwriteh>
  i2cwrite((uint8_t)(value >> 8));
   d5172:	0a20      	lsrs	r0, r4, #8
   d5174:	f7ff ffde 	bl	d5134 <_ZL8i2cwriteh>
  i2cwrite((uint8_t)(value & 0xFF));
   d5178:	b2e0      	uxtb	r0, r4
   d517a:	f7ff ffdb 	bl	d5134 <_ZL8i2cwriteh>
  Wire.endTransmission();
   d517e:	f001 ffb5 	bl	d70ec <_Z19__fetch_global_Wirev>
}
   d5182:	e8bd 4070 	ldmia.w	sp!, {r4, r5, r6, lr}
  Wire.endTransmission();
   d5186:	f001 b9b7 	b.w	d64f8 <_ZN7TwoWire15endTransmissionEv>

000d518a <_ZL12readRegisterhh.constprop.0>:
    @param i2cAddress I2C address of device
    @param reg register address to read from
    @return 16 bit register value read
*/
/**************************************************************************/
static uint16_t readRegister(uint8_t i2cAddress, uint8_t reg) {
   d518a:	b513      	push	{r0, r1, r4, lr}
   d518c:	9001      	str	r0, [sp, #4]
  Wire.beginTransmission(i2cAddress);
   d518e:	f001 ffad 	bl	d70ec <_Z19__fetch_global_Wirev>
   d5192:	9901      	ldr	r1, [sp, #4]
   d5194:	f001 f9a8 	bl	d64e8 <_ZN7TwoWire17beginTransmissionEh>
  i2cwrite(reg);
   d5198:	2000      	movs	r0, #0
   d519a:	f7ff ffcb 	bl	d5134 <_ZL8i2cwriteh>
  Wire.endTransmission();
   d519e:	f001 ffa5 	bl	d70ec <_Z19__fetch_global_Wirev>
   d51a2:	f001 f9a9 	bl	d64f8 <_ZN7TwoWire15endTransmissionEv>
  Wire.requestFrom(i2cAddress, (uint8_t)2);
   d51a6:	f001 ffa1 	bl	d70ec <_Z19__fetch_global_Wirev>
   d51aa:	9901      	ldr	r1, [sp, #4]
   d51ac:	2202      	movs	r2, #2
   d51ae:	f001 f998 	bl	d64e2 <_ZN7TwoWire11requestFromEhj>
  return ((i2cread() << 8) | i2cread());
   d51b2:	f7ff ffca 	bl	d514a <_ZL7i2creadv>
   d51b6:	4604      	mov	r4, r0
   d51b8:	f7ff ffc7 	bl	d514a <_ZL7i2creadv>
   d51bc:	ea40 2004 	orr.w	r0, r0, r4, lsl #8
}
   d51c0:	b280      	uxth	r0, r0
   d51c2:	b002      	add	sp, #8
   d51c4:	bd10      	pop	{r4, pc}

000d51c6 <_ZN16Adafruit_ADS1115C1Eh>:
/**************************************************************************/
Adafruit_ADS1015::Adafruit_ADS1015(uint8_t i2cAddress) {
  m_i2cAddress = i2cAddress;
  m_conversionDelay = ADS1015_CONVERSIONDELAY;
  m_bitShift = 4;
  m_gain = GAIN_TWOTHIRDS; /* +/- 6.144V range (limited to VDD +0.3V max!) */
   d51c6:	2200      	movs	r2, #0
    @brief  Instantiates a new ADS1115 class w/appropriate properties
    @param i2cAddress I2C address of device
*/
/**************************************************************************/
Adafruit_ADS1115::Adafruit_ADS1115(uint8_t i2cAddress) {
  m_i2cAddress = i2cAddress;
   d51c8:	7001      	strb	r1, [r0, #0]
  m_conversionDelay = ADS1115_CONVERSIONDELAY;
   d51ca:	2102      	movs	r1, #2
  m_gain = GAIN_TWOTHIRDS; /* +/- 6.144V range (limited to VDD +0.3V max!) */
   d51cc:	8082      	strh	r2, [r0, #4]
  m_conversionDelay = ADS1115_CONVERSIONDELAY;
   d51ce:	7041      	strb	r1, [r0, #1]
  m_bitShift = 0;
   d51d0:	7082      	strb	r2, [r0, #2]
  m_gain = GAIN_TWOTHIRDS; /* +/- 6.144V range (limited to VDD +0.3V max!) */
}
   d51d2:	4770      	bx	lr

000d51d4 <_ZN16Adafruit_ADS10155beginEv>:
/**************************************************************************/
/*!
    @brief  Sets up the HW (reads coefficients values, etc.)
*/
/**************************************************************************/
void Adafruit_ADS1015::begin() { Wire.begin(); }
   d51d4:	b508      	push	{r3, lr}
   d51d6:	f001 ff89 	bl	d70ec <_Z19__fetch_global_Wirev>
   d51da:	e8bd 4008 	ldmia.w	sp!, {r3, lr}
   d51de:	f001 b951 	b.w	d6484 <_ZN7TwoWire5beginEv>

000d51e2 <_ZN16Adafruit_ADS10157setGainE9adsGain_t>:
/*!
    @brief  Sets the gain and input voltage range
    @param gain gain setting to use
*/
/**************************************************************************/
void Adafruit_ADS1015::setGain(adsGain_t gain) { m_gain = gain; }
   d51e2:	8081      	strh	r1, [r0, #4]
   d51e4:	4770      	bx	lr

000d51e6 <_ZN16Adafruit_ADS101519readADC_SingleEndedEh>:
    @param channel ADC channel to read
    @return the ADC reading
*/
/**************************************************************************/
uint16_t Adafruit_ADS1015::readADC_SingleEnded(uint8_t channel) {
  if (channel > 3) {
   d51e6:	2903      	cmp	r1, #3
uint16_t Adafruit_ADS1015::readADC_SingleEnded(uint8_t channel) {
   d51e8:	b510      	push	{r4, lr}
   d51ea:	4604      	mov	r4, r0
  if (channel > 3) {
   d51ec:	d822      	bhi.n	d5234 <_ZN16Adafruit_ADS101519readADC_SingleEndedEh+0x4e>

  // Set PGA/voltage range
  config |= m_gain;

  // Set single-ended input channel
  switch (channel) {
   d51ee:	2902      	cmp	r1, #2
  config |= m_gain;
   d51f0:	8882      	ldrh	r2, [r0, #4]
  switch (channel) {
   d51f2:	d019      	beq.n	d5228 <_ZN16Adafruit_ADS101519readADC_SingleEndedEh+0x42>
   d51f4:	2903      	cmp	r1, #3
   d51f6:	d01a      	beq.n	d522e <_ZN16Adafruit_ADS101519readADC_SingleEndedEh+0x48>
   d51f8:	2901      	cmp	r1, #1
  case (0):
    config |= ADS1015_REG_CONFIG_MUX_SINGLE_0;
   d51fa:	bf14      	ite	ne
   d51fc:	f442 4283 	orrne.w	r2, r2, #16768	; 0x4180
    break;
  case (1):
    config |= ADS1015_REG_CONFIG_MUX_SINGLE_1;
   d5200:	f442 42a3 	orreq.w	r2, r2, #20864	; 0x5180
    break;
  case (2):
    config |= ADS1015_REG_CONFIG_MUX_SINGLE_2;
    break;
  case (3):
    config |= ADS1015_REG_CONFIG_MUX_SINGLE_3;
   d5204:	f042 0243 	orr.w	r2, r2, #67	; 0x43

  // Set 'start single-conversion' bit
  config |= ADS1015_REG_CONFIG_OS_SINGLE;

  // Write config register to the ADC
  writeRegister(m_i2cAddress, ADS1015_REG_POINTER_CONFIG, config);
   d5208:	f442 4200 	orr.w	r2, r2, #32768	; 0x8000
   d520c:	2101      	movs	r1, #1
   d520e:	7820      	ldrb	r0, [r4, #0]
   d5210:	f7ff ffa3 	bl	d515a <_ZL13writeRegisterhht>

  // Wait for the conversion to complete
  delay(m_conversionDelay);
   d5214:	7860      	ldrb	r0, [r4, #1]
   d5216:	f000 fdc3 	bl	d5da0 <delay>

  // Read the conversion results
  // Shift 12-bit results right 4 bits for the ADS1015
  return readRegister(m_i2cAddress, ADS1015_REG_POINTER_CONVERT) >> m_bitShift;
   d521a:	7820      	ldrb	r0, [r4, #0]
   d521c:	f7ff ffb5 	bl	d518a <_ZL12readRegisterhh.constprop.0>
   d5220:	78a3      	ldrb	r3, [r4, #2]
   d5222:	4118      	asrs	r0, r3
   d5224:	b280      	uxth	r0, r0
}
   d5226:	bd10      	pop	{r4, pc}
    config |= ADS1015_REG_CONFIG_MUX_SINGLE_2;
   d5228:	f442 42c3 	orr.w	r2, r2, #24960	; 0x6180
   d522c:	e7ea      	b.n	d5204 <_ZN16Adafruit_ADS101519readADC_SingleEndedEh+0x1e>
    config |= ADS1015_REG_CONFIG_MUX_SINGLE_3;
   d522e:	f442 42e3 	orr.w	r2, r2, #29056	; 0x7180
   d5232:	e7e7      	b.n	d5204 <_ZN16Adafruit_ADS101519readADC_SingleEndedEh+0x1e>
    return 0;
   d5234:	2000      	movs	r0, #0
   d5236:	e7f6      	b.n	d5226 <_ZN16Adafruit_ADS101519readADC_SingleEndedEh+0x40>

000d5238 <_ZN16Adafruit_ADS101524readADC_Differential_0_1Ev>:
            a signed value since the difference can be either
            positive or negative.
    @return the ADC reading
*/
/**************************************************************************/
int16_t Adafruit_ADS1015::readADC_Differential_0_1() {
   d5238:	b510      	push	{r4, lr}

  // Set channels
  config |= ADS1015_REG_CONFIG_MUX_DIFF_0_1; // AIN0 = P, AIN1 = N

  // Set 'start single-conversion' bit
  config |= ADS1015_REG_CONFIG_OS_SINGLE;
   d523a:	8882      	ldrh	r2, [r0, #4]
int16_t Adafruit_ADS1015::readADC_Differential_0_1() {
   d523c:	4604      	mov	r4, r0

  // Write config register to the ADC
  writeRegister(m_i2cAddress, ADS1015_REG_POINTER_CONFIG, config);
   d523e:	f442 4201 	orr.w	r2, r2, #33024	; 0x8100
   d5242:	f042 0263 	orr.w	r2, r2, #99	; 0x63
   d5246:	2101      	movs	r1, #1
   d5248:	7800      	ldrb	r0, [r0, #0]
   d524a:	f7ff ff86 	bl	d515a <_ZL13writeRegisterhht>

  // Wait for the conversion to complete
  delay(m_conversionDelay);
   d524e:	7860      	ldrb	r0, [r4, #1]
   d5250:	f000 fda6 	bl	d5da0 <delay>

  // Read the conversion results
  uint16_t res =
      readRegister(m_i2cAddress, ADS1015_REG_POINTER_CONVERT) >> m_bitShift;
   d5254:	7820      	ldrb	r0, [r4, #0]
   d5256:	f7ff ff98 	bl	d518a <_ZL12readRegisterhh.constprop.0>
   d525a:	78a3      	ldrb	r3, [r4, #2]
   d525c:	4118      	asrs	r0, r3
  if (m_bitShift == 0) {
   d525e:	b90b      	cbnz	r3, d5264 <_ZN16Adafruit_ADS101524readADC_Differential_0_1Ev+0x2c>
    // making sure we keep the sign bit intact
    if (res > 0x07FF) {
      // negative number - extend the sign to 16th bit
      res |= 0xF000;
    }
    return (int16_t)res;
   d5260:	b200      	sxth	r0, r0
  }
}
   d5262:	bd10      	pop	{r4, pc}
      readRegister(m_i2cAddress, ADS1015_REG_POINTER_CONVERT) >> m_bitShift;
   d5264:	b280      	uxth	r0, r0
    if (res > 0x07FF) {
   d5266:	f5b0 6f00 	cmp.w	r0, #2048	; 0x800
      res |= 0xF000;
   d526a:	bf28      	it	cs
   d526c:	f440 4070 	orrcs.w	r0, r0, #61440	; 0xf000
   d5270:	e7f6      	b.n	d5260 <_ZN16Adafruit_ADS101524readADC_Differential_0_1Ev+0x28>
	...

000d5274 <_Z5timerj>:
    // Timer Event 
    //if (NRF_TIMER4->EVENTS_COMPARE[0] != 0)
    PulseSensorAmped.update();
}

void timer(unsigned ms) {
   d5274:	b5f0      	push	{r4, r5, r6, r7, lr}

    // Set priority as high as possible.
    timer_config.interrupt_priority = 3;

    // Init the timer
    (void)nrfx_timer_init(&timer4,&timer_config,timer_isr);
   d5276:	4c21      	ldr	r4, [pc, #132]	; (d52fc <_Z5timerj+0x88>)
    attachInterruptDirect(TIMER4_IRQn,nrfx_timer_4_irq_handler);
   d5278:	4921      	ldr	r1, [pc, #132]	; (d5300 <_Z5timerj+0x8c>)
void timer(unsigned ms) {
   d527a:	b085      	sub	sp, #20
   d527c:	4605      	mov	r5, r0
    attachInterruptDirect(TIMER4_IRQn,nrfx_timer_4_irq_handler);
   d527e:	2201      	movs	r2, #1
   d5280:	201b      	movs	r0, #27
   d5282:	f001 f93c 	bl	d64fe <_Z21attachInterruptDirect9IRQn_TypePFvvEb>
    nrfx_timer_config_t timer_config = NRFX_TIMER_DEFAULT_CONFIG;
   d5286:	2600      	movs	r6, #0
   d5288:	f04f 7340 	mov.w	r3, #50331648	; 0x3000000
    (void)nrfx_timer_init(&timer4,&timer_config,timer_isr);
   d528c:	4a1d      	ldr	r2, [pc, #116]	; (d5304 <_Z5timerj+0x90>)
   d528e:	a902      	add	r1, sp, #8
   d5290:	4620      	mov	r0, r4
    nrfx_timer_config_t timer_config = NRFX_TIMER_DEFAULT_CONFIG;
   d5292:	e9cd 3602 	strd	r3, r6, [sp, #8]
    (void)nrfx_timer_init(&timer4,&timer_config,timer_isr);
   d5296:	f001 ff79 	bl	d718c <nrfx_timer_init>
    // if( err_code != NRF_SUCCESS ) Log.error("nrfx_timer_error");

    // Disable and clear the timer.
    nrfx_timer_disable(&timer4);
   d529a:	4620      	mov	r0, r4
   d529c:	f002 f850 	bl	d7340 <nrfx_timer_disable>
    nrfx_timer_clear(&timer4);
   d52a0:	4620      	mov	r0, r4
   d52a2:	f002 f867 	bl	d7374 <nrfx_timer_clear>

    // Calculate the ticks for 50 uS
    uint32_t ticks = nrfx_timer_us_to_ticks(&timer4,ms*1000);
   d52a6:	6823      	ldr	r3, [r4, #0]
                              TIMER_PRESCALER_PRESCALER_Msk);
}

__STATIC_INLINE nrf_timer_frequency_t nrf_timer_frequency_get(NRF_TIMER_Type * p_reg)
{
    return (nrf_timer_frequency_t)(p_reg->PRESCALER);
   d52a8:	f8d3 3510 	ldr.w	r3, [r3, #1296]	; 0x510
   d52ac:	f44f 727a 	mov.w	r2, #1000	; 0x3e8
                                               nrf_timer_frequency_t frequency)
{
    // The "frequency" parameter here is actually the prescaler value, and the
    // timer runs at the following frequency: f = 16 MHz / 2^prescaler.
    uint32_t prescaler = (uint32_t)frequency;
    uint64_t ticks = ((time_us * 16ULL) >> prescaler);
   d52b0:	b2db      	uxtb	r3, r3
   d52b2:	fb02 f005 	mul.w	r0, r2, r5
   d52b6:	0f02      	lsrs	r2, r0, #28
   d52b8:	f1c3 0720 	rsb	r7, r3, #32
   d52bc:	0100      	lsls	r0, r0, #4
   d52be:	f1a3 0120 	sub.w	r1, r3, #32
   d52c2:	fa20 f403 	lsr.w	r4, r0, r3
   d52c6:	fa02 f707 	lsl.w	r7, r2, r7
   d52ca:	433c      	orrs	r4, r7
   d52cc:	fa22 f101 	lsr.w	r1, r2, r1
   d52d0:	fa22 f503 	lsr.w	r5, r2, r3
   d52d4:	430c      	orrs	r4, r1
    NRFX_ASSERT(ticks <= UINT32_MAX);
   d52d6:	2d01      	cmp	r5, #1
   d52d8:	bf08      	it	eq
   d52da:	2c00      	cmpeq	r4, #0
   d52dc:	d304      	bcc.n	d52e8 <_Z5timerj+0x74>
   d52de:	4a0a      	ldr	r2, [pc, #40]	; (d5308 <_Z5timerj+0x94>)
   d52e0:	4631      	mov	r1, r6
   d52e2:	200a      	movs	r0, #10
   d52e4:	f000 fc78 	bl	d5bd8 <panic_>

    // Set the compare for the start and the end
    nrfx_timer_extended_compare(&timer4, NRF_TIMER_CC_CHANNEL0, ticks, NRF_TIMER_SHORT_COMPARE0_CLEAR_MASK, true);
   d52e8:	2301      	movs	r3, #1
   d52ea:	4804      	ldr	r0, [pc, #16]	; (d52fc <_Z5timerj+0x88>)
   d52ec:	9300      	str	r3, [sp, #0]
   d52ee:	4622      	mov	r2, r4
   d52f0:	2100      	movs	r1, #0
   d52f2:	f002 f870 	bl	d73d6 <nrfx_timer_extended_compare>
}
   d52f6:	b005      	add	sp, #20
   d52f8:	bdf0      	pop	{r4, r5, r6, r7, pc}
   d52fa:	bf00      	nop
   d52fc:	2003e3d0 	.word	0x2003e3d0
   d5300:	000d7405 	.word	0x000d7405
   d5304:	000d5525 	.word	0x000d5525
   d5308:	000d5945 	.word	0x000d5945

000d530c <_ZN21PulseSensorAmpedClass6attachEi>:
}                     
                                                                                                                                                                                                                                                                              
// Configure the sensor
void PulseSensorAmpedClass::attach(int pin) {
  // Do not allow analog pin to change
  if(analogPin==-1) {
   d530c:	6803      	ldr	r3, [r0, #0]
   d530e:	3301      	adds	r3, #1
    analogPin = pin;
   d5310:	bf08      	it	eq
   d5312:	6001      	streq	r1, [r0, #0]
  }
  timer(2); // Enable a 2ms timer.
   d5314:	2002      	movs	r0, #2
   d5316:	f7ff bfad 	b.w	d5274 <_Z5timerj>
	...

000d531c <_ZN21PulseSensorAmpedClass5startEv>:
}

void PulseSensorAmpedClass::start(void) {
   d531c:	b510      	push	{r4, lr}
  // Only allow the sensor to start/stop if the pin is configured
  // Start TIMER (If pin configured)
  if(analogPin != -1)
   d531e:	6803      	ldr	r3, [r0, #0]
   d5320:	3301      	adds	r3, #1
void PulseSensorAmpedClass::start(void) {
   d5322:	4604      	mov	r4, r0
  if(analogPin != -1)
   d5324:	d002      	beq.n	d532c <_ZN21PulseSensorAmpedClass5startEv+0x10>
      nrfx_timer_enable(&timer4);
   d5326:	480c      	ldr	r0, [pc, #48]	; (d5358 <_ZN21PulseSensorAmpedClass5startEv+0x3c>)
   d5328:	f001 ffec 	bl	d7304 <nrfx_timer_enable>

  // Re-initialize variables:
  sampleCounter = 0;
  lastBeatTime = 0; 
  peak = 512;
   d532c:	f44f 7200 	mov.w	r2, #512	; 0x200
  trough = 512;
   d5330:	e9c4 2206 	strd	r2, r2, [r4, #24]
  thresh = 525;
  amplitude = 100;
   d5334:	f240 210d 	movw	r1, #525	; 0x20d
   d5338:	2264      	movs	r2, #100	; 0x64
   d533a:	e9c4 1208 	strd	r1, r2, [r4, #32]
  IBI = 600;
   d533e:	f44f 7216 	mov.w	r2, #600	; 0x258
  sampleCounter = 0;
   d5342:	2300      	movs	r3, #0
  IBI = 600;
   d5344:	60e2      	str	r2, [r4, #12]
  pulse = false;
   d5346:	f44f 7280 	mov.w	r2, #256	; 0x100
  lastBeatTime = 0; 
   d534a:	e9c4 3304 	strd	r3, r3, [r4, #16]
  pulse = false;
   d534e:	8522      	strh	r2, [r4, #40]	; 0x28
  pulseLost = true;
  beatCount = 0;
   d5350:	62e3      	str	r3, [r4, #44]	; 0x2c
  postUpdate = false;
   d5352:	f884 3030 	strb.w	r3, [r4, #48]	; 0x30
}
   d5356:	bd10      	pop	{r4, pc}
   d5358:	2003e3d0 	.word	0x2003e3d0

000d535c <_ZN21PulseSensorAmpedClass6updateEv>:
  postUpdate = false;
}



void PulseSensorAmpedClass::update() {              // Update this ever 2ms
   d535c:	b5f8      	push	{r3, r4, r5, r6, r7, lr}
  static unsigned rate[10];                         // array to average IBI values for average rate
  static unsigned beatCount = 0;

  if(fakeData) {
   d535e:	7903      	ldrb	r3, [r0, #4]
void PulseSensorAmpedClass::update() {              // Update this ever 2ms
   d5360:	4604      	mov	r4, r0
  if(fakeData) {
   d5362:	b313      	cbz	r3, d53aa <_ZN21PulseSensorAmpedClass6updateEv+0x4e>
    // Send an update once per second
    if(beatCount >= 500) {
   d5364:	4d6b      	ldr	r5, [pc, #428]	; (d5514 <_ZN21PulseSensorAmpedClass6updateEv+0x1b8>)
   d5366:	682b      	ldr	r3, [r5, #0]
   d5368:	f5b3 7ffa 	cmp.w	r3, #500	; 0x1f4
   d536c:	d30c      	bcc.n	d5388 <_ZN21PulseSensorAmpedClass6updateEv+0x2c>
       if(random(100)<2) {
   d536e:	2064      	movs	r0, #100	; 0x64
   d5370:	f001 fa57 	bl	d6822 <_Z6randomi>
   d5374:	2801      	cmp	r0, #1
   d5376:	dc0b      	bgt.n	d5390 <_ZN21PulseSensorAmpedClass6updateEv+0x34>
         BPM = -1;
   d5378:	f04f 33ff 	mov.w	r3, #4294967295	; 0xffffffff
       } else {
        IBI = random(770,1100);
        BPM = 60000/IBI;        
   d537c:	60a3      	str	r3, [r4, #8]
       }
       postUpdate = true;
   d537e:	2301      	movs	r3, #1
   d5380:	f884 3030 	strb.w	r3, [r4, #48]	; 0x30
       beatCount = 0;
   d5384:	2300      	movs	r3, #0
   d5386:	602b      	str	r3, [r5, #0]
    }
    beatCount++;
   d5388:	682b      	ldr	r3, [r5, #0]
   d538a:	3301      	adds	r3, #1
   d538c:	602b      	str	r3, [r5, #0]
    trough = signal;                 // set T default
    lastBeatTime = sampleCounter;    // bring the lastBeatTime up to date        
    pulseLost = true;
    beatCount = 0;
  }
}
   d538e:	bdf8      	pop	{r3, r4, r5, r6, r7, pc}
        IBI = random(770,1100);
   d5390:	f240 414c 	movw	r1, #1100	; 0x44c
   d5394:	f240 3002 	movw	r0, #770	; 0x302
   d5398:	f001 fa4e 	bl	d6838 <_Z6randomii>
   d539c:	60e0      	str	r0, [r4, #12]
        BPM = 60000/IBI;        
   d539e:	68e2      	ldr	r2, [r4, #12]
   d53a0:	f64e 2360 	movw	r3, #60000	; 0xea60
   d53a4:	fbb3 f3f2 	udiv	r3, r3, r2
   d53a8:	e7e8      	b.n	d537c <_ZN21PulseSensorAmpedClass6updateEv+0x20>
  signalFilter[filterIndex] =  HAL_ADC_Read(analogPin);
   d53aa:	4d5b      	ldr	r5, [pc, #364]	; (d5518 <_ZN21PulseSensorAmpedClass6updateEv+0x1bc>)
    hal_adc_set_sample_time(sample_time);
}

inline int32_t __attribute__((deprecated("Use hal_adc_read() instead"), always_inline))
HAL_ADC_Read(pin_t pin) {
    return hal_adc_read(pin);
   d53ac:	8800      	ldrh	r0, [r0, #0]
   d53ae:	f000 fb01 	bl	d59b4 <hal_adc_read>
   d53b2:	4a5a      	ldr	r2, [pc, #360]	; (d551c <_ZN21PulseSensorAmpedClass6updateEv+0x1c0>)
   d53b4:	682b      	ldr	r3, [r5, #0]
  sampleCounter += 2;                          // keep track of the time in mS with this variable
   d53b6:	6926      	ldr	r6, [r4, #16]
  signalFilter[filterIndex] =  HAL_ADC_Read(analogPin);
   d53b8:	f842 0023 	str.w	r0, [r2, r3, lsl #2]
  filterIndex = (filterIndex+1)%5;
   d53bc:	2105      	movs	r1, #5
   d53be:	3301      	adds	r3, #1
   d53c0:	fbb3 f0f1 	udiv	r0, r3, r1
   d53c4:	eb00 0080 	add.w	r0, r0, r0, lsl #2
   d53c8:	1a1b      	subs	r3, r3, r0
   d53ca:	602b      	str	r3, [r5, #0]
  int signal = (signalFilter[0] + signalFilter[1] + signalFilter[2] + signalFilter[3] + signalFilter[4])/5;
   d53cc:	e9d2 3500 	ldrd	r3, r5, [r2]
   d53d0:	441d      	add	r5, r3
   d53d2:	6893      	ldr	r3, [r2, #8]
   d53d4:	441d      	add	r5, r3
   d53d6:	68d3      	ldr	r3, [r2, #12]
   d53d8:	441d      	add	r5, r3
   d53da:	6913      	ldr	r3, [r2, #16]
  if(signal < thresh) {         // Update trough based on threshold
   d53dc:	6a22      	ldr	r2, [r4, #32]
  int signal = (signalFilter[0] + signalFilter[1] + signalFilter[2] + signalFilter[3] + signalFilter[4])/5;
   d53de:	441d      	add	r5, r3
  unsigned elapsedTime = sampleCounter - lastBeatTime;  // Time passed since the last beat
   d53e0:	6963      	ldr	r3, [r4, #20]
  int signal = (signalFilter[0] + signalFilter[1] + signalFilter[2] + signalFilter[3] + signalFilter[4])/5;
   d53e2:	fbb5 f5f1 	udiv	r5, r5, r1
  sampleCounter += 2;                          // keep track of the time in mS with this variable
   d53e6:	3602      	adds	r6, #2
  if(signal < thresh) {         // Update trough based on threshold
   d53e8:	4295      	cmp	r5, r2
  sampleCounter += 2;                          // keep track of the time in mS with this variable
   d53ea:	6126      	str	r6, [r4, #16]
  unsigned elapsedTime = sampleCounter - lastBeatTime;  // Time passed since the last beat
   d53ec:	eba6 0603 	sub.w	r6, r6, r3
  boolean beyondDicrotic = elapsedTime > (IBI/5)*3;    // Has sufficient time passed to avoid the dichrotic noise?
   d53f0:	68e3      	ldr	r3, [r4, #12]
   d53f2:	fbb3 f3f1 	udiv	r3, r3, r1
   d53f6:	eb03 0343 	add.w	r3, r3, r3, lsl #1
  if(signal < thresh) {         // Update trough based on threshold
   d53fa:	da23      	bge.n	d5444 <_ZN21PulseSensorAmpedClass6updateEv+0xe8>
    if(beyondDicrotic) {       // avoid dicrotic noise when finding trough
   d53fc:	429e      	cmp	r6, r3
   d53fe:	d904      	bls.n	d540a <_ZN21PulseSensorAmpedClass6updateEv+0xae>
      trough = min(signal, trough);
   d5400:	69e3      	ldr	r3, [r4, #28]
   d5402:	42ab      	cmp	r3, r5
   d5404:	bfd4      	ite	le
   d5406:	61e3      	strle	r3, [r4, #28]
   d5408:	61e5      	strgt	r5, [r4, #28]
  if(signal < thresh && pulse == true) {      // when the values are going down the beat is over
   d540a:	f894 3028 	ldrb.w	r3, [r4, #40]	; 0x28
   d540e:	2b00      	cmp	r3, #0
   d5410:	d05f      	beq.n	d54d2 <_ZN21PulseSensorAmpedClass6updateEv+0x176>
    amplitude = peak - trough;                // Compute the amplitude of the last sample
   d5412:	e9d4 3206 	ldrd	r3, r2, [r4, #24]
   d5416:	1a9b      	subs	r3, r3, r2
    thresh = amplitude/2 + trough;            // Use 50% of the last amplitude as new threshold
   d5418:	eb03 71d3 	add.w	r1, r3, r3, lsr #31
   d541c:	eb02 0261 	add.w	r2, r2, r1, asr #1
    trough = thresh;                          // Trough won't update until beyond threshold
   d5420:	e9c4 2206 	strd	r2, r2, [r4, #24]
    thresh = amplitude/2 + trough;            // Use 50% of the last amplitude as new threshold
   d5424:	6222      	str	r2, [r4, #32]
    if(amplitude>300)
   d5426:	f5b3 7f96 	cmp.w	r3, #300	; 0x12c
    pulse = false;                            // Update status
   d542a:	f04f 0200 	mov.w	r2, #0
    amplitude = peak - trough;                // Compute the amplitude of the last sample
   d542e:	6263      	str	r3, [r4, #36]	; 0x24
    pulse = false;                            // Update status
   d5430:	8522      	strh	r2, [r4, #40]	; 0x28
    if(amplitude>300)
   d5432:	dd02      	ble.n	d543a <_ZN21PulseSensorAmpedClass6updateEv+0xde>
      postUpdate = true;
   d5434:	2301      	movs	r3, #1
   d5436:	f884 3030 	strb.w	r3, [r4, #48]	; 0x30
  if(elapsedTime > 2500) {                 // if 2.5S elapse without a valid beat
   d543a:	f640 13c4 	movw	r3, #2500	; 0x9c4
   d543e:	429e      	cmp	r6, r3
   d5440:	d84f      	bhi.n	d54e2 <_ZN21PulseSensorAmpedClass6updateEv+0x186>
   d5442:	e7a4      	b.n	d538e <_ZN21PulseSensorAmpedClass6updateEv+0x32>
    peak = max(signal, peak);  
   d5444:	69a1      	ldr	r1, [r4, #24]
   d5446:	42a9      	cmp	r1, r5
   d5448:	bfac      	ite	ge
   d544a:	61a1      	strge	r1, [r4, #24]
   d544c:	61a5      	strlt	r5, [r4, #24]
  if(elapsedTime > 250){                         // Assume at least 250ms between beats (i.e., BPM<240); Helps avoid noise
   d544e:	2efa      	cmp	r6, #250	; 0xfa
   d5450:	d99d      	bls.n	d538e <_ZN21PulseSensorAmpedClass6updateEv+0x32>
    if((signal > thresh) && (pulse == false) && beyondDicrotic) {        
   d5452:	4295      	cmp	r5, r2
   d5454:	dd3d      	ble.n	d54d2 <_ZN21PulseSensorAmpedClass6updateEv+0x176>
   d5456:	f894 2028 	ldrb.w	r2, [r4, #40]	; 0x28
   d545a:	2a00      	cmp	r2, #0
   d545c:	d136      	bne.n	d54cc <_ZN21PulseSensorAmpedClass6updateEv+0x170>
   d545e:	429e      	cmp	r6, r3
   d5460:	d934      	bls.n	d54cc <_ZN21PulseSensorAmpedClass6updateEv+0x170>
      pulse = true;
   d5462:	2301      	movs	r3, #1
      IBI = sampleCounter - lastBeatTime;         // measure time between beats in mS (Starting from point the threshold is exceeded)
   d5464:	60e6      	str	r6, [r4, #12]
      calculateHRV(IBI);
   d5466:	68e0      	ldr	r0, [r4, #12]
      pulse = true;
   d5468:	f884 3028 	strb.w	r3, [r4, #40]	; 0x28
      calculateHRV(IBI);
   d546c:	f7ff f9e4 	bl	d4838 <_Z12calculateHRVi>
      rate[beatCount%10] = IBI;
   d5470:	4928      	ldr	r1, [pc, #160]	; (d5514 <_ZN21PulseSensorAmpedClass6updateEv+0x1b8>)
      lastBeatTime = sampleCounter;               // keep track of the start time of this beat
   d5472:	6923      	ldr	r3, [r4, #16]
   d5474:	6163      	str	r3, [r4, #20]
      rate[beatCount%10] = IBI;
   d5476:	680b      	ldr	r3, [r1, #0]
   d5478:	4f29      	ldr	r7, [pc, #164]	; (d5520 <_ZN21PulseSensorAmpedClass6updateEv+0x1c4>)
   d547a:	f8d4 c00c 	ldr.w	ip, [r4, #12]
   d547e:	200a      	movs	r0, #10
   d5480:	fbb3 f2f0 	udiv	r2, r3, r0
   d5484:	fb00 3212 	mls	r2, r0, r2, r3
      beatCount++;
   d5488:	3301      	adds	r3, #1
      if(beatCount<3) {
   d548a:	2b02      	cmp	r3, #2
      rate[beatCount%10] = IBI;
   d548c:	f847 c022 	str.w	ip, [r7, r2, lsl #2]
      beatCount++;
   d5490:	600b      	str	r3, [r1, #0]
      if(beatCount<3) {
   d5492:	f67f af7c 	bls.w	d538e <_ZN21PulseSensorAmpedClass6updateEv+0x32>
      } else if(beatCount==3) {
   d5496:	2b03      	cmp	r3, #3
        rate[0]=(rate[1]+rate[2])/2;  
   d5498:	bf01      	itttt	eq
   d549a:	e9d7 2101 	ldrdeq	r2, r1, [r7, #4]
   d549e:	1852      	addeq	r2, r2, r1
   d54a0:	0852      	lsreq	r2, r2, #1
   d54a2:	603a      	streq	r2, [r7, #0]
      int maxIndex = min(beatCount, 10);      
   d54a4:	481e      	ldr	r0, [pc, #120]	; (d5520 <_ZN21PulseSensorAmpedClass6updateEv+0x1c4>)
   d54a6:	2b0a      	cmp	r3, #10
      word runningTotal = 0;
   d54a8:	f04f 0200 	mov.w	r2, #0
      int maxIndex = min(beatCount, 10);      
   d54ac:	bf28      	it	cs
   d54ae:	230a      	movcs	r3, #10
      for(int i=0; i<maxIndex; i++) {
   d54b0:	4611      	mov	r1, r2
        runningTotal += rate[i];              
   d54b2:	f850 7b04 	ldr.w	r7, [r0], #4
      for(int i=0; i<maxIndex; i++) {
   d54b6:	3101      	adds	r1, #1
   d54b8:	428b      	cmp	r3, r1
        runningTotal += rate[i];              
   d54ba:	443a      	add	r2, r7
      for(int i=0; i<maxIndex; i++) {
   d54bc:	dcf9      	bgt.n	d54b2 <_ZN21PulseSensorAmpedClass6updateEv+0x156>
      runningTotal /= maxIndex;               // average the last 10 IBI values 
   d54be:	fbb2 f3f3 	udiv	r3, r2, r3
      BPM = 60000/runningTotal;               // how many beats can fit into a minute? that's BPM!
   d54c2:	f64e 2260 	movw	r2, #60000	; 0xea60
   d54c6:	fbb2 f3f3 	udiv	r3, r2, r3
   d54ca:	60a3      	str	r3, [r4, #8]
  if(signal < thresh && pulse == true) {      // when the values are going down the beat is over
   d54cc:	6a23      	ldr	r3, [r4, #32]
   d54ce:	429d      	cmp	r5, r3
   d54d0:	db9b      	blt.n	d540a <_ZN21PulseSensorAmpedClass6updateEv+0xae>
  if(elapsedTime > 2500) {                 // if 2.5S elapse without a valid beat
   d54d2:	f640 13c4 	movw	r3, #2500	; 0x9c4
   d54d6:	429e      	cmp	r6, r3
   d54d8:	f67f af59 	bls.w	d538e <_ZN21PulseSensorAmpedClass6updateEv+0x32>
    if(!pulseLost) {                       // If it was good, notify the loss
   d54dc:	f894 3029 	ldrb.w	r3, [r4, #41]	; 0x29
   d54e0:	b92b      	cbnz	r3, d54ee <_ZN21PulseSensorAmpedClass6updateEv+0x192>
      BPM = -1;
   d54e2:	f04f 33ff 	mov.w	r3, #4294967295	; 0xffffffff
   d54e6:	60a3      	str	r3, [r4, #8]
      postUpdate = true;
   d54e8:	2301      	movs	r3, #1
   d54ea:	f884 3030 	strb.w	r3, [r4, #48]	; 0x30
    thresh = trough + (peak-trough)/3;  // set thresh default
   d54ee:	e9d4 3206 	ldrd	r3, r2, [r4, #24]
   d54f2:	2103      	movs	r1, #3
   d54f4:	1a9b      	subs	r3, r3, r2
   d54f6:	fb93 f3f1 	sdiv	r3, r3, r1
   d54fa:	4413      	add	r3, r2
   d54fc:	6223      	str	r3, [r4, #32]
    lastBeatTime = sampleCounter;    // bring the lastBeatTime up to date        
   d54fe:	6923      	ldr	r3, [r4, #16]
   d5500:	6163      	str	r3, [r4, #20]
    pulseLost = true;
   d5502:	2301      	movs	r3, #1
   d5504:	f884 3029 	strb.w	r3, [r4, #41]	; 0x29
    beatCount = 0;
   d5508:	4b02      	ldr	r3, [pc, #8]	; (d5514 <_ZN21PulseSensorAmpedClass6updateEv+0x1b8>)
   d550a:	2200      	movs	r2, #0
    trough = signal;                 // set T default
   d550c:	e9c4 5506 	strd	r5, r5, [r4, #24]
    beatCount = 0;
   d5510:	601a      	str	r2, [r3, #0]
   d5512:	e73c      	b.n	d538e <_ZN21PulseSensorAmpedClass6updateEv+0x32>
   d5514:	2003e604 	.word	0x2003e604
   d5518:	2003e5c4 	.word	0x2003e5c4
   d551c:	2003e5c8 	.word	0x2003e5c8
   d5520:	2003e5dc 	.word	0x2003e5dc

000d5524 <_Z9timer_isr17nrf_timer_event_tPv>:
    PulseSensorAmped.update();
   d5524:	4801      	ldr	r0, [pc, #4]	; (d552c <_Z9timer_isr17nrf_timer_event_tPv+0x8>)
   d5526:	f7ff bf19 	b.w	d535c <_ZN21PulseSensorAmpedClass6updateEv>
   d552a:	bf00      	nop
   d552c:	2003e590 	.word	0x2003e590

000d5530 <_ZN21PulseSensorAmpedClass7processEv>:

void PulseSensorAmpedClass::process(void) {
   d5530:	b510      	push	{r4, lr}
  // Put updates into foreground
  if(postUpdate) {
   d5532:	f890 3030 	ldrb.w	r3, [r0, #48]	; 0x30
void PulseSensorAmpedClass::process(void) {
   d5536:	4604      	mov	r4, r0
  if(postUpdate) {
   d5538:	b14b      	cbz	r3, d554e <_ZN21PulseSensorAmpedClass7processEv+0x1e>
    if(BPM>=0)
   d553a:	6883      	ldr	r3, [r0, #8]
   d553c:	2b00      	cmp	r3, #0
   d553e:	db07      	blt.n	d5550 <_ZN21PulseSensorAmpedClass7processEv+0x20>
      PulseSensorAmped_data(BPM, IBI);
   d5540:	6880      	ldr	r0, [r0, #8]
   d5542:	68e1      	ldr	r1, [r4, #12]
   d5544:	f7ff f970 	bl	d4828 <_Z21PulseSensorAmped_dataii>
    else 
      PulseSensorAmped_lost();	         
    postUpdate = false;
   d5548:	2300      	movs	r3, #0
   d554a:	f884 3030 	strb.w	r3, [r4, #48]	; 0x30
  } 
}
   d554e:	bd10      	pop	{r4, pc}
      PulseSensorAmped_lost();	         
   d5550:	f7ff f9da 	bl	d4908 <_Z21PulseSensorAmped_lostv>
   d5554:	e7f8      	b.n	d5548 <_ZN21PulseSensorAmpedClass7processEv+0x18>
	...

000d5558 <_GLOBAL__sub_I_PulseSensorAmped>:
  analogPin = -1;
   d5558:	4b03      	ldr	r3, [pc, #12]	; (d5568 <_GLOBAL__sub_I_PulseSensorAmped+0x10>)
   d555a:	f04f 32ff 	mov.w	r2, #4294967295	; 0xffffffff
   d555e:	601a      	str	r2, [r3, #0]
  fakeData = false;
   d5560:	2200      	movs	r2, #0
   d5562:	711a      	strb	r2, [r3, #4]
}
   d5564:	4770      	bx	lr
   d5566:	bf00      	nop
   d5568:	2003e590 	.word	0x2003e590

000d556c <_Z19ICM_20948_write_I2ChPhmPv>:
    return ICM_20948_Stat_Ok;
}

// serif functions for the I2C and SPI classes
ICM_20948_Status_e ICM_20948_write_I2C(uint8_t reg, uint8_t *data, uint32_t len, void *user)
{
   d556c:	b573      	push	{r0, r1, r4, r5, r6, lr}
   d556e:	4606      	mov	r6, r0
   d5570:	460d      	mov	r5, r1
   d5572:	9201      	str	r2, [sp, #4]
    if (user == NULL)
   d5574:	b1bb      	cbz	r3, d55a6 <_Z19ICM_20948_write_I2ChPhmPv+0x3a>
    {
        return ICM_20948_Stat_ParamErr;
    }
    TwoWire *_i2c = ((ICM_20948_I2C *)user)->_i2c; // Cast user field to ICM_20948_I2C type and extract the I2C interface pointer
   d5576:	6a5c      	ldr	r4, [r3, #36]	; 0x24
    uint8_t addr = ((ICM_20948_I2C *)user)->_addr;
    if (_i2c == NULL)
   d5578:	b1ac      	cbz	r4, d55a6 <_Z19ICM_20948_write_I2ChPhmPv+0x3a>
    {
        return ICM_20948_Stat_ParamErr;
    }

    _i2c->beginTransmission(addr);
   d557a:	f893 1028 	ldrb.w	r1, [r3, #40]	; 0x28
   d557e:	4620      	mov	r0, r4
   d5580:	f000 ffb2 	bl	d64e8 <_ZN7TwoWire17beginTransmissionEh>
    _i2c->write(reg);
   d5584:	6823      	ldr	r3, [r4, #0]
   d5586:	4631      	mov	r1, r6
   d5588:	689b      	ldr	r3, [r3, #8]
   d558a:	4620      	mov	r0, r4
   d558c:	4798      	blx	r3
    _i2c->write(data, len);
   d558e:	6823      	ldr	r3, [r4, #0]
   d5590:	9a01      	ldr	r2, [sp, #4]
   d5592:	68db      	ldr	r3, [r3, #12]
   d5594:	4629      	mov	r1, r5
   d5596:	4620      	mov	r0, r4
   d5598:	4798      	blx	r3
    _i2c->endTransmission();
   d559a:	4620      	mov	r0, r4
   d559c:	f000 ffac 	bl	d64f8 <_ZN7TwoWire15endTransmissionEv>
    //     delay(10);
    // }

    // delay(10);

    return ICM_20948_Stat_Ok;
   d55a0:	2000      	movs	r0, #0
}
   d55a2:	b002      	add	sp, #8
   d55a4:	bd70      	pop	{r4, r5, r6, pc}
        return ICM_20948_Stat_ParamErr;
   d55a6:	2003      	movs	r0, #3
   d55a8:	e7fb      	b.n	d55a2 <_Z19ICM_20948_write_I2ChPhmPv+0x36>

000d55aa <_Z18ICM_20948_read_I2ChPhmPv>:

ICM_20948_Status_e ICM_20948_read_I2C(uint8_t reg, uint8_t *buff, uint32_t len, void *user)
{
   d55aa:	e92d 41f0 	stmdb	sp!, {r4, r5, r6, r7, r8, lr}
   d55ae:	4607      	mov	r7, r0
   d55b0:	460e      	mov	r6, r1
   d55b2:	4615      	mov	r5, r2
    if (user == NULL)
   d55b4:	b32b      	cbz	r3, d5602 <_Z18ICM_20948_read_I2ChPhmPv+0x58>
    {
        return ICM_20948_Stat_ParamErr;
    }
    TwoWire *_i2c = ((ICM_20948_I2C *)user)->_i2c;
   d55b6:	6a5c      	ldr	r4, [r3, #36]	; 0x24
    uint8_t addr = ((ICM_20948_I2C *)user)->_addr;
    if (_i2c == NULL)
   d55b8:	b31c      	cbz	r4, d5602 <_Z18ICM_20948_read_I2ChPhmPv+0x58>
    uint8_t addr = ((ICM_20948_I2C *)user)->_addr;
   d55ba:	f893 8028 	ldrb.w	r8, [r3, #40]	; 0x28
    {
        return ICM_20948_Stat_ParamErr;
    }

    _i2c->beginTransmission(addr);
   d55be:	4620      	mov	r0, r4
   d55c0:	4641      	mov	r1, r8
   d55c2:	f000 ff91 	bl	d64e8 <_ZN7TwoWire17beginTransmissionEh>
    _i2c->write(reg);
   d55c6:	6823      	ldr	r3, [r4, #0]
   d55c8:	4639      	mov	r1, r7
   d55ca:	689b      	ldr	r3, [r3, #8]
   d55cc:	4620      	mov	r0, r4
   d55ce:	4798      	blx	r3
    _i2c->endTransmission(false); // Send repeated start
   d55d0:	2100      	movs	r1, #0
   d55d2:	4620      	mov	r0, r4
   d55d4:	f000 ff8c 	bl	d64f0 <_ZN7TwoWire15endTransmissionEh>

    uint32_t offset = 0;
    uint32_t num_received = _i2c->requestFrom(addr, len);
   d55d8:	462a      	mov	r2, r5
   d55da:	4641      	mov	r1, r8
   d55dc:	4620      	mov	r0, r4
   d55de:	f000 ff80 	bl	d64e2 <_ZN7TwoWire11requestFromEhj>
    //     }else{
    //         break;
    //     }
    // }

    if (num_received == len)
   d55e2:	4285      	cmp	r5, r0
   d55e4:	d110      	bne.n	d5608 <_Z18ICM_20948_read_I2ChPhmPv+0x5e>
   d55e6:	2700      	movs	r7, #0
    {
        for (uint8_t i = 0; i < len; i++)
   d55e8:	fa5f f887 	uxtb.w	r8, r7
   d55ec:	4545      	cmp	r5, r8
   d55ee:	f107 0701 	add.w	r7, r7, #1
   d55f2:	d90b      	bls.n	d560c <_Z18ICM_20948_read_I2ChPhmPv+0x62>
        {
            buff[i] = _i2c->read();
   d55f4:	6823      	ldr	r3, [r4, #0]
   d55f6:	4620      	mov	r0, r4
   d55f8:	695b      	ldr	r3, [r3, #20]
   d55fa:	4798      	blx	r3
   d55fc:	f806 0008 	strb.w	r0, [r6, r8]
        for (uint8_t i = 0; i < len; i++)
   d5600:	e7f2      	b.n	d55e8 <_Z18ICM_20948_read_I2ChPhmPv+0x3e>
        return ICM_20948_Stat_ParamErr;
   d5602:	2003      	movs	r0, #3
    if (len != 0)
    {
        return ICM_20948_Stat_NoData;
    }
    return ICM_20948_Stat_Ok;
}
   d5604:	e8bd 81f0 	ldmia.w	sp!, {r4, r5, r6, r7, r8, pc}
        return ICM_20948_Stat_NoData;
   d5608:	2006      	movs	r0, #6
   d560a:	e7fb      	b.n	d5604 <_Z18ICM_20948_read_I2ChPhmPv+0x5a>
        return ICM_20948_Stat_Ok;
   d560c:	2000      	movs	r0, #0
   d560e:	e7f9      	b.n	d5604 <_Z18ICM_20948_read_I2ChPhmPv+0x5a>

000d5610 <_ZN9ICM_209487getAGMTEv>:
{
   d5610:	b570      	push	{r4, r5, r6, lr}
   d5612:	460c      	mov	r4, r1
    status = ICM_20948_get_agmt(&_device, &agmt);
   d5614:	1d0d      	adds	r5, r1, #4
{
   d5616:	4606      	mov	r6, r0
    status = ICM_20948_get_agmt(&_device, &agmt);
   d5618:	4629      	mov	r1, r5
   d561a:	4620      	mov	r0, r4
   d561c:	f7ff f86b 	bl	d46f6 <ICM_20948_get_agmt>
   d5620:	f804 0f1c 	strb.w	r0, [r4, #28]!
    return agmt;
   d5624:	462b      	mov	r3, r5
   d5626:	4635      	mov	r5, r6
   d5628:	461a      	mov	r2, r3
   d562a:	ca03      	ldmia	r2!, {r0, r1}
   d562c:	42a2      	cmp	r2, r4
   d562e:	6028      	str	r0, [r5, #0]
   d5630:	6069      	str	r1, [r5, #4]
   d5632:	4613      	mov	r3, r2
   d5634:	f105 0508 	add.w	r5, r5, #8
   d5638:	d1f6      	bne.n	d5628 <_ZN9ICM_209487getAGMTEv+0x18>
}
   d563a:	4630      	mov	r0, r6
   d563c:	bd70      	pop	{r4, r5, r6, pc}
	...

000d5640 <_ZN9ICM_2094812statusStringE18ICM_20948_Status_e>:
    if (stat == ICM_20948_Stat_NUM)
   d5640:	2908      	cmp	r1, #8
        val = status;
   d5642:	bf08      	it	eq
   d5644:	7f01      	ldrbeq	r1, [r0, #28]
    switch (val)
   d5646:	2907      	cmp	r1, #7
   d5648:	bf9a      	itte	ls
   d564a:	4b02      	ldrls	r3, [pc, #8]	; (d5654 <_ZN9ICM_2094812statusStringE18ICM_20948_Status_e+0x14>)
   d564c:	f853 0021 	ldrls.w	r0, [r3, r1, lsl #2]
{
   d5650:	4801      	ldrhi	r0, [pc, #4]	; (d5658 <_ZN9ICM_2094812statusStringE18ICM_20948_Status_e+0x18>)
}
   d5652:	4770      	bx	lr
   d5654:	000d9508 	.word	0x000d9508
   d5658:	000d947f 	.word	0x000d947f

000d565c <_ZN9ICM_209487swResetEv>:
{
   d565c:	b510      	push	{r4, lr}
   d565e:	4604      	mov	r4, r0
    status = ICM_20948_sw_reset(&_device);
   d5660:	f7fe fdf9 	bl	d4256 <ICM_20948_sw_reset>
   d5664:	7720      	strb	r0, [r4, #28]
}
   d5666:	bd10      	pop	{r4, pc}

000d5668 <_ZN9ICM_209485sleepEb>:
{
   d5668:	b510      	push	{r4, lr}
   d566a:	4604      	mov	r4, r0
    status = ICM_20948_sleep(&_device, on);
   d566c:	f7fe fe0d 	bl	d428a <ICM_20948_sleep>
   d5670:	7720      	strb	r0, [r4, #28]
}
   d5672:	bd10      	pop	{r4, pc}

000d5674 <_ZN9ICM_209488lowPowerEb>:
{
   d5674:	b510      	push	{r4, lr}
   d5676:	4604      	mov	r4, r0
    status = ICM_20948_low_power(&_device, on);
   d5678:	f7fe fe22 	bl	d42c0 <ICM_20948_low_power>
   d567c:	7720      	strb	r0, [r4, #28]
}
   d567e:	bd10      	pop	{r4, pc}

000d5680 <_ZN9ICM_209487checkIDEv>:
{
   d5680:	b510      	push	{r4, lr}
   d5682:	4604      	mov	r4, r0
    status = ICM_20948_check_id(&_device);
   d5684:	f7fe fe48 	bl	d4318 <ICM_20948_check_id>
   d5688:	7720      	strb	r0, [r4, #28]
}
   d568a:	bd10      	pop	{r4, pc}

000d568c <_ZN9ICM_2094813setSampleModeEhh>:
{
   d568c:	b510      	push	{r4, lr}
   d568e:	4604      	mov	r4, r0
    status = ICM_20948_set_sample_mode(&_device, (ICM_20948_InternalSensorID_bm)sensor_id_bm, (ICM_20948_LP_CONFIG_CYCLE_e)lp_config_cycle_mode);
   d5690:	f7fe fe53 	bl	d433a <ICM_20948_set_sample_mode>
   d5694:	7720      	strb	r0, [r4, #28]
}
   d5696:	bd10      	pop	{r4, pc}

000d5698 <_ZN9ICM_2094812setFullScaleEh15ICM_20948_fss_t>:
{
   d5698:	b510      	push	{r4, lr}
   d569a:	4604      	mov	r4, r0
    status = ICM_20948_set_full_scale(&_device, (ICM_20948_InternalSensorID_bm)sensor_id_bm, fss);
   d569c:	f7fe fe81 	bl	d43a2 <ICM_20948_set_full_scale>
   d56a0:	7720      	strb	r0, [r4, #28]
}
   d56a2:	bd10      	pop	{r4, pc}

000d56a4 <_ZN9ICM_2094810setDLPFcfgEh18ICM_20948_dlpcfg_t>:
{
   d56a4:	b513      	push	{r0, r1, r4, lr}
   d56a6:	f8ad 2004 	strh.w	r2, [sp, #4]
    status = ICM_20948_set_dlpf_cfg(&_device, (ICM_20948_InternalSensorID_bm)sensor_id_bm, cfg);
   d56aa:	9a01      	ldr	r2, [sp, #4]
{
   d56ac:	4604      	mov	r4, r0
    status = ICM_20948_set_dlpf_cfg(&_device, (ICM_20948_InternalSensorID_bm)sensor_id_bm, cfg);
   d56ae:	f7fe fec4 	bl	d443a <ICM_20948_set_dlpf_cfg>
   d56b2:	7720      	strb	r0, [r4, #28]
}
   d56b4:	b002      	add	sp, #8
   d56b6:	bd10      	pop	{r4, pc}

000d56b8 <_ZN9ICM_2094810enableDLPFEhb>:
{
   d56b8:	b510      	push	{r4, lr}
   d56ba:	4604      	mov	r4, r0
    status = ICM_20948_enable_dlpf(&_device, (ICM_20948_InternalSensorID_bm)sensor_id_bm, enable);
   d56bc:	f7fe ff0a 	bl	d44d4 <ICM_20948_enable_dlpf>
   d56c0:	7720      	strb	r0, [r4, #28]
}
   d56c2:	bd10      	pop	{r4, pc}

000d56c4 <_ZN9ICM_2094820i2cMasterPassthroughEb>:
{
   d56c4:	b510      	push	{r4, lr}
   d56c6:	4604      	mov	r4, r0
    status = ICM_20948_i2c_master_passthrough(&_device, passthrough);
   d56c8:	f7fe ff4e 	bl	d4568 <ICM_20948_i2c_master_passthrough>
   d56cc:	7720      	strb	r0, [r4, #28]
}
   d56ce:	bd10      	pop	{r4, pc}

000d56d0 <_ZN9ICM_2094815i2cMasterEnableEb>:
{
   d56d0:	b510      	push	{r4, lr}
   d56d2:	4604      	mov	r4, r0
    status = ICM_20948_i2c_master_enable(&_device, enable);
   d56d4:	f7fe ff64 	bl	d45a0 <ICM_20948_i2c_master_enable>
   d56d8:	7720      	strb	r0, [r4, #28]
}
   d56da:	bd10      	pop	{r4, pc}

000d56dc <_ZN9ICM_2094814i2cMasterResetEv>:
{
   d56dc:	b510      	push	{r4, lr}
   d56de:	4604      	mov	r4, r0
    status = ICM_20948_i2c_master_reset(&_device);
   d56e0:	f7fe ff9a 	bl	d4618 <ICM_20948_i2c_master_reset>
   d56e4:	7720      	strb	r0, [r4, #28]
}
   d56e6:	bd10      	pop	{r4, pc}

000d56e8 <_ZN9ICM_2094823i2cMasterConfigureSlaveEhhhhbbbbb>:
{
   d56e8:	b530      	push	{r4, r5, lr}
   d56ea:	b087      	sub	sp, #28
   d56ec:	4604      	mov	r4, r0
    status = ICM_20948_i2c_master_configure_slave(&_device, slave, addr, reg, len, Rw, enable, data_only, grp, swap);
   d56ee:	f89d 503c 	ldrb.w	r5, [sp, #60]	; 0x3c
   d56f2:	9505      	str	r5, [sp, #20]
   d56f4:	f89d 5038 	ldrb.w	r5, [sp, #56]	; 0x38
   d56f8:	9504      	str	r5, [sp, #16]
   d56fa:	f89d 5034 	ldrb.w	r5, [sp, #52]	; 0x34
   d56fe:	9503      	str	r5, [sp, #12]
   d5700:	f89d 5030 	ldrb.w	r5, [sp, #48]	; 0x30
   d5704:	9502      	str	r5, [sp, #8]
   d5706:	f89d 502c 	ldrb.w	r5, [sp, #44]	; 0x2c
   d570a:	9501      	str	r5, [sp, #4]
   d570c:	f89d 5028 	ldrb.w	r5, [sp, #40]	; 0x28
   d5710:	9500      	str	r5, [sp, #0]
   d5712:	f7fe ff9c 	bl	d464e <ICM_20948_i2c_master_configure_slave>
   d5716:	7720      	strb	r0, [r4, #28]
}
   d5718:	b007      	add	sp, #28
   d571a:	bd30      	pop	{r4, r5, pc}

000d571c <_ZN9ICM_2094816i2cMasterSingleWEhhh>:
{
   d571c:	b513      	push	{r0, r1, r4, lr}
   d571e:	f88d 3007 	strb.w	r3, [sp, #7]
    status = ICM_20948_i2c_master_single_w(&_device, addr, reg, &data);
   d5722:	f10d 0307 	add.w	r3, sp, #7
{
   d5726:	4604      	mov	r4, r0
    status = ICM_20948_i2c_master_single_w(&_device, addr, reg, &data);
   d5728:	f7fe fd81 	bl	d422e <ICM_20948_i2c_master_single_w>
   d572c:	7720      	strb	r0, [r4, #28]
}
   d572e:	b002      	add	sp, #8
   d5730:	bd10      	pop	{r4, pc}

000d5732 <_ZN9ICM_2094816i2cMasterSingleREhh>:
{
   d5732:	b513      	push	{r0, r1, r4, lr}
    status = ICM_20948_i2c_master_single_r(&_device, addr, reg, &data);
   d5734:	f10d 0307 	add.w	r3, sp, #7
{
   d5738:	4604      	mov	r4, r0
    status = ICM_20948_i2c_master_single_r(&_device, addr, reg, &data);
   d573a:	f7fe fd83 	bl	d4244 <ICM_20948_i2c_master_single_r>
   d573e:	7720      	strb	r0, [r4, #28]
}
   d5740:	f89d 0007 	ldrb.w	r0, [sp, #7]
   d5744:	b002      	add	sp, #8
   d5746:	bd10      	pop	{r4, pc}

000d5748 <_ZN9ICM_209487readMagE18AK09916_Reg_Addr_e>:
{
   d5748:	460a      	mov	r2, r1
    uint8_t data = i2cMasterSingleR(MAG_AK09916_I2C_ADDR, reg);
   d574a:	210c      	movs	r1, #12
   d574c:	f7ff bff1 	b.w	d5732 <_ZN9ICM_2094816i2cMasterSingleREhh>

000d5750 <_ZN9ICM_209488writeMagE18AK09916_Reg_Addr_ePh>:
{
   d5750:	b510      	push	{r4, lr}
    status = i2cMasterSingleW(MAG_AK09916_I2C_ADDR, reg, *pdata);
   d5752:	7813      	ldrb	r3, [r2, #0]
   d5754:	460a      	mov	r2, r1
   d5756:	210c      	movs	r1, #12
{
   d5758:	4604      	mov	r4, r0
    status = i2cMasterSingleW(MAG_AK09916_I2C_ADDR, reg, *pdata);
   d575a:	f7ff ffdf 	bl	d571c <_ZN9ICM_2094816i2cMasterSingleWEhhh>
   d575e:	7720      	strb	r0, [r4, #28]
}
   d5760:	bd10      	pop	{r4, pc}
	...

000d5764 <_ZN13ICM_20948_I2CC1Ev>:
ICM_20948_I2C::ICM_20948_I2C()
   d5764:	4b01      	ldr	r3, [pc, #4]	; (d576c <_ZN13ICM_20948_I2CC1Ev+0x8>)
   d5766:	6003      	str	r3, [r0, #0]
}
   d5768:	4770      	bx	lr
   d576a:	bf00      	nop
   d576c:	000d9530 	.word	0x000d9530

000d5770 <_ZN9ICM_209489magWhoIAmEv>:
{
   d5770:	b538      	push	{r3, r4, r5, lr}
    whoiam1 = readMag(AK09916_REG_WIA1);
   d5772:	2100      	movs	r1, #0
{
   d5774:	4604      	mov	r4, r0
    whoiam1 = readMag(AK09916_REG_WIA1);
   d5776:	f7ff ffe7 	bl	d5748 <_ZN9ICM_209487readMagE18AK09916_Reg_Addr_e>
    whoiam2 = readMag(AK09916_REG_WIA2);
   d577a:	2101      	movs	r1, #1
    whoiam1 = readMag(AK09916_REG_WIA1);
   d577c:	4605      	mov	r5, r0
    whoiam2 = readMag(AK09916_REG_WIA2);
   d577e:	4620      	mov	r0, r4
   d5780:	f7ff ffe2 	bl	d5748 <_ZN9ICM_209487readMagE18AK09916_Reg_Addr_e>
    if ((whoiam1 == (MAG_AK09916_WHO_AM_I >> 8)) && (whoiam2 == (MAG_AK09916_WHO_AM_I & 0xFF)))
   d5784:	2d48      	cmp	r5, #72	; 0x48
   d5786:	d104      	bne.n	d5792 <_ZN9ICM_209489magWhoIAmEv+0x22>
   d5788:	2809      	cmp	r0, #9
   d578a:	d102      	bne.n	d5792 <_ZN9ICM_209489magWhoIAmEv+0x22>
    status = retval;
   d578c:	2000      	movs	r0, #0
    status = retval;
   d578e:	7720      	strb	r0, [r4, #28]
}
   d5790:	bd38      	pop	{r3, r4, r5, pc}
    status = retval;
   d5792:	2004      	movs	r0, #4
   d5794:	e7fb      	b.n	d578e <_ZN9ICM_209489magWhoIAmEv+0x1e>

000d5796 <_ZN9ICM_2094819startupMagnetometerEv>:
{
   d5796:	b530      	push	{r4, r5, lr}
    i2cMasterPassthrough(false); //Do not connect the SDA/SCL pins to AUX_DA/AUX_CL
   d5798:	2100      	movs	r1, #0
{
   d579a:	b089      	sub	sp, #36	; 0x24
   d579c:	4604      	mov	r4, r0
    i2cMasterPassthrough(false); //Do not connect the SDA/SCL pins to AUX_DA/AUX_CL
   d579e:	f7ff ff91 	bl	d56c4 <_ZN9ICM_2094820i2cMasterPassthroughEb>
    i2cMasterEnable(true);
   d57a2:	2101      	movs	r1, #1
   d57a4:	4620      	mov	r0, r4
   d57a6:	f7ff ff93 	bl	d56d0 <_ZN9ICM_2094815i2cMasterEnableEb>
   d57aa:	2505      	movs	r5, #5
        retval = magWhoIAm();
   d57ac:	4620      	mov	r0, r4
   d57ae:	f7ff ffdf 	bl	d5770 <_ZN9ICM_209489magWhoIAmEv>
        if (retval == ICM_20948_Stat_Ok)
   d57b2:	b158      	cbz	r0, d57cc <_ZN9ICM_2094819startupMagnetometerEv+0x36>
        i2cMasterReset(); //Otherwise, reset the master I2C and try again
   d57b4:	4620      	mov	r0, r4
   d57b6:	3d01      	subs	r5, #1
   d57b8:	f7ff ff90 	bl	d56dc <_ZN9ICM_2094814i2cMasterResetEv>
    while (tries < maxTries)
   d57bc:	f015 05ff 	ands.w	r5, r5, #255	; 0xff
   d57c0:	d1f4      	bne.n	d57ac <_ZN9ICM_2094819startupMagnetometerEv+0x16>
        status = ICM_20948_Stat_WrongID;
   d57c2:	2004      	movs	r0, #4
   d57c4:	e01f      	b.n	d5806 <_ZN9ICM_2094819startupMagnetometerEv+0x70>
    return status;
   d57c6:	7f20      	ldrb	r0, [r4, #28]
}
   d57c8:	b009      	add	sp, #36	; 0x24
   d57ca:	bd30      	pop	{r4, r5, pc}
    reg.MODE = AK09916_mode_cont_100hz;
   d57cc:	f89d 301c 	ldrb.w	r3, [sp, #28]
   d57d0:	2208      	movs	r2, #8
   d57d2:	f362 0304 	bfi	r3, r2, #0, #5
    retval = writeMag(AK09916_REG_CNTL2, (uint8_t *)&reg);
   d57d6:	2131      	movs	r1, #49	; 0x31
   d57d8:	aa07      	add	r2, sp, #28
   d57da:	4620      	mov	r0, r4
    reg.MODE = AK09916_mode_cont_100hz;
   d57dc:	f88d 301c 	strb.w	r3, [sp, #28]
    retval = writeMag(AK09916_REG_CNTL2, (uint8_t *)&reg);
   d57e0:	f7ff ffb6 	bl	d5750 <_ZN9ICM_209488writeMagE18AK09916_Reg_Addr_ePh>
    if (retval != ICM_20948_Stat_Ok)
   d57e4:	b978      	cbnz	r0, d5806 <_ZN9ICM_2094819startupMagnetometerEv+0x70>
    retval = i2cMasterConfigureSlave(0, MAG_AK09916_I2C_ADDR, AK09916_REG_ST1, 9, true, true, false, false, false);
   d57e6:	2301      	movs	r3, #1
   d57e8:	e9cd 3301 	strd	r3, r3, [sp, #4]
   d57ec:	2309      	movs	r3, #9
   d57ee:	e9cd 0004 	strd	r0, r0, [sp, #16]
   d57f2:	9003      	str	r0, [sp, #12]
   d57f4:	9300      	str	r3, [sp, #0]
   d57f6:	4601      	mov	r1, r0
   d57f8:	2310      	movs	r3, #16
   d57fa:	220c      	movs	r2, #12
   d57fc:	4620      	mov	r0, r4
   d57fe:	f7ff ff73 	bl	d56e8 <_ZN9ICM_2094823i2cMasterConfigureSlaveEhhhhbbbbb>
    if (retval != ICM_20948_Stat_Ok)
   d5802:	2800      	cmp	r0, #0
   d5804:	d0df      	beq.n	d57c6 <_ZN9ICM_2094819startupMagnetometerEv+0x30>
        status = ICM_20948_Stat_WrongID;
   d5806:	7720      	strb	r0, [r4, #28]
        return status;
   d5808:	e7de      	b.n	d57c8 <_ZN9ICM_2094819startupMagnetometerEv+0x32>

000d580a <_ZN9ICM_2094814startupDefaultEv>:
{
   d580a:	b537      	push	{r0, r1, r2, r4, r5, lr}
   d580c:	4605      	mov	r5, r0
    retval = checkID();
   d580e:	f7ff ff37 	bl	d5680 <_ZN9ICM_209487checkIDEv>
    if (retval != ICM_20948_Stat_Ok)
   d5812:	4604      	mov	r4, r0
   d5814:	b118      	cbz	r0, d581e <_ZN9ICM_2094814startupDefaultEv+0x14>
        status = retval;
   d5816:	772c      	strb	r4, [r5, #28]
}
   d5818:	4620      	mov	r0, r4
   d581a:	b003      	add	sp, #12
   d581c:	bd30      	pop	{r4, r5, pc}
    retval = swReset();
   d581e:	4628      	mov	r0, r5
   d5820:	f7ff ff1c 	bl	d565c <_ZN9ICM_209487swResetEv>
    if (retval != ICM_20948_Stat_Ok)
   d5824:	4604      	mov	r4, r0
   d5826:	2800      	cmp	r0, #0
   d5828:	d1f5      	bne.n	d5816 <_ZN9ICM_2094814startupDefaultEv+0xc>
    delay(50);
   d582a:	2032      	movs	r0, #50	; 0x32
   d582c:	f000 fab8 	bl	d5da0 <delay>
    retval = sleep(false);
   d5830:	4621      	mov	r1, r4
   d5832:	4628      	mov	r0, r5
   d5834:	f7ff ff18 	bl	d5668 <_ZN9ICM_209485sleepEb>
    if (retval != ICM_20948_Stat_Ok)
   d5838:	4604      	mov	r4, r0
   d583a:	2800      	cmp	r0, #0
   d583c:	d1eb      	bne.n	d5816 <_ZN9ICM_2094814startupDefaultEv+0xc>
    retval = lowPower(false);
   d583e:	4601      	mov	r1, r0
   d5840:	4628      	mov	r0, r5
   d5842:	f7ff ff17 	bl	d5674 <_ZN9ICM_209488lowPowerEb>
    if (retval != ICM_20948_Stat_Ok)
   d5846:	4604      	mov	r4, r0
   d5848:	2800      	cmp	r0, #0
   d584a:	d1e4      	bne.n	d5816 <_ZN9ICM_2094814startupDefaultEv+0xc>
    retval = setSampleMode((ICM_20948_Internal_Acc | ICM_20948_Internal_Gyr), ICM_20948_Sample_Mode_Continuous); // options: ICM_20948_Sample_Mode_Continuous or ICM_20948_Sample_Mode_Cycled
   d584c:	4602      	mov	r2, r0
   d584e:	2103      	movs	r1, #3
   d5850:	4628      	mov	r0, r5
   d5852:	f7ff ff1b 	bl	d568c <_ZN9ICM_2094813setSampleModeEhh>
    if (retval != ICM_20948_Stat_Ok)
   d5856:	4604      	mov	r4, r0
   d5858:	2800      	cmp	r0, #0
   d585a:	d1dc      	bne.n	d5816 <_ZN9ICM_2094814startupDefaultEv+0xc>
    retval = setFullScale((ICM_20948_Internal_Acc | ICM_20948_Internal_Gyr), FSS);
   d585c:	f04f 0200 	mov.w	r2, #0
   d5860:	2103      	movs	r1, #3
   d5862:	4628      	mov	r0, r5
   d5864:	f7ff ff18 	bl	d5698 <_ZN9ICM_2094812setFullScaleEh15ICM_20948_fss_t>
    if (retval != ICM_20948_Stat_Ok)
   d5868:	4604      	mov	r4, r0
   d586a:	2800      	cmp	r0, #0
   d586c:	d1d3      	bne.n	d5816 <_ZN9ICM_2094814startupDefaultEv+0xc>
    dlpcfg.a = acc_d473bw_n499bw;
   d586e:	f240 7307 	movw	r3, #1799	; 0x707
   d5872:	f8ad 3004 	strh.w	r3, [sp, #4]
    retval = setDLPFcfg((ICM_20948_Internal_Acc | ICM_20948_Internal_Gyr), dlpcfg);
   d5876:	9a01      	ldr	r2, [sp, #4]
   d5878:	2103      	movs	r1, #3
   d587a:	4628      	mov	r0, r5
   d587c:	f7ff ff12 	bl	d56a4 <_ZN9ICM_2094810setDLPFcfgEh18ICM_20948_dlpcfg_t>
    if (retval != ICM_20948_Stat_Ok)
   d5880:	4604      	mov	r4, r0
   d5882:	2800      	cmp	r0, #0
   d5884:	d1c7      	bne.n	d5816 <_ZN9ICM_2094814startupDefaultEv+0xc>
    retval = enableDLPF(ICM_20948_Internal_Acc, false);
   d5886:	4602      	mov	r2, r0
   d5888:	2101      	movs	r1, #1
   d588a:	4628      	mov	r0, r5
   d588c:	f7ff ff14 	bl	d56b8 <_ZN9ICM_2094810enableDLPFEhb>
    if (retval != ICM_20948_Stat_Ok)
   d5890:	4604      	mov	r4, r0
   d5892:	2800      	cmp	r0, #0
   d5894:	d1bf      	bne.n	d5816 <_ZN9ICM_2094814startupDefaultEv+0xc>
    retval = enableDLPF(ICM_20948_Internal_Gyr, false);
   d5896:	4602      	mov	r2, r0
   d5898:	2102      	movs	r1, #2
   d589a:	4628      	mov	r0, r5
   d589c:	f7ff ff0c 	bl	d56b8 <_ZN9ICM_2094810enableDLPFEhb>
    if (retval != ICM_20948_Stat_Ok)
   d58a0:	4604      	mov	r4, r0
   d58a2:	2800      	cmp	r0, #0
   d58a4:	d1b7      	bne.n	d5816 <_ZN9ICM_2094814startupDefaultEv+0xc>
    retval = startupMagnetometer();
   d58a6:	4628      	mov	r0, r5
   d58a8:	f7ff ff75 	bl	d5796 <_ZN9ICM_2094819startupMagnetometerEv>
    if (retval != ICM_20948_Stat_Ok)
   d58ac:	4604      	mov	r4, r0
   d58ae:	2800      	cmp	r0, #0
   d58b0:	d1b1      	bne.n	d5816 <_ZN9ICM_2094814startupDefaultEv+0xc>
    return status;
   d58b2:	7f2c      	ldrb	r4, [r5, #28]
   d58b4:	e7b0      	b.n	d5818 <_ZN9ICM_2094814startupDefaultEv+0xe>
	...

000d58b8 <_ZN13ICM_20948_I2C5beginER7TwoWirebh>:
{
   d58b8:	b510      	push	{r4, lr}
   d58ba:	4604      	mov	r4, r0
   d58bc:	4618      	mov	r0, r3
    _ad0 = ad0pin;
   d58be:	f884 3029 	strb.w	r3, [r4, #41]	; 0x29
    _i2c = &wirePort;
   d58c2:	6261      	str	r1, [r4, #36]	; 0x24
    _ad0val = ad0val;
   d58c4:	f884 202a 	strb.w	r2, [r4, #42]	; 0x2a
    if (_ad0val)
   d58c8:	b9f2      	cbnz	r2, d5908 <_ZN13ICM_20948_I2C5beginER7TwoWirebh+0x50>
    _addr = ICM_20948_I2C_ADDR_AD0;
   d58ca:	2268      	movs	r2, #104	; 0x68
    if (_ad0 != ICM_20948_ARD_UNUSED_PIN)
   d58cc:	28ff      	cmp	r0, #255	; 0xff
        _addr = ICM_20948_I2C_ADDR_AD1;
   d58ce:	f884 2028 	strb.w	r2, [r4, #40]	; 0x28
    if (_ad0 != ICM_20948_ARD_UNUSED_PIN)
   d58d2:	d002      	beq.n	d58da <_ZN13ICM_20948_I2C5beginER7TwoWirebh+0x22>
        pinMode(_ad0, OUTPUT);
   d58d4:	2101      	movs	r1, #1
   d58d6:	f001 fbaf 	bl	d7038 <pinMode>
    if (_ad0 != ICM_20948_ARD_UNUSED_PIN)
   d58da:	f894 0029 	ldrb.w	r0, [r4, #41]	; 0x29
   d58de:	28ff      	cmp	r0, #255	; 0xff
   d58e0:	d003      	beq.n	d58ea <_ZN13ICM_20948_I2C5beginER7TwoWirebh+0x32>
        digitalWrite(_ad0, _ad0val);
   d58e2:	f894 102a 	ldrb.w	r1, [r4, #42]	; 0x2a
   d58e6:	f001 fbb8 	bl	d705a <digitalWrite>
    _serif.write = ICM_20948_write_I2C;
   d58ea:	4b08      	ldr	r3, [pc, #32]	; (d590c <_ZN13ICM_20948_I2C5beginER7TwoWirebh+0x54>)
   d58ec:	62e3      	str	r3, [r4, #44]	; 0x2c
    _serif.read = ICM_20948_read_I2C;
   d58ee:	4b08      	ldr	r3, [pc, #32]	; (d5910 <_ZN13ICM_20948_I2C5beginER7TwoWirebh+0x58>)
    _device._serif = &_serif;
   d58f0:	4620      	mov	r0, r4
    _serif.user = (void *)this; // refer to yourself in the user field
   d58f2:	e9c4 340c 	strd	r3, r4, [r4, #48]	; 0x30
    _device._serif = &_serif;
   d58f6:	f104 032c 	add.w	r3, r4, #44	; 0x2c
   d58fa:	f840 3f04 	str.w	r3, [r0, #4]!
    status = startupDefault();
   d58fe:	f7ff ff84 	bl	d580a <_ZN9ICM_2094814startupDefaultEv>
   d5902:	f884 0020 	strb.w	r0, [r4, #32]
}
   d5906:	bd10      	pop	{r4, pc}
        _addr = ICM_20948_I2C_ADDR_AD1;
   d5908:	2269      	movs	r2, #105	; 0x69
   d590a:	e7df      	b.n	d58cc <_ZN13ICM_20948_I2C5beginER7TwoWirebh+0x14>
   d590c:	000d556d 	.word	0x000d556d
   d5910:	000d55ab 	.word	0x000d55ab

000d5914 <os_mutex_recursive_create>:
DYNALIB_FN(13, hal_concurrent, os_mutex_destroy, int(os_mutex_t))
DYNALIB_FN(14, hal_concurrent, os_mutex_lock, int(os_mutex_t))
DYNALIB_FN(15, hal_concurrent, os_mutex_trylock, int(os_mutex_t))
DYNALIB_FN(16, hal_concurrent, os_mutex_unlock, int(os_mutex_t))

DYNALIB_FN(17, hal_concurrent, os_mutex_recursive_create, int(os_mutex_recursive_t*))
   d5914:	b508      	push	{r3, lr}
   d5916:	4b02      	ldr	r3, [pc, #8]	; (d5920 <os_mutex_recursive_create+0xc>)
   d5918:	681b      	ldr	r3, [r3, #0]
   d591a:	6c5b      	ldr	r3, [r3, #68]	; 0x44
   d591c:	9301      	str	r3, [sp, #4]
   d591e:	bd08      	pop	{r3, pc}
   d5920:	00030248 	.word	0x00030248

000d5924 <os_mutex_recursive_destroy>:
DYNALIB_FN(18, hal_concurrent, os_mutex_recursive_destroy, int(os_mutex_recursive_t))
   d5924:	b508      	push	{r3, lr}
   d5926:	4b02      	ldr	r3, [pc, #8]	; (d5930 <os_mutex_recursive_destroy+0xc>)
   d5928:	681b      	ldr	r3, [r3, #0]
   d592a:	6c9b      	ldr	r3, [r3, #72]	; 0x48
   d592c:	9301      	str	r3, [sp, #4]
   d592e:	bd08      	pop	{r3, pc}
   d5930:	00030248 	.word	0x00030248

000d5934 <HAL_RNG_GetRandomNumber>:

DYNALIB_BEGIN(hal)

#if PLATFORM_ID > 3
DYNALIB_FN(0, hal, HAL_RNG_Configuration, void(void))
DYNALIB_FN(1, hal, HAL_RNG_GetRandomNumber, uint32_t(void))
   d5934:	b508      	push	{r3, lr}
   d5936:	4b02      	ldr	r3, [pc, #8]	; (d5940 <HAL_RNG_GetRandomNumber+0xc>)
   d5938:	681b      	ldr	r3, [r3, #0]
   d593a:	685b      	ldr	r3, [r3, #4]
   d593c:	9301      	str	r3, [sp, #4]
   d593e:	bd08      	pop	{r3, pc}
   d5940:	00030218 	.word	0x00030218

000d5944 <HAL_Delay_Microseconds>:
#else
#define BASE_IDX 0
#endif

DYNALIB_FN(BASE_IDX + 0, hal, HAL_Delay_Milliseconds, void(uint32_t))
DYNALIB_FN(BASE_IDX + 1, hal, HAL_Delay_Microseconds, void(uint32_t))
   d5944:	b508      	push	{r3, lr}
   d5946:	4b02      	ldr	r3, [pc, #8]	; (d5950 <HAL_Delay_Microseconds+0xc>)
   d5948:	681b      	ldr	r3, [r3, #0]
   d594a:	68db      	ldr	r3, [r3, #12]
   d594c:	9301      	str	r3, [sp, #4]
   d594e:	bd08      	pop	{r3, pc}
   d5950:	00030218 	.word	0x00030218

000d5954 <HAL_Timer_Get_Micro_Seconds>:
DYNALIB_FN(BASE_IDX + 2, hal, HAL_Timer_Get_Micro_Seconds, system_tick_t(void))
   d5954:	b508      	push	{r3, lr}
   d5956:	4b02      	ldr	r3, [pc, #8]	; (d5960 <HAL_Timer_Get_Micro_Seconds+0xc>)
   d5958:	681b      	ldr	r3, [r3, #0]
   d595a:	691b      	ldr	r3, [r3, #16]
   d595c:	9301      	str	r3, [sp, #4]
   d595e:	bd08      	pop	{r3, pc}
   d5960:	00030218 	.word	0x00030218

000d5964 <HAL_Timer_Get_Milli_Seconds>:
DYNALIB_FN(BASE_IDX + 3, hal, HAL_Timer_Get_Milli_Seconds, system_tick_t(void))
   d5964:	b508      	push	{r3, lr}
   d5966:	4b02      	ldr	r3, [pc, #8]	; (d5970 <HAL_Timer_Get_Milli_Seconds+0xc>)
   d5968:	681b      	ldr	r3, [r3, #0]
   d596a:	695b      	ldr	r3, [r3, #20]
   d596c:	9301      	str	r3, [sp, #4]
   d596e:	bd08      	pop	{r3, pc}
   d5970:	00030218 	.word	0x00030218

000d5974 <HAL_Validate_Pin_Function>:
// GNINRAW

DYNALIB_BEGIN(hal_gpio)

DYNALIB_FN(0, hal_gpio, HAL_Pin_Map, Hal_Pin_Info*(void))
DYNALIB_FN(1, hal_gpio, HAL_Validate_Pin_Function, PinFunction(pin_t, PinFunction))
   d5974:	b508      	push	{r3, lr}
   d5976:	4b02      	ldr	r3, [pc, #8]	; (d5980 <HAL_Validate_Pin_Function+0xc>)
   d5978:	681b      	ldr	r3, [r3, #0]
   d597a:	685b      	ldr	r3, [r3, #4]
   d597c:	9301      	str	r3, [sp, #4]
   d597e:	bd08      	pop	{r3, pc}
   d5980:	0003022c 	.word	0x0003022c

000d5984 <HAL_Pin_Mode>:
DYNALIB_FN(2, hal_gpio, HAL_Pin_Mode, void(pin_t, PinMode))
   d5984:	b508      	push	{r3, lr}
   d5986:	4b02      	ldr	r3, [pc, #8]	; (d5990 <HAL_Pin_Mode+0xc>)
   d5988:	681b      	ldr	r3, [r3, #0]
   d598a:	689b      	ldr	r3, [r3, #8]
   d598c:	9301      	str	r3, [sp, #4]
   d598e:	bd08      	pop	{r3, pc}
   d5990:	0003022c 	.word	0x0003022c

000d5994 <HAL_Get_Pin_Mode>:
DYNALIB_FN(3, hal_gpio, HAL_Get_Pin_Mode, PinMode(pin_t))
   d5994:	b508      	push	{r3, lr}
   d5996:	4b02      	ldr	r3, [pc, #8]	; (d59a0 <HAL_Get_Pin_Mode+0xc>)
   d5998:	681b      	ldr	r3, [r3, #0]
   d599a:	68db      	ldr	r3, [r3, #12]
   d599c:	9301      	str	r3, [sp, #4]
   d599e:	bd08      	pop	{r3, pc}
   d59a0:	0003022c 	.word	0x0003022c

000d59a4 <HAL_GPIO_Write>:
DYNALIB_FN(4, hal_gpio, HAL_GPIO_Write, void(pin_t, uint8_t))
   d59a4:	b508      	push	{r3, lr}
   d59a6:	4b02      	ldr	r3, [pc, #8]	; (d59b0 <HAL_GPIO_Write+0xc>)
   d59a8:	681b      	ldr	r3, [r3, #0]
   d59aa:	691b      	ldr	r3, [r3, #16]
   d59ac:	9301      	str	r3, [sp, #4]
   d59ae:	bd08      	pop	{r3, pc}
   d59b0:	0003022c 	.word	0x0003022c

000d59b4 <hal_adc_read>:
DYNALIB_FN(8, hal_gpio, HAL_Interrupts_Enable_All, void(void))
DYNALIB_FN(9, hal_gpio, HAL_Interrupts_Disable_All, void(void))

DYNALIB_FN(10, hal_gpio, HAL_DAC_Write, void(pin_t, uint16_t))
DYNALIB_FN(11, hal_gpio, hal_adc_set_sample_time, void(uint8_t))
DYNALIB_FN(12, hal_gpio, hal_adc_read, int32_t(uint16_t))
   d59b4:	b508      	push	{r3, lr}
   d59b6:	4b02      	ldr	r3, [pc, #8]	; (d59c0 <hal_adc_read+0xc>)
   d59b8:	681b      	ldr	r3, [r3, #0]
   d59ba:	6b1b      	ldr	r3, [r3, #48]	; 0x30
   d59bc:	9301      	str	r3, [sp, #4]
   d59be:	bd08      	pop	{r3, pc}
   d59c0:	0003022c 	.word	0x0003022c

000d59c4 <HAL_Set_Direct_Interrupt_Handler>:
DYNALIB_FN(31, hal_gpio, hal_pwm_write_with_frequency_ext, void(uint16_t, uint32_t, uint32_t))
DYNALIB_FN(32, hal_gpio, hal_pwm_get_frequency_ext, uint32_t(uint16_t))
DYNALIB_FN(33, hal_gpio, hal_pwm_get_analog_value_ext, uint32_t(uint16_t))
DYNALIB_FN(34, hal_gpio, hal_pwm_get_max_frequency, uint32_t(uint16_t))
DYNALIB_FN(35, hal_gpio, HAL_Interrupts_Detach_Ext, int(uint16_t, uint8_t, void*))
DYNALIB_FN(36, hal_gpio, HAL_Set_Direct_Interrupt_Handler, int(IRQn_Type irqn, HAL_Direct_Interrupt_Handler handler, uint32_t flags, void* reserved))
   d59c4:	b508      	push	{r3, lr}
   d59c6:	4b03      	ldr	r3, [pc, #12]	; (d59d4 <HAL_Set_Direct_Interrupt_Handler+0x10>)
   d59c8:	681b      	ldr	r3, [r3, #0]
   d59ca:	f8d3 3090 	ldr.w	r3, [r3, #144]	; 0x90
   d59ce:	9301      	str	r3, [sp, #4]
   d59d0:	bd08      	pop	{r3, pc}
   d59d2:	0000      	.short	0x0000
   d59d4:	0003022c 	.word	0x0003022c

000d59d8 <hal_i2c_set_speed>:
#define BASE_IDX 16 // Base index for all subsequent functions
#else
#define BASE_IDX 0
#endif

DYNALIB_FN(BASE_IDX + 0, hal_i2c, hal_i2c_set_speed, void(hal_i2c_interface_t, uint32_t, void*))
   d59d8:	b508      	push	{r3, lr}
   d59da:	4b02      	ldr	r3, [pc, #8]	; (d59e4 <hal_i2c_set_speed+0xc>)
   d59dc:	681b      	ldr	r3, [r3, #0]
   d59de:	681b      	ldr	r3, [r3, #0]
   d59e0:	9301      	str	r3, [sp, #4]
   d59e2:	bd08      	pop	{r3, pc}
   d59e4:	00030228 	.word	0x00030228

000d59e8 <hal_i2c_begin>:
DYNALIB_FN(BASE_IDX + 1, hal_i2c, hal_i2c_enable_dma_mode, void(hal_i2c_interface_t, bool, void*))
DYNALIB_FN(BASE_IDX + 2, hal_i2c, hal_i2c_stretch_clock, void(hal_i2c_interface_t, bool, void*))
DYNALIB_FN(BASE_IDX + 3, hal_i2c, hal_i2c_begin, void(hal_i2c_interface_t, hal_i2c_mode_t, uint8_t, void*))
   d59e8:	b508      	push	{r3, lr}
   d59ea:	4b02      	ldr	r3, [pc, #8]	; (d59f4 <hal_i2c_begin+0xc>)
   d59ec:	681b      	ldr	r3, [r3, #0]
   d59ee:	68db      	ldr	r3, [r3, #12]
   d59f0:	9301      	str	r3, [sp, #4]
   d59f2:	bd08      	pop	{r3, pc}
   d59f4:	00030228 	.word	0x00030228

000d59f8 <hal_i2c_begin_transmission>:
DYNALIB_FN(BASE_IDX + 4, hal_i2c, hal_i2c_end, void(hal_i2c_interface_t, void*))
DYNALIB_FN(BASE_IDX + 5, hal_i2c, hal_i2c_request, uint32_t(hal_i2c_interface_t, uint8_t, uint8_t, uint8_t, void*))
DYNALIB_FN(BASE_IDX + 6, hal_i2c, hal_i2c_begin_transmission, void(hal_i2c_interface_t, uint8_t, const hal_i2c_transmission_config_t*))
   d59f8:	b508      	push	{r3, lr}
   d59fa:	4b02      	ldr	r3, [pc, #8]	; (d5a04 <hal_i2c_begin_transmission+0xc>)
   d59fc:	681b      	ldr	r3, [r3, #0]
   d59fe:	699b      	ldr	r3, [r3, #24]
   d5a00:	9301      	str	r3, [sp, #4]
   d5a02:	bd08      	pop	{r3, pc}
   d5a04:	00030228 	.word	0x00030228

000d5a08 <hal_i2c_end_transmission>:
DYNALIB_FN(BASE_IDX + 7, hal_i2c, hal_i2c_end_transmission, uint8_t(hal_i2c_interface_t, uint8_t, void*))
   d5a08:	b508      	push	{r3, lr}
   d5a0a:	4b02      	ldr	r3, [pc, #8]	; (d5a14 <hal_i2c_end_transmission+0xc>)
   d5a0c:	681b      	ldr	r3, [r3, #0]
   d5a0e:	69db      	ldr	r3, [r3, #28]
   d5a10:	9301      	str	r3, [sp, #4]
   d5a12:	bd08      	pop	{r3, pc}
   d5a14:	00030228 	.word	0x00030228

000d5a18 <hal_i2c_write>:
DYNALIB_FN(BASE_IDX + 8, hal_i2c, hal_i2c_write, uint32_t(hal_i2c_interface_t, uint8_t, void*))
   d5a18:	b508      	push	{r3, lr}
   d5a1a:	4b02      	ldr	r3, [pc, #8]	; (d5a24 <hal_i2c_write+0xc>)
   d5a1c:	681b      	ldr	r3, [r3, #0]
   d5a1e:	6a1b      	ldr	r3, [r3, #32]
   d5a20:	9301      	str	r3, [sp, #4]
   d5a22:	bd08      	pop	{r3, pc}
   d5a24:	00030228 	.word	0x00030228

000d5a28 <hal_i2c_available>:
DYNALIB_FN(BASE_IDX + 9, hal_i2c, hal_i2c_available, int32_t(hal_i2c_interface_t, void*))
   d5a28:	b508      	push	{r3, lr}
   d5a2a:	4b02      	ldr	r3, [pc, #8]	; (d5a34 <hal_i2c_available+0xc>)
   d5a2c:	681b      	ldr	r3, [r3, #0]
   d5a2e:	6a5b      	ldr	r3, [r3, #36]	; 0x24
   d5a30:	9301      	str	r3, [sp, #4]
   d5a32:	bd08      	pop	{r3, pc}
   d5a34:	00030228 	.word	0x00030228

000d5a38 <hal_i2c_read>:
DYNALIB_FN(BASE_IDX + 10, hal_i2c, hal_i2c_read, int32_t(hal_i2c_interface_t, void*))
   d5a38:	b508      	push	{r3, lr}
   d5a3a:	4b02      	ldr	r3, [pc, #8]	; (d5a44 <hal_i2c_read+0xc>)
   d5a3c:	681b      	ldr	r3, [r3, #0]
   d5a3e:	6a9b      	ldr	r3, [r3, #40]	; 0x28
   d5a40:	9301      	str	r3, [sp, #4]
   d5a42:	bd08      	pop	{r3, pc}
   d5a44:	00030228 	.word	0x00030228

000d5a48 <hal_i2c_peek>:
DYNALIB_FN(BASE_IDX + 11, hal_i2c, hal_i2c_peek, int32_t(hal_i2c_interface_t, void*))
   d5a48:	b508      	push	{r3, lr}
   d5a4a:	4b02      	ldr	r3, [pc, #8]	; (d5a54 <hal_i2c_peek+0xc>)
   d5a4c:	681b      	ldr	r3, [r3, #0]
   d5a4e:	6adb      	ldr	r3, [r3, #44]	; 0x2c
   d5a50:	9301      	str	r3, [sp, #4]
   d5a52:	bd08      	pop	{r3, pc}
   d5a54:	00030228 	.word	0x00030228

000d5a58 <hal_i2c_flush>:
DYNALIB_FN(BASE_IDX + 12, hal_i2c, hal_i2c_flush, void(hal_i2c_interface_t, void*))
   d5a58:	b508      	push	{r3, lr}
   d5a5a:	4b02      	ldr	r3, [pc, #8]	; (d5a64 <hal_i2c_flush+0xc>)
   d5a5c:	681b      	ldr	r3, [r3, #0]
   d5a5e:	6b1b      	ldr	r3, [r3, #48]	; 0x30
   d5a60:	9301      	str	r3, [sp, #4]
   d5a62:	bd08      	pop	{r3, pc}
   d5a64:	00030228 	.word	0x00030228

000d5a68 <hal_i2c_is_enabled>:
DYNALIB_FN(BASE_IDX + 13, hal_i2c, hal_i2c_is_enabled, bool(hal_i2c_interface_t, void*))
   d5a68:	b508      	push	{r3, lr}
   d5a6a:	4b02      	ldr	r3, [pc, #8]	; (d5a74 <hal_i2c_is_enabled+0xc>)
   d5a6c:	681b      	ldr	r3, [r3, #0]
   d5a6e:	6b5b      	ldr	r3, [r3, #52]	; 0x34
   d5a70:	9301      	str	r3, [sp, #4]
   d5a72:	bd08      	pop	{r3, pc}
   d5a74:	00030228 	.word	0x00030228

000d5a78 <hal_i2c_init>:
DYNALIB_FN(BASE_IDX + 14, hal_i2c, hal_i2c_set_callback_on_received, void(hal_i2c_interface_t, void(*)(int), void*))
DYNALIB_FN(BASE_IDX + 15, hal_i2c, hal_i2c_set_callback_on_requested, void(hal_i2c_interface_t, void(*)(void), void*))
DYNALIB_FN(BASE_IDX + 16, hal_i2c, hal_i2c_init, int(hal_i2c_interface_t, const hal_i2c_config_t*))
   d5a78:	b508      	push	{r3, lr}
   d5a7a:	4b02      	ldr	r3, [pc, #8]	; (d5a84 <hal_i2c_init+0xc>)
   d5a7c:	681b      	ldr	r3, [r3, #0]
   d5a7e:	6c1b      	ldr	r3, [r3, #64]	; 0x40
   d5a80:	9301      	str	r3, [sp, #4]
   d5a82:	bd08      	pop	{r3, pc}
   d5a84:	00030228 	.word	0x00030228

000d5a88 <hal_i2c_request_ex>:
DYNALIB_FN(BASE_IDX + 17, hal_i2c, hal_i2c_reset, uint8_t(hal_i2c_interface_t, uint32_t, void*))
DYNALIB_FN(BASE_IDX + 18, hal_i2c, hal_i2c_lock, int32_t(hal_i2c_interface_t, void*))
DYNALIB_FN(BASE_IDX + 19, hal_i2c, hal_i2c_unlock, int32_t(hal_i2c_interface_t, void*))
DYNALIB_FN(BASE_IDX + 20, hal_i2c, hal_i2c_request_ex, int32_t(hal_i2c_interface_t, const hal_i2c_transmission_config_t*, void*))
   d5a88:	b508      	push	{r3, lr}
   d5a8a:	4b02      	ldr	r3, [pc, #8]	; (d5a94 <hal_i2c_request_ex+0xc>)
   d5a8c:	681b      	ldr	r3, [r3, #0]
   d5a8e:	6d1b      	ldr	r3, [r3, #80]	; 0x50
   d5a90:	9301      	str	r3, [sp, #4]
   d5a92:	bd08      	pop	{r3, pc}
   d5a94:	00030228 	.word	0x00030228

000d5a98 <inet_inet_ntop>:
DYNALIB_FN(0, hal_inet, inet_inet_addr, in_addr_t(const char*))
DYNALIB_FN(1, hal_inet, inet_inet_aton, int(const char*, struct in_addr*))
DYNALIB_FN(2, hal_inet, inet_inet_network, in_addr_t(const char*))
DYNALIB_FN(3, hal_inet, inet_inet_ntoa, char*(struct in_addr))
DYNALIB_FN(4, hal_inet, inet_inet_ntoa_r, char*(struct in_addr, char*, socklen_t))
DYNALIB_FN(5, hal_inet, inet_inet_ntop, const char*(int, const void*, char*, socklen_t))
   d5a98:	b508      	push	{r3, lr}
   d5a9a:	4b02      	ldr	r3, [pc, #8]	; (d5aa4 <inet_inet_ntop+0xc>)
   d5a9c:	681b      	ldr	r3, [r3, #0]
   d5a9e:	695b      	ldr	r3, [r3, #20]
   d5aa0:	9301      	str	r3, [sp, #4]
   d5aa2:	bd08      	pop	{r3, pc}
   d5aa4:	00030264 	.word	0x00030264

000d5aa8 <netdb_freeaddrinfo>:

DYNALIB_BEGIN(hal_netdb)

DYNALIB_FN(0, hal_netdb, netdb_gethostbyname, struct hostent*(const char*))
DYNALIB_FN(1, hal_netdb, netdb_gethostbyname_r, int(const char*, struct hostent*, char*, size_t, struct hostent**, int*))
DYNALIB_FN(2, hal_netdb, netdb_freeaddrinfo, void(struct addrinfo*))
   d5aa8:	b508      	push	{r3, lr}
   d5aaa:	4b02      	ldr	r3, [pc, #8]	; (d5ab4 <netdb_freeaddrinfo+0xc>)
   d5aac:	681b      	ldr	r3, [r3, #0]
   d5aae:	689b      	ldr	r3, [r3, #8]
   d5ab0:	9301      	str	r3, [sp, #4]
   d5ab2:	bd08      	pop	{r3, pc}
   d5ab4:	00030268 	.word	0x00030268

000d5ab8 <netdb_getaddrinfo>:
DYNALIB_FN(3, hal_netdb, netdb_getaddrinfo, int(const char*, const char*, const struct addrinfo*, struct addrinfo**))
   d5ab8:	b508      	push	{r3, lr}
   d5aba:	4b02      	ldr	r3, [pc, #8]	; (d5ac4 <netdb_getaddrinfo+0xc>)
   d5abc:	681b      	ldr	r3, [r3, #0]
   d5abe:	68db      	ldr	r3, [r3, #12]
   d5ac0:	9301      	str	r3, [sp, #4]
   d5ac2:	bd08      	pop	{r3, pc}
   d5ac4:	00030268 	.word	0x00030268

000d5ac8 <hal_spi_init>:
DYNALIB_FN(2, hal_spi, hal_spi_set_bit_order, void(hal_spi_interface_t, uint8_t))
DYNALIB_FN(3, hal_spi, hal_spi_set_data_mode, void(hal_spi_interface_t, uint8_t))
DYNALIB_FN(4, hal_spi, hal_spi_set_clock_divider, void(hal_spi_interface_t, uint8_t))
DYNALIB_FN(5, hal_spi, hal_spi_transfer, uint16_t(hal_spi_interface_t, uint16_t))
DYNALIB_FN(6, hal_spi, hal_spi_is_enabled_deprecated, bool(void))
DYNALIB_FN(7, hal_spi, hal_spi_init, void(hal_spi_interface_t))
   d5ac8:	b508      	push	{r3, lr}
   d5aca:	4b02      	ldr	r3, [pc, #8]	; (d5ad4 <hal_spi_init+0xc>)
   d5acc:	681b      	ldr	r3, [r3, #0]
   d5ace:	69db      	ldr	r3, [r3, #28]
   d5ad0:	9301      	str	r3, [sp, #4]
   d5ad2:	bd08      	pop	{r3, pc}
   d5ad4:	00030230 	.word	0x00030230

000d5ad8 <hal_spi_is_enabled>:
DYNALIB_FN(8, hal_spi, hal_spi_is_enabled, bool(hal_spi_interface_t))
   d5ad8:	b508      	push	{r3, lr}
   d5ada:	4b02      	ldr	r3, [pc, #8]	; (d5ae4 <hal_spi_is_enabled+0xc>)
   d5adc:	681b      	ldr	r3, [r3, #0]
   d5ade:	6a1b      	ldr	r3, [r3, #32]
   d5ae0:	9301      	str	r3, [sp, #4]
   d5ae2:	bd08      	pop	{r3, pc}
   d5ae4:	00030230 	.word	0x00030230

000d5ae8 <hal_usart_init>:
#define BASE_IDX 6 // Base index for all subsequent functions
#else
#define BASE_IDX 0
#endif

DYNALIB_FN(BASE_IDX + 0, hal_usart, hal_usart_init, void(hal_usart_interface_t, hal_usart_ring_buffer_t*, hal_usart_ring_buffer_t*))
   d5ae8:	b508      	push	{r3, lr}
   d5aea:	4b02      	ldr	r3, [pc, #8]	; (d5af4 <hal_usart_init+0xc>)
   d5aec:	681b      	ldr	r3, [r3, #0]
   d5aee:	681b      	ldr	r3, [r3, #0]
   d5af0:	9301      	str	r3, [sp, #4]
   d5af2:	bd08      	pop	{r3, pc}
   d5af4:	0003023c 	.word	0x0003023c

000d5af8 <hal_usart_write>:
DYNALIB_FN(BASE_IDX + 1, hal_usart, hal_usart_begin, void(hal_usart_interface_t, uint32_t))
DYNALIB_FN(BASE_IDX + 2, hal_usart, hal_usart_end, void(hal_usart_interface_t))
DYNALIB_FN(BASE_IDX + 3, hal_usart, hal_usart_write, uint32_t(hal_usart_interface_t, uint8_t))
   d5af8:	b508      	push	{r3, lr}
   d5afa:	4b02      	ldr	r3, [pc, #8]	; (d5b04 <hal_usart_write+0xc>)
   d5afc:	681b      	ldr	r3, [r3, #0]
   d5afe:	68db      	ldr	r3, [r3, #12]
   d5b00:	9301      	str	r3, [sp, #4]
   d5b02:	bd08      	pop	{r3, pc}
   d5b04:	0003023c 	.word	0x0003023c

000d5b08 <hal_usart_available>:
DYNALIB_FN(BASE_IDX + 4, hal_usart, hal_usart_available, int32_t(hal_usart_interface_t))
   d5b08:	b508      	push	{r3, lr}
   d5b0a:	4b02      	ldr	r3, [pc, #8]	; (d5b14 <hal_usart_available+0xc>)
   d5b0c:	681b      	ldr	r3, [r3, #0]
   d5b0e:	691b      	ldr	r3, [r3, #16]
   d5b10:	9301      	str	r3, [sp, #4]
   d5b12:	bd08      	pop	{r3, pc}
   d5b14:	0003023c 	.word	0x0003023c

000d5b18 <hal_usart_read>:
DYNALIB_FN(BASE_IDX + 5, hal_usart, hal_usart_read, int32_t(hal_usart_interface_t))
   d5b18:	b508      	push	{r3, lr}
   d5b1a:	4b02      	ldr	r3, [pc, #8]	; (d5b24 <hal_usart_read+0xc>)
   d5b1c:	681b      	ldr	r3, [r3, #0]
   d5b1e:	695b      	ldr	r3, [r3, #20]
   d5b20:	9301      	str	r3, [sp, #4]
   d5b22:	bd08      	pop	{r3, pc}
   d5b24:	0003023c 	.word	0x0003023c

000d5b28 <hal_usart_peek>:
DYNALIB_FN(BASE_IDX + 6, hal_usart, hal_usart_peek, int32_t(hal_usart_interface_t))
   d5b28:	b508      	push	{r3, lr}
   d5b2a:	4b02      	ldr	r3, [pc, #8]	; (d5b34 <hal_usart_peek+0xc>)
   d5b2c:	681b      	ldr	r3, [r3, #0]
   d5b2e:	699b      	ldr	r3, [r3, #24]
   d5b30:	9301      	str	r3, [sp, #4]
   d5b32:	bd08      	pop	{r3, pc}
   d5b34:	0003023c 	.word	0x0003023c

000d5b38 <hal_usart_flush>:
DYNALIB_FN(BASE_IDX + 7, hal_usart, hal_usart_flush, void(hal_usart_interface_t))
   d5b38:	b508      	push	{r3, lr}
   d5b3a:	4b02      	ldr	r3, [pc, #8]	; (d5b44 <hal_usart_flush+0xc>)
   d5b3c:	681b      	ldr	r3, [r3, #0]
   d5b3e:	69db      	ldr	r3, [r3, #28]
   d5b40:	9301      	str	r3, [sp, #4]
   d5b42:	bd08      	pop	{r3, pc}
   d5b44:	0003023c 	.word	0x0003023c

000d5b48 <hal_usart_is_enabled>:
DYNALIB_FN(BASE_IDX + 8, hal_usart, hal_usart_is_enabled, bool(hal_usart_interface_t))
   d5b48:	b508      	push	{r3, lr}
   d5b4a:	4b02      	ldr	r3, [pc, #8]	; (d5b54 <hal_usart_is_enabled+0xc>)
   d5b4c:	681b      	ldr	r3, [r3, #0]
   d5b4e:	6a1b      	ldr	r3, [r3, #32]
   d5b50:	9301      	str	r3, [sp, #4]
   d5b52:	bd08      	pop	{r3, pc}
   d5b54:	0003023c 	.word	0x0003023c

000d5b58 <hal_usart_available_data_for_write>:
DYNALIB_FN(BASE_IDX + 9, hal_usart, hal_usart_half_duplex, void(hal_usart_interface_t, bool))
DYNALIB_FN(BASE_IDX + 10, hal_usart, hal_usart_available_data_for_write, int32_t(hal_usart_interface_t))
   d5b58:	b508      	push	{r3, lr}
   d5b5a:	4b02      	ldr	r3, [pc, #8]	; (d5b64 <hal_usart_available_data_for_write+0xc>)
   d5b5c:	681b      	ldr	r3, [r3, #0]
   d5b5e:	6a9b      	ldr	r3, [r3, #40]	; 0x28
   d5b60:	9301      	str	r3, [sp, #4]
   d5b62:	bd08      	pop	{r3, pc}
   d5b64:	0003023c 	.word	0x0003023c

000d5b68 <HAL_USB_USART_Init>:
#endif

DYNALIB_BEGIN(hal_usb)

#ifdef USB_CDC_ENABLE
DYNALIB_FN(0, hal_usb, HAL_USB_USART_Init, void(HAL_USB_USART_Serial, const HAL_USB_USART_Config*))
   d5b68:	b508      	push	{r3, lr}
   d5b6a:	4b02      	ldr	r3, [pc, #8]	; (d5b74 <HAL_USB_USART_Init+0xc>)
   d5b6c:	681b      	ldr	r3, [r3, #0]
   d5b6e:	681b      	ldr	r3, [r3, #0]
   d5b70:	9301      	str	r3, [sp, #4]
   d5b72:	bd08      	pop	{r3, pc}
   d5b74:	0003024c 	.word	0x0003024c

000d5b78 <HAL_USB_USART_Begin>:
DYNALIB_FN(1, hal_usb, HAL_USB_USART_Begin, void(HAL_USB_USART_Serial, uint32_t, void *))
   d5b78:	b508      	push	{r3, lr}
   d5b7a:	4b02      	ldr	r3, [pc, #8]	; (d5b84 <HAL_USB_USART_Begin+0xc>)
   d5b7c:	681b      	ldr	r3, [r3, #0]
   d5b7e:	685b      	ldr	r3, [r3, #4]
   d5b80:	9301      	str	r3, [sp, #4]
   d5b82:	bd08      	pop	{r3, pc}
   d5b84:	0003024c 	.word	0x0003024c

000d5b88 <HAL_USB_USART_Available_Data>:
DYNALIB_FN(2, hal_usb, HAL_USB_USART_End, void(HAL_USB_USART_Serial))
DYNALIB_FN(3, hal_usb, HAL_USB_USART_Baud_Rate, unsigned int(HAL_USB_USART_Serial))
DYNALIB_FN(4, hal_usb, HAL_USB_USART_Available_Data, int32_t(HAL_USB_USART_Serial))
   d5b88:	b508      	push	{r3, lr}
   d5b8a:	4b02      	ldr	r3, [pc, #8]	; (d5b94 <HAL_USB_USART_Available_Data+0xc>)
   d5b8c:	681b      	ldr	r3, [r3, #0]
   d5b8e:	691b      	ldr	r3, [r3, #16]
   d5b90:	9301      	str	r3, [sp, #4]
   d5b92:	bd08      	pop	{r3, pc}
   d5b94:	0003024c 	.word	0x0003024c

000d5b98 <HAL_USB_USART_Available_Data_For_Write>:
DYNALIB_FN(5, hal_usb, HAL_USB_USART_Available_Data_For_Write, int32_t(HAL_USB_USART_Serial))
   d5b98:	b508      	push	{r3, lr}
   d5b9a:	4b02      	ldr	r3, [pc, #8]	; (d5ba4 <HAL_USB_USART_Available_Data_For_Write+0xc>)
   d5b9c:	681b      	ldr	r3, [r3, #0]
   d5b9e:	695b      	ldr	r3, [r3, #20]
   d5ba0:	9301      	str	r3, [sp, #4]
   d5ba2:	bd08      	pop	{r3, pc}
   d5ba4:	0003024c 	.word	0x0003024c

000d5ba8 <HAL_USB_USART_Receive_Data>:
DYNALIB_FN(6, hal_usb, HAL_USB_USART_Receive_Data, int32_t(HAL_USB_USART_Serial, uint8_t))
   d5ba8:	b508      	push	{r3, lr}
   d5baa:	4b02      	ldr	r3, [pc, #8]	; (d5bb4 <HAL_USB_USART_Receive_Data+0xc>)
   d5bac:	681b      	ldr	r3, [r3, #0]
   d5bae:	699b      	ldr	r3, [r3, #24]
   d5bb0:	9301      	str	r3, [sp, #4]
   d5bb2:	bd08      	pop	{r3, pc}
   d5bb4:	0003024c 	.word	0x0003024c

000d5bb8 <HAL_USB_USART_Send_Data>:
DYNALIB_FN(7, hal_usb, HAL_USB_USART_Send_Data, int32_t(HAL_USB_USART_Serial, uint8_t))
   d5bb8:	b508      	push	{r3, lr}
   d5bba:	4b02      	ldr	r3, [pc, #8]	; (d5bc4 <HAL_USB_USART_Send_Data+0xc>)
   d5bbc:	681b      	ldr	r3, [r3, #0]
   d5bbe:	69db      	ldr	r3, [r3, #28]
   d5bc0:	9301      	str	r3, [sp, #4]
   d5bc2:	bd08      	pop	{r3, pc}
   d5bc4:	0003024c 	.word	0x0003024c

000d5bc8 <HAL_USB_USART_Flush_Data>:
DYNALIB_FN(8, hal_usb, HAL_USB_USART_Flush_Data, void(HAL_USB_USART_Serial))
   d5bc8:	b508      	push	{r3, lr}
   d5bca:	4b02      	ldr	r3, [pc, #8]	; (d5bd4 <HAL_USB_USART_Flush_Data+0xc>)
   d5bcc:	681b      	ldr	r3, [r3, #0]
   d5bce:	6a1b      	ldr	r3, [r3, #32]
   d5bd0:	9301      	str	r3, [sp, #4]
   d5bd2:	bd08      	pop	{r3, pc}
   d5bd4:	0003024c 	.word	0x0003024c

000d5bd8 <panic_>:
DYNALIB_FN(9, services, LED_Toggle, void(Led_TypeDef))
DYNALIB_FN(10, services, LED_Fade, void(Led_TypeDef))
DYNALIB_FN(11, services, Get_LED_Brightness, uint8_t(void))

DYNALIB_FN(12, services, set_logger_output, void(debug_output_fn, LoggerOutputLevel)) // Deprecated
DYNALIB_FN(13, services, panic_, void(ePanicCode, void*, void(*)(uint32_t)))
   d5bd8:	b508      	push	{r3, lr}
   d5bda:	4b02      	ldr	r3, [pc, #8]	; (d5be4 <panic_+0xc>)
   d5bdc:	681b      	ldr	r3, [r3, #0]
   d5bde:	6b5b      	ldr	r3, [r3, #52]	; 0x34
   d5be0:	9301      	str	r3, [sp, #4]
   d5be2:	bd08      	pop	{r3, pc}
   d5be4:	00030260 	.word	0x00030260

000d5be8 <set_system_mode>:
#endif

DYNALIB_BEGIN(system)

DYNALIB_FN(0, system, system_mode, System_Mode_TypeDef(void))
DYNALIB_FN(1, system, set_system_mode, void(System_Mode_TypeDef))
   d5be8:	b508      	push	{r3, lr}
   d5bea:	4b02      	ldr	r3, [pc, #8]	; (d5bf4 <set_system_mode+0xc>)
   d5bec:	681b      	ldr	r3, [r3, #0]
   d5bee:	685b      	ldr	r3, [r3, #4]
   d5bf0:	9301      	str	r3, [sp, #4]
   d5bf2:	bd08      	pop	{r3, pc}
   d5bf4:	00030220 	.word	0x00030220

000d5bf8 <system_delay_ms>:

DYNALIB_FN(2, system, set_ymodem_serial_flash_update_handler, void(ymodem_serial_flash_update_handler))
DYNALIB_FN(3, system, system_firmwareUpdate, bool(Stream*, void*))
DYNALIB_FN(4, system, system_fileTransfer, bool(system_file_transfer_t*, void*))

DYNALIB_FN(5, system, system_delay_ms, void(unsigned long, bool))
   d5bf8:	b508      	push	{r3, lr}
   d5bfa:	4b02      	ldr	r3, [pc, #8]	; (d5c04 <system_delay_ms+0xc>)
   d5bfc:	681b      	ldr	r3, [r3, #0]
   d5bfe:	695b      	ldr	r3, [r3, #20]
   d5c00:	9301      	str	r3, [sp, #4]
   d5c02:	bd08      	pop	{r3, pc}
   d5c04:	00030220 	.word	0x00030220

000d5c08 <application_thread_current>:
DYNALIB_FN(15, system, system_get_flag, int(system_flag_t, uint8_t*, void*))
DYNALIB_FN(16, system, Spark_Prepare_For_Firmware_Update, int(FileTransfer::Descriptor&, uint32_t, void*))
DYNALIB_FN(17, system, Spark_Save_Firmware_Chunk, int(FileTransfer::Descriptor&, const uint8_t*, void*))
DYNALIB_FN(18, system, Spark_Finish_Firmware_Update, int(FileTransfer::Descriptor&, uint32_t, void*))

DYNALIB_FN(19, system, application_thread_current, uint8_t(void*))
   d5c08:	b508      	push	{r3, lr}
   d5c0a:	4b02      	ldr	r3, [pc, #8]	; (d5c14 <application_thread_current+0xc>)
   d5c0c:	681b      	ldr	r3, [r3, #0]
   d5c0e:	6cdb      	ldr	r3, [r3, #76]	; 0x4c
   d5c10:	9301      	str	r3, [sp, #4]
   d5c12:	bd08      	pop	{r3, pc}
   d5c14:	00030220 	.word	0x00030220

000d5c18 <application_thread_invoke>:
DYNALIB_FN(20, system, system_thread_current, uint8_t(void*))
DYNALIB_FN(21, system, application_thread_invoke, uint8_t(void(*)(void*), void*, void*))
   d5c18:	b508      	push	{r3, lr}
   d5c1a:	4b02      	ldr	r3, [pc, #8]	; (d5c24 <application_thread_invoke+0xc>)
   d5c1c:	681b      	ldr	r3, [r3, #0]
   d5c1e:	6d5b      	ldr	r3, [r3, #84]	; 0x54
   d5c20:	9301      	str	r3, [sp, #4]
   d5c22:	bd08      	pop	{r3, pc}
   d5c24:	00030220 	.word	0x00030220

000d5c28 <system_ctrl_set_app_request_handler>:
DYNALIB_FN(BASE_IDX + 6, system, led_pattern_period, uint16_t(int, int, void*))
DYNALIB_FN(BASE_IDX + 7, system, system_set_tester_handlers, int(system_tester_handlers_t*, void*))
DYNALIB_FN(BASE_IDX + 8, system, system_format_diag_data, int(const uint16_t*, size_t, unsigned, appender_fn, void*, void*))

// Control requests
DYNALIB_FN(BASE_IDX + 9, system, system_ctrl_set_app_request_handler, int(ctrl_request_handler_fn, void*))
   d5c28:	b508      	push	{r3, lr}
   d5c2a:	4b03      	ldr	r3, [pc, #12]	; (d5c38 <system_ctrl_set_app_request_handler+0x10>)
   d5c2c:	681b      	ldr	r3, [r3, #0]
   d5c2e:	f8d3 3088 	ldr.w	r3, [r3, #136]	; 0x88
   d5c32:	9301      	str	r3, [sp, #4]
   d5c34:	bd08      	pop	{r3, pc}
   d5c36:	0000      	.short	0x0000
   d5c38:	00030220 	.word	0x00030220

000d5c3c <system_ctrl_set_result>:
DYNALIB_FN(BASE_IDX + 10, system, system_ctrl_alloc_reply_data, int(ctrl_request*, size_t, void*))
DYNALIB_FN(BASE_IDX + 11, system, system_ctrl_free_request_data, void(ctrl_request*, void*))
DYNALIB_FN(BASE_IDX + 12, system, system_ctrl_set_result, void(ctrl_request*, int, ctrl_completion_handler_fn, void*, void*))
   d5c3c:	b508      	push	{r3, lr}
   d5c3e:	4b03      	ldr	r3, [pc, #12]	; (d5c4c <system_ctrl_set_result+0x10>)
   d5c40:	681b      	ldr	r3, [r3, #0]
   d5c42:	f8d3 3094 	ldr.w	r3, [r3, #148]	; 0x94
   d5c46:	9301      	str	r3, [sp, #4]
   d5c48:	bd08      	pop	{r3, pc}
   d5c4a:	0000      	.short	0x0000
   d5c4c:	00030220 	.word	0x00030220

000d5c50 <spark_cloud_flag_connected>:
DYNALIB_FN(0, system_cloud, spark_variable, bool(const char*, const void*, Spark_Data_TypeDef, spark_variable_t*))
DYNALIB_FN(1, system_cloud, spark_function, bool(const char*, p_user_function_int_str_t, void*))
DYNALIB_FN(2, system_cloud, spark_process, void(void))
DYNALIB_FN(3, system_cloud, spark_cloud_flag_connect, void(void))
DYNALIB_FN(4, system_cloud, spark_cloud_flag_disconnect, void(void))
DYNALIB_FN(5, system_cloud, spark_cloud_flag_connected, bool(void))
   d5c50:	b508      	push	{r3, lr}
   d5c52:	4b02      	ldr	r3, [pc, #8]	; (d5c5c <spark_cloud_flag_connected+0xc>)
   d5c54:	681b      	ldr	r3, [r3, #0]
   d5c56:	695b      	ldr	r3, [r3, #20]
   d5c58:	9301      	str	r3, [sp, #4]
   d5c5a:	bd08      	pop	{r3, pc}
   d5c5c:	00030244 	.word	0x00030244

000d5c60 <spark_send_event>:
DYNALIB_FN(6, system_cloud, system_cloud_protocol_instance, ProtocolFacade*(void))
DYNALIB_FN(7, system_cloud, spark_deviceID, String(void))
DYNALIB_FN(8, system_cloud, spark_send_event, bool(const char*, const char*, int, uint32_t, void*))
   d5c60:	b508      	push	{r3, lr}
   d5c62:	4b02      	ldr	r3, [pc, #8]	; (d5c6c <spark_send_event+0xc>)
   d5c64:	681b      	ldr	r3, [r3, #0]
   d5c66:	6a1b      	ldr	r3, [r3, #32]
   d5c68:	9301      	str	r3, [sp, #4]
   d5c6a:	bd08      	pop	{r3, pc}
   d5c6c:	00030244 	.word	0x00030244

000d5c70 <spark_set_random_seed_from_cloud_handler>:
DYNALIB_FN(10, system_cloud, spark_unsubscribe, void(void*))
DYNALIB_FN(11, system_cloud, spark_sync_time, bool(void*))
DYNALIB_FN(12, system_cloud, spark_sync_time_pending, bool(void*))
DYNALIB_FN(13, system_cloud, spark_sync_time_last, system_tick_t(time32_t*, time_t*))
DYNALIB_FN(14, system_cloud, spark_set_connection_property, int(unsigned, unsigned, const void*, void*))
DYNALIB_FN(15, system_cloud, spark_set_random_seed_from_cloud_handler, int(void (*handler)(unsigned int), void*))
   d5c70:	b508      	push	{r3, lr}
   d5c72:	4b02      	ldr	r3, [pc, #8]	; (d5c7c <spark_set_random_seed_from_cloud_handler+0xc>)
   d5c74:	681b      	ldr	r3, [r3, #0]
   d5c76:	6bdb      	ldr	r3, [r3, #60]	; 0x3c
   d5c78:	9301      	str	r3, [sp, #4]
   d5c7a:	bd08      	pop	{r3, pc}
   d5c7c:	00030244 	.word	0x00030244

000d5c80 <network_connect>:
#endif

DYNALIB_BEGIN(system_net)

DYNALIB_FN(0, system_net, network_config, const void*(network_handle_t, uint32_t, void*))
DYNALIB_FN(1, system_net, network_connect, void(network_handle_t, uint32_t, uint32_t, void*))
   d5c80:	b508      	push	{r3, lr}
   d5c82:	4b02      	ldr	r3, [pc, #8]	; (d5c8c <network_connect+0xc>)
   d5c84:	681b      	ldr	r3, [r3, #0]
   d5c86:	685b      	ldr	r3, [r3, #4]
   d5c88:	9301      	str	r3, [sp, #4]
   d5c8a:	bd08      	pop	{r3, pc}
   d5c8c:	00030240 	.word	0x00030240

000d5c90 <network_connecting>:
DYNALIB_FN(2, system_net, network_connecting, bool(network_handle_t, uint32_t, void*))
   d5c90:	b508      	push	{r3, lr}
   d5c92:	4b02      	ldr	r3, [pc, #8]	; (d5c9c <network_connecting+0xc>)
   d5c94:	681b      	ldr	r3, [r3, #0]
   d5c96:	689b      	ldr	r3, [r3, #8]
   d5c98:	9301      	str	r3, [sp, #4]
   d5c9a:	bd08      	pop	{r3, pc}
   d5c9c:	00030240 	.word	0x00030240

000d5ca0 <network_disconnect>:
DYNALIB_FN(3, system_net, network_disconnect, void(network_handle_t, uint32_t, void*))
   d5ca0:	b508      	push	{r3, lr}
   d5ca2:	4b02      	ldr	r3, [pc, #8]	; (d5cac <network_disconnect+0xc>)
   d5ca4:	681b      	ldr	r3, [r3, #0]
   d5ca6:	68db      	ldr	r3, [r3, #12]
   d5ca8:	9301      	str	r3, [sp, #4]
   d5caa:	bd08      	pop	{r3, pc}
   d5cac:	00030240 	.word	0x00030240

000d5cb0 <network_ready>:
DYNALIB_FN(4, system_net, network_ready, bool(network_handle_t, uint32_t, void*))
   d5cb0:	b508      	push	{r3, lr}
   d5cb2:	4b02      	ldr	r3, [pc, #8]	; (d5cbc <network_ready+0xc>)
   d5cb4:	681b      	ldr	r3, [r3, #0]
   d5cb6:	691b      	ldr	r3, [r3, #16]
   d5cb8:	9301      	str	r3, [sp, #4]
   d5cba:	bd08      	pop	{r3, pc}
   d5cbc:	00030240 	.word	0x00030240

000d5cc0 <network_on>:
DYNALIB_FN(5, system_net, network_on, void(network_handle_t, uint32_t, uint32_t, void*))
   d5cc0:	b508      	push	{r3, lr}
   d5cc2:	4b02      	ldr	r3, [pc, #8]	; (d5ccc <network_on+0xc>)
   d5cc4:	681b      	ldr	r3, [r3, #0]
   d5cc6:	695b      	ldr	r3, [r3, #20]
   d5cc8:	9301      	str	r3, [sp, #4]
   d5cca:	bd08      	pop	{r3, pc}
   d5ccc:	00030240 	.word	0x00030240

000d5cd0 <network_off>:
DYNALIB_FN(6, system_net, network_off, void(network_handle_t, uint32_t, uint32_t, void*))
   d5cd0:	b508      	push	{r3, lr}
   d5cd2:	4b02      	ldr	r3, [pc, #8]	; (d5cdc <network_off+0xc>)
   d5cd4:	681b      	ldr	r3, [r3, #0]
   d5cd6:	699b      	ldr	r3, [r3, #24]
   d5cd8:	9301      	str	r3, [sp, #4]
   d5cda:	bd08      	pop	{r3, pc}
   d5cdc:	00030240 	.word	0x00030240

000d5ce0 <network_listen>:
DYNALIB_FN(7, system_net, network_listen, void(network_handle_t, uint32_t, void*))
   d5ce0:	b508      	push	{r3, lr}
   d5ce2:	4b02      	ldr	r3, [pc, #8]	; (d5cec <network_listen+0xc>)
   d5ce4:	681b      	ldr	r3, [r3, #0]
   d5ce6:	69db      	ldr	r3, [r3, #28]
   d5ce8:	9301      	str	r3, [sp, #4]
   d5cea:	bd08      	pop	{r3, pc}
   d5cec:	00030240 	.word	0x00030240

000d5cf0 <network_listening>:
DYNALIB_FN(8, system_net, network_listening, bool(network_handle_t, uint32_t, void*))
   d5cf0:	b508      	push	{r3, lr}
   d5cf2:	4b02      	ldr	r3, [pc, #8]	; (d5cfc <network_listening+0xc>)
   d5cf4:	681b      	ldr	r3, [r3, #0]
   d5cf6:	6a1b      	ldr	r3, [r3, #32]
   d5cf8:	9301      	str	r3, [sp, #4]
   d5cfa:	bd08      	pop	{r3, pc}
   d5cfc:	00030240 	.word	0x00030240

000d5d00 <network_set_listen_timeout>:
DYNALIB_FN(9, system_net, network_has_credentials, bool(network_handle_t, uint32_t, void*))
DYNALIB_FN(10, system_net, network_set_credentials, int(network_handle_t, uint32_t, NetworkCredentials*, void*))
DYNALIB_FN(11, system_net, network_clear_credentials, bool(network_handle_t, uint32_t, NetworkCredentials*, void*))
DYNALIB_FN(12, system_net, network_set_listen_timeout, void(network_handle_t, uint16_t, void*))
   d5d00:	b508      	push	{r3, lr}
   d5d02:	4b02      	ldr	r3, [pc, #8]	; (d5d0c <network_set_listen_timeout+0xc>)
   d5d04:	681b      	ldr	r3, [r3, #0]
   d5d06:	6b1b      	ldr	r3, [r3, #48]	; 0x30
   d5d08:	9301      	str	r3, [sp, #4]
   d5d0a:	bd08      	pop	{r3, pc}
   d5d0c:	00030240 	.word	0x00030240

000d5d10 <network_get_listen_timeout>:
DYNALIB_FN(13, system_net, network_get_listen_timeout, uint16_t(network_handle_t, uint32_t, void*))
   d5d10:	b508      	push	{r3, lr}
   d5d12:	4b02      	ldr	r3, [pc, #8]	; (d5d1c <network_get_listen_timeout+0xc>)
   d5d14:	681b      	ldr	r3, [r3, #0]
   d5d16:	6b5b      	ldr	r3, [r3, #52]	; 0x34
   d5d18:	9301      	str	r3, [sp, #4]
   d5d1a:	bd08      	pop	{r3, pc}
   d5d1c:	00030240 	.word	0x00030240

000d5d20 <malloc>:
#include "hal_platform.h"
#endif // defined(DYNALIB_EXPORT) || (defined(DYNALIB_IMPORT) && !defined(RT_DYNALIB_NO_DEPENDENCY_BREAKING_IMPORTS))

DYNALIB_BEGIN(rt)

DYNALIB_FN(0, rt, malloc, void*(size_t))
   d5d20:	b508      	push	{r3, lr}
   d5d22:	4b02      	ldr	r3, [pc, #8]	; (d5d2c <malloc+0xc>)
   d5d24:	681b      	ldr	r3, [r3, #0]
   d5d26:	681b      	ldr	r3, [r3, #0]
   d5d28:	9301      	str	r3, [sp, #4]
   d5d2a:	bd08      	pop	{r3, pc}
   d5d2c:	0003021c 	.word	0x0003021c

000d5d30 <free>:
DYNALIB_FN(1, rt, free, void(void*))
   d5d30:	b508      	push	{r3, lr}
   d5d32:	4b02      	ldr	r3, [pc, #8]	; (d5d3c <free+0xc>)
   d5d34:	681b      	ldr	r3, [r3, #0]
   d5d36:	685b      	ldr	r3, [r3, #4]
   d5d38:	9301      	str	r3, [sp, #4]
   d5d3a:	bd08      	pop	{r3, pc}
   d5d3c:	0003021c 	.word	0x0003021c

000d5d40 <realloc>:
DYNALIB_FN(2, rt, realloc, void*(void*, size_t))
   d5d40:	b508      	push	{r3, lr}
   d5d42:	4b02      	ldr	r3, [pc, #8]	; (d5d4c <realloc+0xc>)
   d5d44:	681b      	ldr	r3, [r3, #0]
   d5d46:	689b      	ldr	r3, [r3, #8]
   d5d48:	9301      	str	r3, [sp, #4]
   d5d4a:	bd08      	pop	{r3, pc}
   d5d4c:	0003021c 	.word	0x0003021c

000d5d50 <vsnprintf>:
DYNALIB_FN(4, rt, siprintf, int(char*, const char*, ...))
DYNALIB_FN(5, rt, sscanf, int(const char*, const char*, ...))
DYNALIB_FN(6, rt, siscanf, int(const char*, const char*, ...))
DYNALIB_FN(7, rt, snprintf, int(char*, size_t, const char*, ...))
DYNALIB_FN(8, rt, sniprintf, int(char*, size_t, const char*, ...))
DYNALIB_FN(9, rt, vsnprintf, int(char*, size_t, const char*, va_list))
   d5d50:	b508      	push	{r3, lr}
   d5d52:	4b02      	ldr	r3, [pc, #8]	; (d5d5c <vsnprintf+0xc>)
   d5d54:	681b      	ldr	r3, [r3, #0]
   d5d56:	6a5b      	ldr	r3, [r3, #36]	; 0x24
   d5d58:	9301      	str	r3, [sp, #4]
   d5d5a:	bd08      	pop	{r3, pc}
   d5d5c:	0003021c 	.word	0x0003021c

000d5d60 <abort>:
DYNALIB_FN(10, rt, vsniprintf, int(char*, size_t, const char*, va_list))
DYNALIB_FN(11, rt, abort, void(void))
   d5d60:	b508      	push	{r3, lr}
   d5d62:	4b02      	ldr	r3, [pc, #8]	; (d5d6c <abort+0xc>)
   d5d64:	681b      	ldr	r3, [r3, #0]
   d5d66:	6adb      	ldr	r3, [r3, #44]	; 0x2c
   d5d68:	9301      	str	r3, [sp, #4]
   d5d6a:	bd08      	pop	{r3, pc}
   d5d6c:	0003021c 	.word	0x0003021c

000d5d70 <_malloc_r>:
DYNALIB_FN(12, rt, _malloc_r, void*(struct _reent*, size_t))
   d5d70:	b508      	push	{r3, lr}
   d5d72:	4b02      	ldr	r3, [pc, #8]	; (d5d7c <_malloc_r+0xc>)
   d5d74:	681b      	ldr	r3, [r3, #0]
   d5d76:	6b1b      	ldr	r3, [r3, #48]	; 0x30
   d5d78:	9301      	str	r3, [sp, #4]
   d5d7a:	bd08      	pop	{r3, pc}
   d5d7c:	0003021c 	.word	0x0003021c

000d5d80 <__errno>:
DYNALIB_FN(13, rt, _free_r, void(struct _reent*, void*))
DYNALIB_FN(14, rt, _realloc_r, void*(struct _reent*, void*, size_t))
DYNALIB_FN(15, rt, __errno, int*())
   d5d80:	b508      	push	{r3, lr}
   d5d82:	4b02      	ldr	r3, [pc, #8]	; (d5d8c <__errno+0xc>)
   d5d84:	681b      	ldr	r3, [r3, #0]
   d5d86:	6bdb      	ldr	r3, [r3, #60]	; 0x3c
   d5d88:	9301      	str	r3, [sp, #4]
   d5d8a:	bd08      	pop	{r3, pc}
   d5d8c:	0003021c 	.word	0x0003021c

000d5d90 <newlib_impure_ptr_callback>:
// RT is currently being imported into system-part1 from system-part2,
// which is the reverse direction.

#if defined(DYNALIB_EXPORT) || (defined(DYNALIB_IMPORT) && !defined(RT_DYNALIB_NO_DEPENDENCY_BREAKING_IMPORTS))
DYNALIB_FN(16, rt, __assert_func, void(const char*, int, const char*, const char*))
DYNALIB_FN(17, rt, newlib_impure_ptr_callback, void(void (*)(struct _reent*, size_t, uint32_t, void*), void*))
   d5d90:	b508      	push	{r3, lr}
   d5d92:	4b02      	ldr	r3, [pc, #8]	; (d5d9c <newlib_impure_ptr_callback+0xc>)
   d5d94:	681b      	ldr	r3, [r3, #0]
   d5d96:	6c5b      	ldr	r3, [r3, #68]	; 0x44
   d5d98:	9301      	str	r3, [sp, #4]
   d5d9a:	bd08      	pop	{r3, pc}
   d5d9c:	0003021c 	.word	0x0003021c

000d5da0 <delay>:
    return (value - fromStart) * (toEnd - toStart) / (fromEnd - fromStart) + toStart;
}

void delay(unsigned long ms)
{
    system_delay_ms(ms, false);
   d5da0:	2100      	movs	r1, #0
   d5da2:	f7ff bf29 	b.w	d5bf8 <system_delay_ms>

000d5da6 <_ZN8particle6detail21futureCallbackWrapperEPv>:
 * License along with this library; if not, see <http://www.gnu.org/licenses/>.
 */

#include "spark_wiring_async.h"

void particle::detail::futureCallbackWrapper(void* data) {
   d5da6:	b510      	push	{r4, lr}
  template<typename _Res, typename... _ArgTypes>
    _Res
    function<_Res(_ArgTypes...)>::
    operator()(_ArgTypes... __args) const
    {
      if (_M_empty())
   d5da8:	6883      	ldr	r3, [r0, #8]
   d5daa:	4604      	mov	r4, r0
   d5dac:	b90b      	cbnz	r3, d5db2 <_ZN8particle6detail21futureCallbackWrapperEPv+0xc>
	__throw_bad_function_call();
   d5dae:	f001 fb3c 	bl	d742a <_ZSt25__throw_bad_function_callv>
      return _M_invoker(_M_functor, std::forward<_ArgTypes>(__args)...);
   d5db2:	68c3      	ldr	r3, [r0, #12]
   d5db4:	4798      	blx	r3
      if (_M_manager)
   d5db6:	68a3      	ldr	r3, [r4, #8]
   d5db8:	b11b      	cbz	r3, d5dc2 <_ZN8particle6detail21futureCallbackWrapperEPv+0x1c>
	_M_manager(_M_functor, _M_functor, __destroy_functor);
   d5dba:	2203      	movs	r2, #3
   d5dbc:	4621      	mov	r1, r4
   d5dbe:	4620      	mov	r0, r4
   d5dc0:	4798      	blx	r3
    auto callbackPtr = static_cast<const std::function<void()>*>(data);
    (*callbackPtr)();
    delete callbackPtr;
   d5dc2:	4620      	mov	r0, r4
   d5dc4:	2110      	movs	r1, #16
}
   d5dc6:	e8bd 4010 	ldmia.w	sp!, {r4, lr}
    delete callbackPtr;
   d5dca:	f001 bb2a 	b.w	d7422 <_ZdlPvj>

000d5dce <_ZN14RecursiveMutexD1Ev>:
    RecursiveMutex() : handle_(nullptr)
    {
        os_mutex_recursive_create(&handle_);
    }

    ~RecursiveMutex() {
   d5dce:	b510      	push	{r4, lr}
   d5dd0:	4604      	mov	r4, r0
        dispose();
    }

    void dispose()
    {
        if (handle_) {
   d5dd2:	6800      	ldr	r0, [r0, #0]
   d5dd4:	b108      	cbz	r0, d5dda <_ZN14RecursiveMutexD1Ev+0xc>
            os_mutex_recursive_destroy(handle_);
   d5dd6:	f7ff fda5 	bl	d5924 <os_mutex_recursive_destroy>
    }
   d5dda:	4620      	mov	r0, r4
   d5ddc:	bd10      	pop	{r4, pc}

000d5dde <_ZNSt14__shared_countILN9__gnu_cxx12_Lock_policyE0EEC1ERKS2_>:
      : _M_pi(__r._M_pi)
   d5dde:	680b      	ldr	r3, [r1, #0]
   d5de0:	6003      	str	r3, [r0, #0]
	if (_M_pi != 0)
   d5de2:	b113      	cbz	r3, d5dea <_ZNSt14__shared_countILN9__gnu_cxx12_Lock_policyE0EEC1ERKS2_+0xc>
    { ++_M_use_count; }
   d5de4:	685a      	ldr	r2, [r3, #4]
   d5de6:	3201      	adds	r2, #1
   d5de8:	605a      	str	r2, [r3, #4]
      }
   d5dea:	4770      	bx	lr

000d5dec <_GLOBAL__sub_I__ZN8particle3ble13WiringBleLock6mutex_E>:
BleCharacteristic BleLocalDevice::addCharacteristic(const String& desc, EnumFlags<BleCharacteristicProperty> properties, BleOnDataReceivedCallback callback, void* context) {
    WiringBleLock lk;
    return addCharacteristic(desc.c_str(), properties, callback, context);
}

} /* namespace particle */
   d5dec:	b510      	push	{r4, lr}
    RecursiveMutex() : handle_(nullptr)
   d5dee:	4c06      	ldr	r4, [pc, #24]	; (d5e08 <_GLOBAL__sub_I__ZN8particle3ble13WiringBleLock6mutex_E+0x1c>)
   d5df0:	2300      	movs	r3, #0
        os_mutex_recursive_create(&handle_);
   d5df2:	4620      	mov	r0, r4
    RecursiveMutex() : handle_(nullptr)
   d5df4:	6023      	str	r3, [r4, #0]
        os_mutex_recursive_create(&handle_);
   d5df6:	f7ff fd8d 	bl	d5914 <os_mutex_recursive_create>
RecursiveMutex WiringBleLock::mutex_;
   d5dfa:	4620      	mov	r0, r4
   d5dfc:	4a03      	ldr	r2, [pc, #12]	; (d5e0c <_GLOBAL__sub_I__ZN8particle3ble13WiringBleLock6mutex_E+0x20>)
   d5dfe:	4904      	ldr	r1, [pc, #16]	; (d5e10 <_GLOBAL__sub_I__ZN8particle3ble13WiringBleLock6mutex_E+0x24>)
} /* namespace particle */
   d5e00:	e8bd 4010 	ldmia.w	sp!, {r4, lr}
RecursiveMutex WiringBleLock::mutex_;
   d5e04:	f001 bb08 	b.w	d7418 <__aeabi_atexit>
   d5e08:	2003e608 	.word	0x2003e608
   d5e0c:	2003e444 	.word	0x2003e444
   d5e10:	000d5dcf 	.word	0x000d5dcf

000d5e14 <_ZNSt15_Sp_counted_ptrIPN8particle6detail10FutureImplIbNS1_13FutureContextEEELN9__gnu_cxx12_Lock_policyE0EED1Ev>:
    class _Sp_counted_ptr final : public _Sp_counted_base<_Lp>
   d5e14:	4770      	bx	lr

000d5e16 <_ZNSt15_Sp_counted_ptrIPN8particle6detail10FutureImplIbNS1_13FutureContextEEELN9__gnu_cxx12_Lock_policyE0EE14_M_get_deleterERKSt9type_info>:
      { return nullptr; }
   d5e16:	2000      	movs	r0, #0
   d5e18:	4770      	bx	lr

000d5e1a <_ZNSt15_Sp_counted_ptrIPN8particle6detail10FutureImplIbNS1_13FutureContextEEELN9__gnu_cxx12_Lock_policyE0EED0Ev>:
    class _Sp_counted_ptr final : public _Sp_counted_base<_Lp>
   d5e1a:	b510      	push	{r4, lr}
   d5e1c:	2110      	movs	r1, #16
   d5e1e:	4604      	mov	r4, r0
   d5e20:	f001 faff 	bl	d7422 <_ZdlPvj>
   d5e24:	4620      	mov	r0, r4
   d5e26:	bd10      	pop	{r4, pc}

000d5e28 <_ZNSt15_Sp_counted_ptrIPN8particle6detail10FutureImplIbNS1_13FutureContextEEELN9__gnu_cxx12_Lock_policyE0EE10_M_destroyEv>:
      _M_destroy() noexcept
   d5e28:	b508      	push	{r3, lr}
      { delete this; }
   d5e2a:	f7ff fff6 	bl	d5e1a <_ZNSt15_Sp_counted_ptrIPN8particle6detail10FutureImplIbNS1_13FutureContextEEELN9__gnu_cxx12_Lock_policyE0EED0Ev>
   d5e2e:	bd08      	pop	{r3, pc}

000d5e30 <_ZNSt14_Function_baseD1Ev>:
    ~_Function_base()
   d5e30:	b510      	push	{r4, lr}
      if (_M_manager)
   d5e32:	6883      	ldr	r3, [r0, #8]
    ~_Function_base()
   d5e34:	4604      	mov	r4, r0
      if (_M_manager)
   d5e36:	b113      	cbz	r3, d5e3e <_ZNSt14_Function_baseD1Ev+0xe>
	_M_manager(_M_functor, _M_functor, __destroy_functor);
   d5e38:	2203      	movs	r2, #3
   d5e3a:	4601      	mov	r1, r0
   d5e3c:	4798      	blx	r3
    }
   d5e3e:	4620      	mov	r0, r4
   d5e40:	bd10      	pop	{r4, pc}

000d5e42 <_ZN8particle5ErrorC1EOS0_>:

inline particle::Error::Error(const Error& error) :
        Error(error.type_, error.msg_) {
}

inline particle::Error::Error(Error&& error) :
   d5e42:	b530      	push	{r4, r5, lr}
        type_(type) {
   d5e44:	2200      	movs	r2, #0
   d5e46:	f64f 749c 	movw	r4, #65436	; 0xff9c
   d5e4a:	6002      	str	r2, [r0, #0]
   d5e4c:	8084      	strh	r4, [r0, #4]
    {
      // concept requirements
      __glibcxx_function_requires(_SGIAssignableConcept<_Tp>)

      _Tp __tmp = _GLIBCXX_MOVE(__a);
      __a = _GLIBCXX_MOVE(__b);
   d5e4e:	888d      	ldrh	r5, [r1, #4]
      __b = _GLIBCXX_MOVE(__tmp);
   d5e50:	808c      	strh	r4, [r1, #4]
      __a = _GLIBCXX_MOVE(__b);
   d5e52:	680c      	ldr	r4, [r1, #0]
   d5e54:	8085      	strh	r5, [r0, #4]
   d5e56:	6004      	str	r4, [r0, #0]
      __b = _GLIBCXX_MOVE(__tmp);
   d5e58:	600a      	str	r2, [r1, #0]
        Error() {
    swap(*this, error);
}
   d5e5a:	bd30      	pop	{r4, r5, pc}

000d5e5c <_ZN8particle5ErrorD1Ev>:

inline particle::Error::~Error() {
   d5e5c:	b510      	push	{r4, lr}
   d5e5e:	4604      	mov	r4, r0
    free((void*)msg_);
   d5e60:	6800      	ldr	r0, [r0, #0]
   d5e62:	f7ff ff65 	bl	d5d30 <free>
}
   d5e66:	4620      	mov	r0, r4
   d5e68:	bd10      	pop	{r4, pc}

000d5e6a <_ZNSt15_Sp_counted_ptrIPN8particle6detail10FutureImplIbNS1_13FutureContextEEELN9__gnu_cxx12_Lock_policyE0EE10_M_disposeEv>:
      _M_dispose() noexcept
   d5e6a:	b538      	push	{r3, r4, r5, lr}
      { delete _M_ptr; }
   d5e6c:	68c4      	ldr	r4, [r0, #12]
   d5e6e:	b1f4      	cbz	r4, d5eae <_ZNSt15_Sp_counted_ptrIPN8particle6detail10FutureImplIbNS1_13FutureContextEEELN9__gnu_cxx12_Lock_policyE0EE10_M_disposeEv+0x44>
      _Tp
      load(memory_order __m = memory_order_seq_cst) const noexcept
      {
	alignas(_Tp) unsigned char __buf[sizeof(_Tp)];
	_Tp* __ptr = reinterpret_cast<_Tp*>(__buf);
	__atomic_load(std::__addressof(_M_i), __ptr, int(__m));
   d5e70:	7823      	ldrb	r3, [r4, #0]
    ~FutureImpl() {
        // Call destructor of the appropriate unnamed enum's field
        const State s = this->state();
        if (s == State::SUCCEEDED) {
            result_.~ResultT();
        } else if (s == State::FAILED) {
   d5e72:	2b02      	cmp	r3, #2
   d5e74:	d103      	bne.n	d5e7e <_ZNSt15_Sp_counted_ptrIPN8particle6detail10FutureImplIbNS1_13FutureContextEEELN9__gnu_cxx12_Lock_policyE0EE10_M_disposeEv+0x14>
            error_.~Error();
   d5e76:	f104 000c 	add.w	r0, r4, #12
   d5e7a:	f7ff ffef 	bl	d5e5c <_ZN8particle5ErrorD1Ev>
      {
	memory_order __b = __m & __memory_order_mask;
	__glibcxx_assert(__b != memory_order_release);
	__glibcxx_assert(__b != memory_order_acq_rel);

	return __atomic_load_n(&_M_p, int(__m));
   d5e7e:	6865      	ldr	r5, [r4, #4]
        delete onSuccess_.load(std::memory_order_relaxed);
   d5e80:	b135      	cbz	r5, d5e90 <_ZNSt15_Sp_counted_ptrIPN8particle6detail10FutureImplIbNS1_13FutureContextEEELN9__gnu_cxx12_Lock_policyE0EE10_M_disposeEv+0x26>
    class function<_Res(_ArgTypes...)>
   d5e82:	4628      	mov	r0, r5
   d5e84:	f7ff ffd4 	bl	d5e30 <_ZNSt14_Function_baseD1Ev>
   d5e88:	2110      	movs	r1, #16
   d5e8a:	4628      	mov	r0, r5
   d5e8c:	f001 fac9 	bl	d7422 <_ZdlPvj>
   d5e90:	68a5      	ldr	r5, [r4, #8]
        delete onError_.load(std::memory_order_relaxed);
   d5e92:	b135      	cbz	r5, d5ea2 <_ZNSt15_Sp_counted_ptrIPN8particle6detail10FutureImplIbNS1_13FutureContextEEELN9__gnu_cxx12_Lock_policyE0EE10_M_disposeEv+0x38>
   d5e94:	4628      	mov	r0, r5
   d5e96:	f7ff ffcb 	bl	d5e30 <_ZNSt14_Function_baseD1Ev>
   d5e9a:	2110      	movs	r1, #16
   d5e9c:	4628      	mov	r0, r5
   d5e9e:	f001 fac0 	bl	d7422 <_ZdlPvj>
   d5ea2:	4620      	mov	r0, r4
   d5ea4:	2114      	movs	r1, #20
   d5ea6:	e8bd 4038 	ldmia.w	sp!, {r3, r4, r5, lr}
   d5eaa:	f001 baba 	b.w	d7422 <_ZdlPvj>
   d5eae:	bd38      	pop	{r3, r4, r5, pc}

000d5eb0 <_ZN8particle11PromiseBaseIbNS_6detail13FutureContextEE11fromDataPtrEPv>:
        // TODO: Use custom reference counting object to avoid unnecessary memory allocation
        return new detail::FutureImplPtr<ResultT, ContextT>(p_);
    }

    // Unwraps promise from an object pointer created via dataPtr() method
    static Promise<ResultT, ContextT> fromDataPtr(void* data) {
   d5eb0:	b573      	push	{r0, r1, r4, r5, r6, lr}
      __shared_ptr(const __shared_ptr&) noexcept = default;
   d5eb2:	460e      	mov	r6, r1
   d5eb4:	4604      	mov	r4, r0
   d5eb6:	f856 3b04 	ldr.w	r3, [r6], #4
   d5eba:	9300      	str	r3, [sp, #0]
   d5ebc:	460d      	mov	r5, r1
   d5ebe:	a801      	add	r0, sp, #4
   d5ec0:	4631      	mov	r1, r6
   d5ec2:	f7ff ff8c 	bl	d5dde <_ZNSt14__shared_countILN9__gnu_cxx12_Lock_policyE0EEC1ERKS2_>
	_Sp_counted_base<_Lp>* __tmp = __r._M_pi;
   d5ec6:	9a01      	ldr	r2, [sp, #4]
	__shared_ptr(const __shared_ptr<_Yp, _Lp>& __r) noexcept
	: _M_ptr(__r._M_ptr), _M_refcount(__r._M_refcount)
	{ }

      __shared_ptr(__shared_ptr&& __r) noexcept
      : _M_ptr(__r._M_ptr), _M_refcount()
   d5ec8:	9b00      	ldr	r3, [sp, #0]
	_M_pi = __tmp;
   d5eca:	6062      	str	r2, [r4, #4]
      : _M_ptr(__r._M_ptr), _M_refcount()
   d5ecc:	6023      	str	r3, [r4, #0]
      ~__shared_ptr() = default;
   d5ece:	a801      	add	r0, sp, #4
	__r._M_pi = _M_pi;
   d5ed0:	2300      	movs	r3, #0
   d5ed2:	9301      	str	r3, [sp, #4]
      {
	_M_refcount._M_swap(__r._M_refcount);
	__r._M_ptr = 0;
   d5ed4:	9300      	str	r3, [sp, #0]
      ~__shared_ptr() = default;
   d5ed6:	f7fe fec7 	bl	d4c68 <_ZNSt14__shared_countILN9__gnu_cxx12_Lock_policyE0EED1Ev>
   d5eda:	4630      	mov	r0, r6
   d5edc:	f7fe fec4 	bl	d4c68 <_ZNSt14__shared_countILN9__gnu_cxx12_Lock_policyE0EED1Ev>
        auto d = static_cast<detail::FutureImplPtr<ResultT, ContextT>*>(data);
        const Promise<ResultT, ContextT> p(*d);
        delete d;
   d5ee0:	4628      	mov	r0, r5
   d5ee2:	2108      	movs	r1, #8
   d5ee4:	f001 fa9d 	bl	d7422 <_ZdlPvj>
        return p;
    }
   d5ee8:	4620      	mov	r0, r4
   d5eea:	b002      	add	sp, #8
   d5eec:	bd70      	pop	{r4, r5, r6, pc}

000d5eee <_ZSt4swapISt9_Any_dataENSt9enable_ifIXsrSt6__and_IJSt6__not_ISt15__is_tuple_likeIT_EESt21is_move_constructibleIS5_ESt18is_move_assignableIS5_EEE5valueEvE4typeERS5_SF_>:
    swap(_Tp& __a, _Tp& __b)
   d5eee:	b513      	push	{r0, r1, r4, lr}
   d5ef0:	460b      	mov	r3, r1
   d5ef2:	4602      	mov	r2, r0
      _Tp __tmp = _GLIBCXX_MOVE(__a);
   d5ef4:	e9d0 0100 	ldrd	r0, r1, [r0]
   d5ef8:	466c      	mov	r4, sp
   d5efa:	e884 0003 	stmia.w	r4, {r0, r1}
      __a = _GLIBCXX_MOVE(__b);
   d5efe:	e893 0003 	ldmia.w	r3, {r0, r1}
   d5f02:	e882 0003 	stmia.w	r2, {r0, r1}
      __b = _GLIBCXX_MOVE(__tmp);
   d5f06:	e894 0003 	ldmia.w	r4, {r0, r1}
   d5f0a:	e883 0003 	stmia.w	r3, {r0, r1}
    }
   d5f0e:	b002      	add	sp, #8
   d5f10:	bd10      	pop	{r4, pc}

000d5f12 <_ZNKSt8functionIFvRKN8particle5ErrorEEEclES3_>:
      if (_M_empty())
   d5f12:	6882      	ldr	r2, [r0, #8]
    function<_Res(_ArgTypes...)>::
   d5f14:	b510      	push	{r4, lr}
      if (_M_empty())
   d5f16:	b90a      	cbnz	r2, d5f1c <_ZNKSt8functionIFvRKN8particle5ErrorEEEclES3_+0xa>
	__throw_bad_function_call();
   d5f18:	f001 fa87 	bl	d742a <_ZSt25__throw_bad_function_callv>
    }
   d5f1c:	e8bd 4010 	ldmia.w	sp!, {r4, lr}
      return _M_invoker(_M_functor, std::forward<_ArgTypes>(__args)...);
   d5f20:	68c3      	ldr	r3, [r0, #12]
   d5f22:	4718      	bx	r3

000d5f24 <_ZNSt17_Function_handlerIFvvESt5_BindIFSt8functionIFvRKN8particle5ErrorEEES4_EEE9_M_invokeERKSt9_Any_data>:
      _M_invoke(const _Any_data& __functor, _ArgTypes&&... __args)
   d5f24:	b508      	push	{r3, lr}
	    return __source._M_access<_Functor*>();
   d5f26:	6800      	ldr	r0, [r0, #0]
    { return static_cast<_Up&&>(__t); }

  template<typename _Res, typename _Fn, typename... _Args>
    constexpr _Res
    __invoke_impl(__invoke_other, _Fn&& __f, _Args&&... __args)
    { return std::forward<_Fn>(__f)(std::forward<_Args>(__args)...); }
   d5f28:	f100 0110 	add.w	r1, r0, #16
   d5f2c:	f7ff fff1 	bl	d5f12 <_ZNKSt8functionIFvRKN8particle5ErrorEEEclES3_>
      }
   d5f30:	bd08      	pop	{r3, pc}

000d5f32 <_ZNKSt8functionIFvRKbEEclES1_>:
      if (_M_empty())
   d5f32:	6882      	ldr	r2, [r0, #8]
    function<_Res(_ArgTypes...)>::
   d5f34:	b510      	push	{r4, lr}
      if (_M_empty())
   d5f36:	b90a      	cbnz	r2, d5f3c <_ZNKSt8functionIFvRKbEEclES1_+0xa>
	__throw_bad_function_call();
   d5f38:	f001 fa77 	bl	d742a <_ZSt25__throw_bad_function_callv>
    }
   d5f3c:	e8bd 4010 	ldmia.w	sp!, {r4, lr}
      return _M_invoker(_M_functor, std::forward<_ArgTypes>(__args)...);
   d5f40:	68c3      	ldr	r3, [r0, #12]
   d5f42:	4718      	bx	r3

000d5f44 <_ZNSt17_Function_handlerIFvvESt5_BindIFSt8functionIFvRKbEEbEEE9_M_invokeERKSt9_Any_data>:
      _M_invoke(const _Any_data& __functor, _ArgTypes&&... __args)
   d5f44:	b508      	push	{r3, lr}
	    return __source._M_access<_Functor*>();
   d5f46:	6800      	ldr	r0, [r0, #0]
   d5f48:	f100 0110 	add.w	r1, r0, #16
   d5f4c:	f7ff fff1 	bl	d5f32 <_ZNKSt8functionIFvRKbEEclES1_>
      }
   d5f50:	bd08      	pop	{r3, pc}
	...

000d5f54 <_ZNSt14__shared_countILN9__gnu_cxx12_Lock_policyE0EEC1IPN8particle6detail10FutureImplIbNS5_13FutureContextEEEEET_>:
	__shared_count(_Ptr __p) : _M_pi(0)
   d5f54:	b538      	push	{r3, r4, r5, lr}
   d5f56:	2300      	movs	r3, #0
   d5f58:	4604      	mov	r4, r0
   d5f5a:	6003      	str	r3, [r0, #0]
	      _M_pi = new _Sp_counted_ptr<_Ptr, _Lp>(__p);
   d5f5c:	2010      	movs	r0, #16
	__shared_count(_Ptr __p) : _M_pi(0)
   d5f5e:	460d      	mov	r5, r1
	      _M_pi = new _Sp_counted_ptr<_Ptr, _Lp>(__p);
   d5f60:	f7fe f899 	bl	d4096 <_Znwj>
   d5f64:	b128      	cbz	r0, d5f72 <_ZNSt14__shared_countILN9__gnu_cxx12_Lock_policyE0EEC1IPN8particle6detail10FutureImplIbNS5_13FutureContextEEEEET_+0x1e>
      : _M_use_count(1), _M_weak_count(1) { }
   d5f66:	2301      	movs	r3, #1
   d5f68:	e9c0 3301 	strd	r3, r3, [r0, #4]
      : _M_ptr(__p) { }
   d5f6c:	4b02      	ldr	r3, [pc, #8]	; (d5f78 <_ZNSt14__shared_countILN9__gnu_cxx12_Lock_policyE0EEC1IPN8particle6detail10FutureImplIbNS5_13FutureContextEEEEET_+0x24>)
   d5f6e:	6003      	str	r3, [r0, #0]
   d5f70:	60c5      	str	r5, [r0, #12]
	      _M_pi = new _Sp_counted_ptr<_Ptr, _Lp>(__p);
   d5f72:	6020      	str	r0, [r4, #0]
	}
   d5f74:	4620      	mov	r0, r4
   d5f76:	bd38      	pop	{r3, r4, r5, pc}
   d5f78:	000d953c 	.word	0x000d953c

000d5f7c <_ZNSt8functionIFvRKN8particle5ErrorEEEC1ERKS5_>:
    function<_Res(_ArgTypes...)>::
   d5f7c:	b538      	push	{r3, r4, r5, lr}
    _Function_base() : _M_manager(nullptr) { }
   d5f7e:	2300      	movs	r3, #0
   d5f80:	6083      	str	r3, [r0, #8]
      { return !_M_empty(); }
   d5f82:	688b      	ldr	r3, [r1, #8]
    function<_Res(_ArgTypes...)>::
   d5f84:	4604      	mov	r4, r0
   d5f86:	460d      	mov	r5, r1
      if (static_cast<bool>(__x))
   d5f88:	b12b      	cbz	r3, d5f96 <_ZNSt8functionIFvRKN8particle5ErrorEEEC1ERKS5_+0x1a>
	  __x._M_manager(_M_functor, __x._M_functor, __clone_functor);
   d5f8a:	2202      	movs	r2, #2
   d5f8c:	4798      	blx	r3
	  _M_invoker = __x._M_invoker;
   d5f8e:	68eb      	ldr	r3, [r5, #12]
   d5f90:	60e3      	str	r3, [r4, #12]
	  _M_manager = __x._M_manager;
   d5f92:	68ab      	ldr	r3, [r5, #8]
   d5f94:	60a3      	str	r3, [r4, #8]
    }
   d5f96:	4620      	mov	r0, r4
   d5f98:	bd38      	pop	{r3, r4, r5, pc}
	...

000d5f9c <_ZN8particle11PromiseBaseIbNS_6detail13FutureContextEE8setErrorENS_5ErrorE>:
    void setError(Error error) {
   d5f9c:	b5f0      	push	{r4, r5, r6, r7, lr}
   d5f9e:	b089      	sub	sp, #36	; 0x24
      { return static_cast<const __shared_ptr<_Tp, _Lp>*>(this)->get(); }
   d5fa0:	6804      	ldr	r4, [r0, #0]
        p_->setError(std::move(error));
   d5fa2:	4668      	mov	r0, sp
   d5fa4:	f7ff ff4d 	bl	d5e42 <_ZN8particle5ErrorC1EOS0_>

      bool
      compare_exchange_strong(_Tp& __e, _Tp __i, memory_order __s,
			      memory_order __f) noexcept
      {
	return __atomic_compare_exchange(std::__addressof(_M_i),
   d5fa8:	f04f 0302 	mov.w	r3, #2
   d5fac:	e8d4 2f4f 	ldrexb	r2, [r4]
   d5fb0:	2a00      	cmp	r2, #0
   d5fb2:	d103      	bne.n	d5fbc <_ZN8particle11PromiseBaseIbNS_6detail13FutureContextEE8setErrorENS_5ErrorE+0x20>
   d5fb4:	e8c4 3f41 	strexb	r1, r3, [r4]
   d5fb8:	2900      	cmp	r1, #0
   d5fba:	d1f7      	bne.n	d5fac <_ZN8particle11PromiseBaseIbNS_6detail13FutureContextEE8setErrorENS_5ErrorE+0x10>
        if (this->changeState(State::FAILED)) {
   d5fbc:	d125      	bne.n	d600a <_ZN8particle11PromiseBaseIbNS_6detail13FutureContextEE8setErrorENS_5ErrorE+0x6e>
            new(&error_) Error(std::move(error));
   d5fbe:	f104 050c 	add.w	r5, r4, #12
   d5fc2:	4669      	mov	r1, sp
   d5fc4:	4628      	mov	r0, r5
   d5fc6:	f7ff ff3c 	bl	d5e42 <_ZN8particle5ErrorC1EOS0_>
	__atomic_store_n(&_M_i, __i, int(__m));
   d5fca:	f3bf 8f5b 	dmb	ish
   d5fce:	2301      	movs	r3, #1
   d5fd0:	7063      	strb	r3, [r4, #1]

      _GLIBCXX_ALWAYS_INLINE __pointer_type
      exchange(__pointer_type __p,
	       memory_order __m = memory_order_seq_cst) noexcept
      {
	return __atomic_exchange_n(&_M_p, __p, int(__m));
   d5fd2:	2000      	movs	r0, #0
   d5fd4:	f104 0308 	add.w	r3, r4, #8
   d5fd8:	f3bf 8f5b 	dmb	ish
   d5fdc:	e853 6f00 	ldrex	r6, [r3]
   d5fe0:	e843 0200 	strex	r2, r0, [r3]
   d5fe4:	2a00      	cmp	r2, #0
   d5fe6:	d1f9      	bne.n	d5fdc <_ZN8particle11PromiseBaseIbNS_6detail13FutureContextEE8setErrorENS_5ErrorE+0x40>
   d5fe8:	f3bf 8f5b 	dmb	ish
        if (callbackPtr) {
   d5fec:	b16e      	cbz	r6, d600a <_ZN8particle11PromiseBaseIbNS_6detail13FutureContextEE8setErrorENS_5ErrorE+0x6e>
        return (application_thread_current(nullptr) != 0);
   d5fee:	f7ff fe0b 	bl	d5c08 <application_thread_current>
        if (ContextT::isApplicationThreadCurrent()) {
   d5ff2:	b178      	cbz	r0, d6014 <_ZN8particle11PromiseBaseIbNS_6detail13FutureContextEE8setErrorENS_5ErrorE+0x78>
            callback(std::forward<ArgsT>(args)...); // Synchronous call
   d5ff4:	4629      	mov	r1, r5
   d5ff6:	4630      	mov	r0, r6
   d5ff8:	f7ff ff8b 	bl	d5f12 <_ZNKSt8functionIFvRKN8particle5ErrorEEEclES3_>
    class function<_Res(_ArgTypes...)>
   d5ffc:	4630      	mov	r0, r6
   d5ffe:	f7ff ff17 	bl	d5e30 <_ZNSt14_Function_baseD1Ev>
            delete callbackPtr;
   d6002:	2110      	movs	r1, #16
   d6004:	4630      	mov	r0, r6
   d6006:	f001 fa0c 	bl	d7422 <_ZdlPvj>
        p_->setError(std::move(error));
   d600a:	4668      	mov	r0, sp
   d600c:	f7ff ff26 	bl	d5e5c <_ZN8particle5ErrorD1Ev>
    }
   d6010:	b009      	add	sp, #36	; 0x24
   d6012:	bdf0      	pop	{r4, r5, r6, r7, pc}
	  typename __cv_quals<_Bound_args>::type...>;

     public:
      template<typename... _Args>
	explicit _Bind(const _Functor& __f, _Args&&... __args)
	: _M_f(__f), _M_bound_args(std::forward<_Args>(__args)...)
   d6014:	4631      	mov	r1, r6
   d6016:	a802      	add	r0, sp, #8
   d6018:	f7ff ffb0 	bl	d5f7c <_ZNSt8functionIFvRKN8particle5ErrorEEEC1ERKS5_>
        Error(error.type_, error.msg_) {
   d601c:	68e0      	ldr	r0, [r4, #12]
   d601e:	f9b4 5010 	ldrsh.w	r5, [r4, #16]
        msg_(msg ? (const char*)strdup(msg) : nullptr),
   d6022:	b108      	cbz	r0, d6028 <_ZN8particle11PromiseBaseIbNS_6detail13FutureContextEE8setErrorENS_5ErrorE+0x8c>
   d6024:	f003 f8e2 	bl	d91ec <strdup>
        type_(type) {
   d6028:	9006      	str	r0, [sp, #24]
            auto callbackPtr = new std::function<void()>(std::bind(callback, std::forward<ArgsT>(args)...));
   d602a:	2010      	movs	r0, #16
   d602c:	f8ad 501c 	strh.w	r5, [sp, #28]
   d6030:	f7fe f831 	bl	d4096 <_Znwj>
   d6034:	4605      	mov	r5, r0
   d6036:	b1e8      	cbz	r0, d6074 <_ZN8particle11PromiseBaseIbNS_6detail13FutureContextEE8setErrorENS_5ErrorE+0xd8>
    _Function_base() : _M_manager(nullptr) { }
   d6038:	2700      	movs	r7, #0
   d603a:	6087      	str	r7, [r0, #8]
	{ __functor._M_access<_Functor*>() = new _Functor(std::move(__f)); }
   d603c:	2018      	movs	r0, #24
   d603e:	f7fe f82a 	bl	d4096 <_Znwj>
   d6042:	4604      	mov	r4, r0
   d6044:	b188      	cbz	r0, d606a <_ZN8particle11PromiseBaseIbNS_6detail13FutureContextEE8setErrorENS_5ErrorE+0xce>
	std::swap(_M_functor, __x._M_functor);
   d6046:	4601      	mov	r1, r0
    _Function_base() : _M_manager(nullptr) { }
   d6048:	6087      	str	r7, [r0, #8]
	std::swap(_M_functor, __x._M_functor);
   d604a:	a802      	add	r0, sp, #8
   d604c:	f7ff ff4f 	bl	d5eee <_ZSt4swapISt9_Any_dataENSt9enable_ifIXsrSt6__and_IJSt6__not_ISt15__is_tuple_likeIT_EESt21is_move_constructibleIS5_ESt18is_move_assignableIS5_EEE5valueEvE4typeERS5_SF_>
      _Tp __tmp = _GLIBCXX_MOVE(__a);
   d6050:	9b04      	ldr	r3, [sp, #16]
      __a = _GLIBCXX_MOVE(__b);
   d6052:	68a2      	ldr	r2, [r4, #8]
      __b = _GLIBCXX_MOVE(__tmp);
   d6054:	60a3      	str	r3, [r4, #8]
      _Tp __tmp = _GLIBCXX_MOVE(__a);
   d6056:	9b05      	ldr	r3, [sp, #20]
      __a = _GLIBCXX_MOVE(__b);
   d6058:	9204      	str	r2, [sp, #16]
      constexpr _Head_base(const _Head_base&) = default;
      constexpr _Head_base(_Head_base&&) = default;

      template<typename _UHead>
        constexpr _Head_base(_UHead&& __h)
	: _M_head_impl(std::forward<_UHead>(__h)) { }
   d605a:	a906      	add	r1, sp, #24
   d605c:	68e2      	ldr	r2, [r4, #12]
      __b = _GLIBCXX_MOVE(__tmp);
   d605e:	60e3      	str	r3, [r4, #12]
   d6060:	f104 0010 	add.w	r0, r4, #16
      __a = _GLIBCXX_MOVE(__b);
   d6064:	9205      	str	r2, [sp, #20]
   d6066:	f7ff feec 	bl	d5e42 <_ZN8particle5ErrorC1EOS0_>
	    _M_invoker = &_My_handler::_M_invoke;
   d606a:	4b08      	ldr	r3, [pc, #32]	; (d608c <_ZN8particle11PromiseBaseIbNS_6detail13FutureContextEE8setErrorENS_5ErrorE+0xf0>)
   d606c:	60eb      	str	r3, [r5, #12]
	    _M_manager = &_My_handler::_M_manager;
   d606e:	4b08      	ldr	r3, [pc, #32]	; (d6090 <_ZN8particle11PromiseBaseIbNS_6detail13FutureContextEE8setErrorENS_5ErrorE+0xf4>)
	{ __functor._M_access<_Functor*>() = new _Functor(std::move(__f)); }
   d6070:	602c      	str	r4, [r5, #0]
	    _M_manager = &_My_handler::_M_manager;
   d6072:	60ab      	str	r3, [r5, #8]
    struct _Head_base<_Idx, _Head, false>
   d6074:	a806      	add	r0, sp, #24
   d6076:	f7ff fef1 	bl	d5e5c <_ZN8particle5ErrorD1Ev>
    class function<_Res(_ArgTypes...)>
   d607a:	a802      	add	r0, sp, #8
   d607c:	f7ff fed8 	bl	d5e30 <_ZNSt14_Function_baseD1Ev>
        return (application_thread_invoke(callback, data, nullptr) == 0);
   d6080:	2200      	movs	r2, #0
   d6082:	4629      	mov	r1, r5
   d6084:	4803      	ldr	r0, [pc, #12]	; (d6094 <_ZN8particle11PromiseBaseIbNS_6detail13FutureContextEE8setErrorENS_5ErrorE+0xf8>)
   d6086:	f7ff fdc7 	bl	d5c18 <application_thread_invoke>
   d608a:	e7b7      	b.n	d5ffc <_ZN8particle11PromiseBaseIbNS_6detail13FutureContextEE8setErrorENS_5ErrorE+0x60>
   d608c:	000d5f25 	.word	0x000d5f25
   d6090:	000d61bd 	.word	0x000d61bd
   d6094:	000d5da7 	.word	0x000d5da7

000d6098 <_ZN10CloudClass13publish_eventEPKcS1_iN8particle5FlagsI15PublishFlagTypehEE>:
    desc.data = (void*)data;
    desc.funcKey = funcKey;
    return spark_function(NULL, (user_function_int_str_t*)&desc, NULL);
}

Future<bool> CloudClass::publish_event(const char *eventName, const char *eventData, int ttl, PublishFlags flags) {
   d6098:	e92d 47f0 	stmdb	sp!, {r4, r5, r6, r7, r8, r9, sl, lr}
   d609c:	b08a      	sub	sp, #40	; 0x28
   d609e:	4605      	mov	r5, r0
   d60a0:	f89d 9048 	ldrb.w	r9, [sp, #72]	; 0x48
   d60a4:	460c      	mov	r4, r1
   d60a6:	4617      	mov	r7, r2
   d60a8:	4698      	mov	r8, r3
    static void sleep(Spark_Sleep_TypeDef sleepMode, long seconds=0) __attribute__ ((deprecated("Please use System.sleep() instead.")))
    { SystemClass::sleep(sleepMode, seconds); }
    static void sleep(uint16_t wakeUpPin, InterruptMode edgeTriggerMode, long seconds=0) __attribute__ ((deprecated("Please use System.sleep() instead.")))
    { SystemClass::sleep(wakeUpPin, edgeTriggerMode, seconds); }

    static bool connected(void) { return spark_cloud_flag_connected(); }
   d60aa:	f7ff fdd1 	bl	d5c50 <spark_cloud_flag_connected>
   d60ae:	ae07      	add	r6, sp, #28
    if (!connected()) {
   d60b0:	4682      	mov	sl, r0
   d60b2:	bb38      	cbnz	r0, d6104 <_ZN10CloudClass13publish_eventEPKcS1_iN8particle5FlagsI15PublishFlagTypehEE+0x6c>
        type_(type) {
   d60b4:	f64f 732e 	movw	r3, #65326	; 0xff2e
   d60b8:	9005      	str	r0, [sp, #20]
    typedef typename detail::FutureImpl<ResultT, ContextT>::OnSuccessCallback OnSuccessCallback;
    typedef typename detail::FutureImpl<ResultT, ContextT>::OnErrorCallback OnErrorCallback;

    // Construct failed future
    explicit FutureBase(Error error) :
            p_(new detail::FutureImpl<ResultT, ContextT>(std::move(error))) {
   d60ba:	a905      	add	r1, sp, #20
   d60bc:	4630      	mov	r0, r6
   d60be:	f8ad 3018 	strh.w	r3, [sp, #24]
   d60c2:	f7ff febe 	bl	d5e42 <_ZN8particle5ErrorC1EOS0_>
   d60c6:	2014      	movs	r0, #20
   d60c8:	f7fd ffe5 	bl	d4096 <_Znwj>
   d60cc:	4604      	mov	r4, r0
   d60ce:	b148      	cbz	r0, d60e4 <_ZN10CloudClass13publish_eventEPKcS1_iN8particle5FlagsI15PublishFlagTypehEE+0x4c>
      constexpr atomic(_Tp __i) noexcept : _M_i(__i) { }
   d60d0:	2302      	movs	r3, #2
   d60d2:	7003      	strb	r3, [r0, #0]
      constexpr __atomic_base(__int_type __i) noexcept : _M_i (__i) { }
   d60d4:	2301      	movs	r3, #1
      constexpr __atomic_base(__pointer_type __p) noexcept : _M_p (__p) { }
   d60d6:	e9c0 aa01 	strd	sl, sl, [r0, #4]
      constexpr __atomic_base(__int_type __i) noexcept : _M_i (__i) { }
   d60da:	7043      	strb	r3, [r0, #1]
            error_(std::move(error)) {
   d60dc:	4631      	mov	r1, r6
   d60de:	300c      	adds	r0, #12
   d60e0:	f7ff feaf 	bl	d5e42 <_ZN8particle5ErrorC1EOS0_>
	: _M_ptr(__p), _M_refcount(__p, typename is_array<_Tp>::type())
   d60e4:	4628      	mov	r0, r5
	: __shared_count(__p)
   d60e6:	4621      	mov	r1, r4
	: _M_ptr(__p), _M_refcount(__p, typename is_array<_Tp>::type())
   d60e8:	f840 4b04 	str.w	r4, [r0], #4
	: __shared_count(__p)
   d60ec:	f7ff ff32 	bl	d5f54 <_ZNSt14__shared_countILN9__gnu_cxx12_Lock_policyE0EEC1IPN8particle6detail10FutureImplIbNS5_13FutureContextEEEEET_>
            p_(new detail::FutureImpl<ResultT, ContextT>(std::move(error))) {
   d60f0:	4630      	mov	r0, r6
   d60f2:	f7ff feb3 	bl	d5e5c <_ZN8particle5ErrorD1Ev>
    }

    explicit FutureBase(Error::Type error) :
            FutureBase(Error(error)) {
   d60f6:	a805      	add	r0, sp, #20
   d60f8:	f7ff feb0 	bl	d5e5c <_ZN8particle5ErrorD1Ev>
        p.setError(Error::UNKNOWN);
        p.fromDataPtr(d.handler_data); // Free wrapper object
    }

    return p.future();
}
   d60fc:	4628      	mov	r0, r5
   d60fe:	b00a      	add	sp, #40	; 0x28
   d6100:	e8bd 87f0 	ldmia.w	sp!, {r4, r5, r6, r7, r8, r9, sl, pc}
    spark_send_event_data d = { sizeof(spark_send_event_data) };
   d6104:	230c      	movs	r3, #12
   d6106:	f04f 0a00 	mov.w	sl, #0
            p_(new detail::FutureImpl<ResultT, ContextT>(State::RUNNING)) {
   d610a:	2014      	movs	r0, #20
   d610c:	e9cd aa08 	strd	sl, sl, [sp, #32]
   d6110:	9307      	str	r3, [sp, #28]
   d6112:	f7fd ffc0 	bl	d4096 <_Znwj>
   d6116:	4601      	mov	r1, r0
   d6118:	b128      	cbz	r0, d6126 <_ZN10CloudClass13publish_eventEPKcS1_iN8particle5FlagsI15PublishFlagTypehEE+0x8e>
      constexpr __atomic_base(__pointer_type __p) noexcept : _M_p (__p) { }
   d611a:	e9c0 aa01 	strd	sl, sl, [r0, #4]
   d611e:	f880 a000 	strb.w	sl, [r0]
      constexpr __atomic_base(__int_type __i) noexcept : _M_i (__i) { }
   d6122:	f880 a001 	strb.w	sl, [r0, #1]
   d6126:	a804      	add	r0, sp, #16
	: _M_ptr(__p), _M_refcount(__p, typename is_array<_Tp>::type())
   d6128:	9103      	str	r1, [sp, #12]
	: __shared_count(__p)
   d612a:	f7ff ff13 	bl	d5f54 <_ZNSt14__shared_countILN9__gnu_cxx12_Lock_policyE0EEC1IPN8particle6detail10FutureImplIbNS5_13FutureContextEEEEET_>
    d.handler_callback = publishCompletionCallback;
   d612e:	4b22      	ldr	r3, [pc, #136]	; (d61b8 <_ZN10CloudClass13publish_eventEPKcS1_iN8particle5FlagsI15PublishFlagTypehEE+0x120>)
   d6130:	9308      	str	r3, [sp, #32]
        return new detail::FutureImplPtr<ResultT, ContextT>(p_);
   d6132:	2008      	movs	r0, #8
   d6134:	f7fd ffaf 	bl	d4096 <_Znwj>
   d6138:	4682      	mov	sl, r0
   d613a:	b128      	cbz	r0, d6148 <_ZN10CloudClass13publish_eventEPKcS1_iN8particle5FlagsI15PublishFlagTypehEE+0xb0>
      __shared_ptr(const __shared_ptr&) noexcept = default;
   d613c:	9b03      	ldr	r3, [sp, #12]
   d613e:	f840 3b04 	str.w	r3, [r0], #4
   d6142:	a904      	add	r1, sp, #16
   d6144:	f7ff fe4b 	bl	d5dde <_ZNSt14__shared_countILN9__gnu_cxx12_Lock_policyE0EEC1ERKS2_>
    if (!spark_send_event(eventName, eventData, ttl, flags.value(), &d) && !p.isDone()) {
   d6148:	9600      	str	r6, [sp, #0]
   d614a:	fa5f f389 	uxtb.w	r3, r9
   d614e:	4642      	mov	r2, r8
   d6150:	4639      	mov	r1, r7
   d6152:	4620      	mov	r0, r4
    d.handler_data = p.dataPtr();
   d6154:	f8cd a024 	str.w	sl, [sp, #36]	; 0x24
    if (!spark_send_event(eventName, eventData, ttl, flags.value(), &d) && !p.isDone()) {
   d6158:	f7ff fd82 	bl	d5c60 <spark_send_event>
   d615c:	b9b8      	cbnz	r0, d618e <_ZN10CloudClass13publish_eventEPKcS1_iN8particle5FlagsI15PublishFlagTypehEE+0xf6>
	return __atomic_load_n(&_M_i, int(__m));
   d615e:	9b03      	ldr	r3, [sp, #12]
   d6160:	785b      	ldrb	r3, [r3, #1]
   d6162:	f003 02ff 	and.w	r2, r3, #255	; 0xff
   d6166:	b993      	cbnz	r3, d618e <_ZN10CloudClass13publish_eventEPKcS1_iN8particle5FlagsI15PublishFlagTypehEE+0xf6>
   d6168:	f64f 739c 	movw	r3, #65436	; 0xff9c
        p.setError(Error::UNKNOWN);
   d616c:	a905      	add	r1, sp, #20
   d616e:	a803      	add	r0, sp, #12
   d6170:	9205      	str	r2, [sp, #20]
   d6172:	f8ad 3018 	strh.w	r3, [sp, #24]
   d6176:	f7ff ff11 	bl	d5f9c <_ZN8particle11PromiseBaseIbNS_6detail13FutureContextEE8setErrorENS_5ErrorE>
   d617a:	a805      	add	r0, sp, #20
   d617c:	f7ff fe6e 	bl	d5e5c <_ZN8particle5ErrorD1Ev>
        p.fromDataPtr(d.handler_data); // Free wrapper object
   d6180:	a805      	add	r0, sp, #20
   d6182:	9909      	ldr	r1, [sp, #36]	; 0x24
   d6184:	f7ff fe94 	bl	d5eb0 <_ZN8particle11PromiseBaseIbNS_6detail13FutureContextEE11fromDataPtrEPv>
      ~__shared_ptr() = default;
   d6188:	a806      	add	r0, sp, #24
   d618a:	f7fe fd6d 	bl	d4c68 <_ZNSt14__shared_countILN9__gnu_cxx12_Lock_policyE0EED1Ev>
      __shared_ptr(const __shared_ptr&) noexcept = default;
   d618e:	9b03      	ldr	r3, [sp, #12]
   d6190:	9305      	str	r3, [sp, #20]
   d6192:	a904      	add	r1, sp, #16
   d6194:	a806      	add	r0, sp, #24
   d6196:	f7ff fe22 	bl	d5dde <_ZNSt14__shared_countILN9__gnu_cxx12_Lock_policyE0EEC1ERKS2_>
      : _M_ptr(__r._M_ptr), _M_refcount()
   d619a:	9b05      	ldr	r3, [sp, #20]
	_Sp_counted_base<_Lp>* __tmp = __r._M_pi;
   d619c:	9a06      	ldr	r2, [sp, #24]
      : _M_ptr(__r._M_ptr), _M_refcount()
   d619e:	602b      	str	r3, [r5, #0]
	_M_pi = __tmp;
   d61a0:	606a      	str	r2, [r5, #4]
	__r._M_pi = _M_pi;
   d61a2:	2300      	movs	r3, #0
      ~__shared_ptr() = default;
   d61a4:	a806      	add	r0, sp, #24
	__r._M_pi = _M_pi;
   d61a6:	9306      	str	r3, [sp, #24]
	__r._M_ptr = 0;
   d61a8:	9305      	str	r3, [sp, #20]
      ~__shared_ptr() = default;
   d61aa:	f7fe fd5d 	bl	d4c68 <_ZNSt14__shared_countILN9__gnu_cxx12_Lock_policyE0EED1Ev>
   d61ae:	a804      	add	r0, sp, #16
   d61b0:	f7fe fd5a 	bl	d4c68 <_ZNSt14__shared_countILN9__gnu_cxx12_Lock_policyE0EED1Ev>
class Promise: public PromiseBase<ResultT, ContextT> {
   d61b4:	e7a2      	b.n	d60fc <_ZN10CloudClass13publish_eventEPKcS1_iN8particle5FlagsI15PublishFlagTypehEE+0x64>
   d61b6:	bf00      	nop
   d61b8:	000d6281 	.word	0x000d6281

000d61bc <_ZNSt14_Function_base13_Base_managerISt5_BindIFSt8functionIFvRKN8particle5ErrorEEES4_EEE10_M_managerERSt9_Any_dataRKSC_St18_Manager_operation>:
	  switch (__op)
   d61bc:	2a02      	cmp	r2, #2
	_M_manager(_Any_data& __dest, const _Any_data& __source,
   d61be:	b5f8      	push	{r3, r4, r5, r6, r7, lr}
   d61c0:	4605      	mov	r5, r0
	  switch (__op)
   d61c2:	d007      	beq.n	d61d4 <_ZNSt14_Function_base13_Base_managerISt5_BindIFSt8functionIFvRKN8particle5ErrorEEES4_EEE10_M_managerERSt9_Any_dataRKSC_St18_Manager_operation+0x18>
   d61c4:	2a03      	cmp	r2, #3
   d61c6:	d018      	beq.n	d61fa <_ZNSt14_Function_base13_Base_managerISt5_BindIFSt8functionIFvRKN8particle5ErrorEEES4_EEE10_M_managerERSt9_Any_dataRKSC_St18_Manager_operation+0x3e>
   d61c8:	2a01      	cmp	r2, #1
   d61ca:	d101      	bne.n	d61d0 <_ZNSt14_Function_base13_Base_managerISt5_BindIFSt8functionIFvRKN8particle5ErrorEEES4_EEE10_M_managerERSt9_Any_dataRKSC_St18_Manager_operation+0x14>
	    return __source._M_access<_Functor*>();
   d61cc:	680b      	ldr	r3, [r1, #0]
	      __dest._M_access<_Functor*>() = _M_get_pointer(__source);
   d61ce:	6003      	str	r3, [r0, #0]
	}
   d61d0:	2000      	movs	r0, #0
   d61d2:	bdf8      	pop	{r3, r4, r5, r6, r7, pc}
	    new _Functor(*__source._M_access<const _Functor*>());
   d61d4:	2018      	movs	r0, #24
	  __dest._M_access<_Functor*>() =
   d61d6:	680e      	ldr	r6, [r1, #0]
	    new _Functor(*__source._M_access<const _Functor*>());
   d61d8:	f7fd ff5d 	bl	d4096 <_Znwj>
   d61dc:	4604      	mov	r4, r0
   d61de:	b150      	cbz	r0, d61f6 <_ZNSt14_Function_base13_Base_managerISt5_BindIFSt8functionIFvRKN8particle5ErrorEEES4_EEE10_M_managerERSt9_Any_dataRKSC_St18_Manager_operation+0x3a>
      template<typename... _Args>
	explicit _Bind(_Functor&& __f, _Args&&... __args)
	: _M_f(std::move(__f)), _M_bound_args(std::forward<_Args>(__args)...)
	{ }

      _Bind(const _Bind&) = default;
   d61e0:	4631      	mov	r1, r6
   d61e2:	f7ff fecb 	bl	d5f7c <_ZNSt8functionIFvRKN8particle5ErrorEEEC1ERKS5_>
        Error(error.type_, error.msg_) {
   d61e6:	6930      	ldr	r0, [r6, #16]
   d61e8:	f9b6 7014 	ldrsh.w	r7, [r6, #20]
        msg_(msg ? (const char*)strdup(msg) : nullptr),
   d61ec:	b108      	cbz	r0, d61f2 <_ZNSt14_Function_base13_Base_managerISt5_BindIFSt8functionIFvRKN8particle5ErrorEEES4_EEE10_M_managerERSt9_Any_dataRKSC_St18_Manager_operation+0x36>
   d61ee:	f002 fffd 	bl	d91ec <strdup>
        type_(type) {
   d61f2:	6120      	str	r0, [r4, #16]
   d61f4:	82a7      	strh	r7, [r4, #20]
	  __dest._M_access<_Functor*>() =
   d61f6:	602c      	str	r4, [r5, #0]
	}
   d61f8:	e7ea      	b.n	d61d0 <_ZNSt14_Function_base13_Base_managerISt5_BindIFSt8functionIFvRKN8particle5ErrorEEES4_EEE10_M_managerERSt9_Any_dataRKSC_St18_Manager_operation+0x14>
	  delete __victim._M_access<_Functor*>();
   d61fa:	6804      	ldr	r4, [r0, #0]
   d61fc:	2c00      	cmp	r4, #0
   d61fe:	d0e7      	beq.n	d61d0 <_ZNSt14_Function_base13_Base_managerISt5_BindIFSt8functionIFvRKN8particle5ErrorEEES4_EEE10_M_managerERSt9_Any_dataRKSC_St18_Manager_operation+0x14>
   d6200:	f104 0010 	add.w	r0, r4, #16
   d6204:	f7ff fe2a 	bl	d5e5c <_ZN8particle5ErrorD1Ev>
    class function<_Res(_ArgTypes...)>
   d6208:	4620      	mov	r0, r4
   d620a:	f7ff fe11 	bl	d5e30 <_ZNSt14_Function_baseD1Ev>
	  delete __victim._M_access<_Functor*>();
   d620e:	2118      	movs	r1, #24
   d6210:	4620      	mov	r0, r4
   d6212:	f001 f906 	bl	d7422 <_ZdlPvj>
   d6216:	e7db      	b.n	d61d0 <_ZNSt14_Function_base13_Base_managerISt5_BindIFSt8functionIFvRKN8particle5ErrorEEES4_EEE10_M_managerERSt9_Any_dataRKSC_St18_Manager_operation+0x14>

000d6218 <_ZNSt8functionIFvRKbEEC1ERKS3_>:
    function<_Res(_ArgTypes...)>::
   d6218:	b538      	push	{r3, r4, r5, lr}
    _Function_base() : _M_manager(nullptr) { }
   d621a:	2300      	movs	r3, #0
   d621c:	6083      	str	r3, [r0, #8]
      { return !_M_empty(); }
   d621e:	688b      	ldr	r3, [r1, #8]
    function<_Res(_ArgTypes...)>::
   d6220:	4604      	mov	r4, r0
   d6222:	460d      	mov	r5, r1
      if (static_cast<bool>(__x))
   d6224:	b12b      	cbz	r3, d6232 <_ZNSt8functionIFvRKbEEC1ERKS3_+0x1a>
	  __x._M_manager(_M_functor, __x._M_functor, __clone_functor);
   d6226:	2202      	movs	r2, #2
   d6228:	4798      	blx	r3
	  _M_invoker = __x._M_invoker;
   d622a:	68eb      	ldr	r3, [r5, #12]
   d622c:	60e3      	str	r3, [r4, #12]
	  _M_manager = __x._M_manager;
   d622e:	68ab      	ldr	r3, [r5, #8]
   d6230:	60a3      	str	r3, [r4, #8]
    }
   d6232:	4620      	mov	r0, r4
   d6234:	bd38      	pop	{r3, r4, r5, pc}

000d6236 <_ZNSt14_Function_base13_Base_managerISt5_BindIFSt8functionIFvRKbEEbEEE10_M_managerERSt9_Any_dataRKSA_St18_Manager_operation>:
	  switch (__op)
   d6236:	2a02      	cmp	r2, #2
	_M_manager(_Any_data& __dest, const _Any_data& __source,
   d6238:	b570      	push	{r4, r5, r6, lr}
   d623a:	4604      	mov	r4, r0
	  switch (__op)
   d623c:	d007      	beq.n	d624e <_ZNSt14_Function_base13_Base_managerISt5_BindIFSt8functionIFvRKbEEbEEE10_M_managerERSt9_Any_dataRKSA_St18_Manager_operation+0x18>
   d623e:	2a03      	cmp	r2, #3
   d6240:	d012      	beq.n	d6268 <_ZNSt14_Function_base13_Base_managerISt5_BindIFSt8functionIFvRKbEEbEEE10_M_managerERSt9_Any_dataRKSA_St18_Manager_operation+0x32>
   d6242:	2a01      	cmp	r2, #1
   d6244:	d101      	bne.n	d624a <_ZNSt14_Function_base13_Base_managerISt5_BindIFSt8functionIFvRKbEEbEEE10_M_managerERSt9_Any_dataRKSA_St18_Manager_operation+0x14>
	    return __source._M_access<_Functor*>();
   d6246:	680b      	ldr	r3, [r1, #0]
	      __dest._M_access<_Functor*>() = _M_get_pointer(__source);
   d6248:	6003      	str	r3, [r0, #0]
	}
   d624a:	2000      	movs	r0, #0
   d624c:	bd70      	pop	{r4, r5, r6, pc}
	    new _Functor(*__source._M_access<const _Functor*>());
   d624e:	2014      	movs	r0, #20
	  __dest._M_access<_Functor*>() =
   d6250:	680e      	ldr	r6, [r1, #0]
	    new _Functor(*__source._M_access<const _Functor*>());
   d6252:	f7fd ff20 	bl	d4096 <_Znwj>
   d6256:	4605      	mov	r5, r0
   d6258:	b120      	cbz	r0, d6264 <_ZNSt14_Function_base13_Base_managerISt5_BindIFSt8functionIFvRKbEEbEEE10_M_managerERSt9_Any_dataRKSA_St18_Manager_operation+0x2e>
   d625a:	4631      	mov	r1, r6
   d625c:	f7ff ffdc 	bl	d6218 <_ZNSt8functionIFvRKbEEC1ERKS3_>
   d6260:	7c33      	ldrb	r3, [r6, #16]
   d6262:	742b      	strb	r3, [r5, #16]
	  __dest._M_access<_Functor*>() =
   d6264:	6025      	str	r5, [r4, #0]
	}
   d6266:	e7f0      	b.n	d624a <_ZNSt14_Function_base13_Base_managerISt5_BindIFSt8functionIFvRKbEEbEEE10_M_managerERSt9_Any_dataRKSA_St18_Manager_operation+0x14>
	  delete __victim._M_access<_Functor*>();
   d6268:	6804      	ldr	r4, [r0, #0]
   d626a:	2c00      	cmp	r4, #0
   d626c:	d0ed      	beq.n	d624a <_ZNSt14_Function_base13_Base_managerISt5_BindIFSt8functionIFvRKbEEbEEE10_M_managerERSt9_Any_dataRKSA_St18_Manager_operation+0x14>
    class function<_Res(_ArgTypes...)>
   d626e:	4620      	mov	r0, r4
   d6270:	f7ff fdde 	bl	d5e30 <_ZNSt14_Function_baseD1Ev>
	  delete __victim._M_access<_Functor*>();
   d6274:	2114      	movs	r1, #20
   d6276:	4620      	mov	r0, r4
   d6278:	f001 f8d3 	bl	d7422 <_ZdlPvj>
   d627c:	e7e5      	b.n	d624a <_ZNSt14_Function_base13_Base_managerISt5_BindIFSt8functionIFvRKbEEbEEE10_M_managerERSt9_Any_dataRKSA_St18_Manager_operation+0x14>
	...

000d6280 <_ZN12_GLOBAL__N_125publishCompletionCallbackEiPKvPvS2_>:
void publishCompletionCallback(int error, const void* data, void* callbackData, void* reserved) {
   d6280:	b5f0      	push	{r4, r5, r6, r7, lr}
   d6282:	b089      	sub	sp, #36	; 0x24
   d6284:	4604      	mov	r4, r0
   d6286:	460d      	mov	r5, r1
    auto p = Promise<bool>::fromDataPtr(callbackData);
   d6288:	a801      	add	r0, sp, #4
   d628a:	4611      	mov	r1, r2
   d628c:	f7ff fe10 	bl	d5eb0 <_ZN8particle11PromiseBaseIbNS_6detail13FutureContextEE11fromDataPtrEPv>
    if (error != Error::NONE) {
   d6290:	b1a4      	cbz	r4, d62bc <_ZN12_GLOBAL__N_125publishCompletionCallbackEiPKvPvS2_+0x3c>
        p.setError(Error((Error::Type)error, (const char*)data));
   d6292:	b224      	sxth	r4, r4
        msg_(msg ? (const char*)strdup(msg) : nullptr),
   d6294:	b11d      	cbz	r5, d629e <_ZN12_GLOBAL__N_125publishCompletionCallbackEiPKvPvS2_+0x1e>
   d6296:	4628      	mov	r0, r5
   d6298:	f002 ffa8 	bl	d91ec <strdup>
   d629c:	4605      	mov	r5, r0
   d629e:	a801      	add	r0, sp, #4
   d62a0:	a903      	add	r1, sp, #12
        type_(type) {
   d62a2:	9503      	str	r5, [sp, #12]
   d62a4:	f8ad 4010 	strh.w	r4, [sp, #16]
   d62a8:	f7ff fe78 	bl	d5f9c <_ZN8particle11PromiseBaseIbNS_6detail13FutureContextEE8setErrorENS_5ErrorE>
   d62ac:	a803      	add	r0, sp, #12
   d62ae:	f7ff fdd5 	bl	d5e5c <_ZN8particle5ErrorD1Ev>
   d62b2:	a802      	add	r0, sp, #8
   d62b4:	f7fe fcd8 	bl	d4c68 <_ZNSt14__shared_countILN9__gnu_cxx12_Lock_policyE0EED1Ev>
}
   d62b8:	b009      	add	sp, #36	; 0x24
   d62ba:	bdf0      	pop	{r4, r5, r6, r7, pc}
      { return static_cast<const __shared_ptr<_Tp, _Lp>*>(this)->get(); }
   d62bc:	9d01      	ldr	r5, [sp, #4]
	return __atomic_compare_exchange(std::__addressof(_M_i),
   d62be:	2301      	movs	r3, #1
   d62c0:	e8d5 2f4f 	ldrexb	r2, [r5]
   d62c4:	2a00      	cmp	r2, #0
   d62c6:	d103      	bne.n	d62d0 <_ZN12_GLOBAL__N_125publishCompletionCallbackEiPKvPvS2_+0x50>
   d62c8:	e8c5 3f41 	strexb	r1, r3, [r5]
   d62cc:	2900      	cmp	r1, #0
   d62ce:	d1f7      	bne.n	d62c0 <_ZN12_GLOBAL__N_125publishCompletionCallbackEiPKvPvS2_+0x40>
        if (this->changeState(State::SUCCEEDED)) {
   d62d0:	d1ef      	bne.n	d62b2 <_ZN12_GLOBAL__N_125publishCompletionCallbackEiPKvPvS2_+0x32>
            new(&result_) ResultT(std::move(result));
   d62d2:	732b      	strb	r3, [r5, #12]
	__atomic_store_n(&_M_i, __i, int(__m));
   d62d4:	f3bf 8f5b 	dmb	ish
   d62d8:	706b      	strb	r3, [r5, #1]
	return __atomic_exchange_n(&_M_p, __p, int(__m));
   d62da:	1d2b      	adds	r3, r5, #4
   d62dc:	f3bf 8f5b 	dmb	ish
   d62e0:	e853 6f00 	ldrex	r6, [r3]
   d62e4:	e843 4200 	strex	r2, r4, [r3]
   d62e8:	2a00      	cmp	r2, #0
   d62ea:	d1f9      	bne.n	d62e0 <_ZN12_GLOBAL__N_125publishCompletionCallbackEiPKvPvS2_+0x60>
   d62ec:	f3bf 8f5b 	dmb	ish
        if (callbackPtr) {
   d62f0:	2e00      	cmp	r6, #0
   d62f2:	d0de      	beq.n	d62b2 <_ZN12_GLOBAL__N_125publishCompletionCallbackEiPKvPvS2_+0x32>
        return (application_thread_current(nullptr) != 0);
   d62f4:	4620      	mov	r0, r4
   d62f6:	f7ff fc87 	bl	d5c08 <application_thread_current>
        if (ContextT::isApplicationThreadCurrent()) {
   d62fa:	4607      	mov	r7, r0
   d62fc:	b160      	cbz	r0, d6318 <_ZN12_GLOBAL__N_125publishCompletionCallbackEiPKvPvS2_+0x98>
            callback(std::forward<ArgsT>(args)...); // Synchronous call
   d62fe:	f105 010c 	add.w	r1, r5, #12
   d6302:	4630      	mov	r0, r6
   d6304:	f7ff fe15 	bl	d5f32 <_ZNKSt8functionIFvRKbEEclES1_>
    class function<_Res(_ArgTypes...)>
   d6308:	4630      	mov	r0, r6
   d630a:	f7ff fd91 	bl	d5e30 <_ZNSt14_Function_baseD1Ev>
            delete callbackPtr;
   d630e:	2110      	movs	r1, #16
   d6310:	4630      	mov	r0, r6
   d6312:	f001 f886 	bl	d7422 <_ZdlPvj>
   d6316:	e7cc      	b.n	d62b2 <_ZN12_GLOBAL__N_125publishCompletionCallbackEiPKvPvS2_+0x32>
	: _M_f(__f), _M_bound_args(std::forward<_Args>(__args)...)
   d6318:	4631      	mov	r1, r6
   d631a:	a803      	add	r0, sp, #12
   d631c:	f7ff ff7c 	bl	d6218 <_ZNSt8functionIFvRKbEEC1ERKS3_>
	: _M_head_impl(std::forward<_UHead>(__h)) { }
   d6320:	7b2b      	ldrb	r3, [r5, #12]
   d6322:	f88d 301c 	strb.w	r3, [sp, #28]
            auto callbackPtr = new std::function<void()>(std::bind(callback, std::forward<ArgsT>(args)...));
   d6326:	2010      	movs	r0, #16
   d6328:	f7fd feb5 	bl	d4096 <_Znwj>
   d632c:	4605      	mov	r5, r0
   d632e:	b1d0      	cbz	r0, d6366 <_ZN12_GLOBAL__N_125publishCompletionCallbackEiPKvPvS2_+0xe6>
    _Function_base() : _M_manager(nullptr) { }
   d6330:	6087      	str	r7, [r0, #8]
	{ __functor._M_access<_Functor*>() = new _Functor(std::move(__f)); }
   d6332:	2014      	movs	r0, #20
   d6334:	f7fd feaf 	bl	d4096 <_Znwj>
   d6338:	4604      	mov	r4, r0
   d633a:	b178      	cbz	r0, d635c <_ZN12_GLOBAL__N_125publishCompletionCallbackEiPKvPvS2_+0xdc>
    _Function_base() : _M_manager(nullptr) { }
   d633c:	6087      	str	r7, [r0, #8]
	std::swap(_M_functor, __x._M_functor);
   d633e:	4601      	mov	r1, r0
   d6340:	a803      	add	r0, sp, #12
   d6342:	f7ff fdd4 	bl	d5eee <_ZSt4swapISt9_Any_dataENSt9enable_ifIXsrSt6__and_IJSt6__not_ISt15__is_tuple_likeIT_EESt21is_move_constructibleIS5_ESt18is_move_assignableIS5_EEE5valueEvE4typeERS5_SF_>
      _Tp __tmp = _GLIBCXX_MOVE(__a);
   d6346:	9b05      	ldr	r3, [sp, #20]
      __a = _GLIBCXX_MOVE(__b);
   d6348:	68a2      	ldr	r2, [r4, #8]
      __b = _GLIBCXX_MOVE(__tmp);
   d634a:	60a3      	str	r3, [r4, #8]
      _Tp __tmp = _GLIBCXX_MOVE(__a);
   d634c:	9b06      	ldr	r3, [sp, #24]
      __a = _GLIBCXX_MOVE(__b);
   d634e:	9205      	str	r2, [sp, #20]
   d6350:	68e2      	ldr	r2, [r4, #12]
      __b = _GLIBCXX_MOVE(__tmp);
   d6352:	60e3      	str	r3, [r4, #12]
   d6354:	f89d 301c 	ldrb.w	r3, [sp, #28]
      __a = _GLIBCXX_MOVE(__b);
   d6358:	9206      	str	r2, [sp, #24]
   d635a:	7423      	strb	r3, [r4, #16]
	    _M_invoker = &_My_handler::_M_invoke;
   d635c:	4b06      	ldr	r3, [pc, #24]	; (d6378 <_ZN12_GLOBAL__N_125publishCompletionCallbackEiPKvPvS2_+0xf8>)
   d635e:	60eb      	str	r3, [r5, #12]
	    _M_manager = &_My_handler::_M_manager;
   d6360:	4b06      	ldr	r3, [pc, #24]	; (d637c <_ZN12_GLOBAL__N_125publishCompletionCallbackEiPKvPvS2_+0xfc>)
	{ __functor._M_access<_Functor*>() = new _Functor(std::move(__f)); }
   d6362:	602c      	str	r4, [r5, #0]
	    _M_manager = &_My_handler::_M_manager;
   d6364:	60ab      	str	r3, [r5, #8]
    class function<_Res(_ArgTypes...)>
   d6366:	a803      	add	r0, sp, #12
   d6368:	f7ff fd62 	bl	d5e30 <_ZNSt14_Function_baseD1Ev>
        return (application_thread_invoke(callback, data, nullptr) == 0);
   d636c:	2200      	movs	r2, #0
   d636e:	4629      	mov	r1, r5
   d6370:	4803      	ldr	r0, [pc, #12]	; (d6380 <_ZN12_GLOBAL__N_125publishCompletionCallbackEiPKvPvS2_+0x100>)
   d6372:	f7ff fc51 	bl	d5c18 <application_thread_invoke>
   d6376:	e7c7      	b.n	d6308 <_ZN12_GLOBAL__N_125publishCompletionCallbackEiPKvPvS2_+0x88>
   d6378:	000d5f45 	.word	0x000d5f45
   d637c:	000d6237 	.word	0x000d6237
   d6380:	000d5da7 	.word	0x000d5da7

000d6384 <_ZN5spark13EthernetClass9listeningEv>:
    uint16_t getListenTimeout(void) {
        return network_get_listen_timeout(*this, 0, NULL);
    }

    bool listening(void) {
        return network_listening(*this, 0, NULL);
   d6384:	2200      	movs	r2, #0
   d6386:	6840      	ldr	r0, [r0, #4]
   d6388:	4611      	mov	r1, r2
   d638a:	f7ff bcb1 	b.w	d5cf0 <network_listening>

000d638e <_ZN5spark13EthernetClass16getListenTimeoutEv>:
        return network_get_listen_timeout(*this, 0, NULL);
   d638e:	2200      	movs	r2, #0
   d6390:	6840      	ldr	r0, [r0, #4]
   d6392:	4611      	mov	r1, r2
   d6394:	f7ff bcbc 	b.w	d5d10 <network_get_listen_timeout>

000d6398 <_ZN5spark13EthernetClass16setListenTimeoutEt>:
        network_set_listen_timeout(*this, timeout, NULL);
   d6398:	6840      	ldr	r0, [r0, #4]
   d639a:	2200      	movs	r2, #0
   d639c:	f7ff bcb0 	b.w	d5d00 <network_set_listen_timeout>

000d63a0 <_ZN5spark13EthernetClass6listenEb>:
        network_listen(*this, begin ? 0 : 1, NULL);
   d63a0:	6840      	ldr	r0, [r0, #4]
   d63a2:	2200      	movs	r2, #0
   d63a4:	f081 0101 	eor.w	r1, r1, #1
   d63a8:	f7ff bc9a 	b.w	d5ce0 <network_listen>

000d63ac <_ZN5spark13EthernetClass3offEv>:
        network_off(*this, 0, 0, NULL);
   d63ac:	2300      	movs	r3, #0
   d63ae:	6840      	ldr	r0, [r0, #4]
   d63b0:	461a      	mov	r2, r3
   d63b2:	4619      	mov	r1, r3
   d63b4:	f7ff bc8c 	b.w	d5cd0 <network_off>

000d63b8 <_ZN5spark13EthernetClass2onEv>:
        network_on(*this, 0, 0, NULL);
   d63b8:	2300      	movs	r3, #0
   d63ba:	6840      	ldr	r0, [r0, #4]
   d63bc:	461a      	mov	r2, r3
   d63be:	4619      	mov	r1, r3
   d63c0:	f7ff bc7e 	b.w	d5cc0 <network_on>

000d63c4 <_ZN5spark13EthernetClass5readyEv>:
    }

    bool ready() {
        return network_ready(*this, 0,  NULL);
   d63c4:	2200      	movs	r2, #0
   d63c6:	6840      	ldr	r0, [r0, #4]
   d63c8:	4611      	mov	r1, r2
   d63ca:	f7ff bc71 	b.w	d5cb0 <network_ready>

000d63ce <_ZN5spark13EthernetClass10connectingEv>:
        return network_connecting(*this, 0, NULL);
   d63ce:	2200      	movs	r2, #0
   d63d0:	6840      	ldr	r0, [r0, #4]
   d63d2:	4611      	mov	r1, r2
   d63d4:	f7ff bc5c 	b.w	d5c90 <network_connecting>

000d63d8 <_ZN5spark13EthernetClass10disconnectEv>:
        network_disconnect(*this, NETWORK_DISCONNECT_REASON_USER, NULL);
   d63d8:	6840      	ldr	r0, [r0, #4]
   d63da:	2200      	movs	r2, #0
   d63dc:	2102      	movs	r1, #2
   d63de:	f7ff bc5f 	b.w	d5ca0 <network_disconnect>

000d63e2 <_ZN5spark13EthernetClass7connectEj>:
        network_connect(*this, flags, 0, NULL);
   d63e2:	2300      	movs	r3, #0
   d63e4:	6840      	ldr	r0, [r0, #4]
   d63e6:	461a      	mov	r2, r3
   d63e8:	f7ff bc4a 	b.w	d5c80 <network_connect>

000d63ec <_GLOBAL__sub_I__ZN5spark8EthernetE>:
    static NetworkClass& from(network_interface_t nif);

    virtual IPAddress resolve(const char* name);

    explicit NetworkClass(network_interface_t iface)
            : iface_(iface) {
   d63ec:	4b02      	ldr	r3, [pc, #8]	; (d63f8 <_GLOBAL__sub_I__ZN5spark8EthernetE+0xc>)
   d63ee:	2203      	movs	r2, #3
   d63f0:	605a      	str	r2, [r3, #4]
            NetworkClass(NETWORK_INTERFACE_ETHERNET) {
   d63f2:	4a02      	ldr	r2, [pc, #8]	; (d63fc <_GLOBAL__sub_I__ZN5spark8EthernetE+0x10>)
   d63f4:	601a      	str	r2, [r3, #0]

namespace spark {

EthernetClass Ethernet;

} // spark
   d63f6:	4770      	bx	lr
   d63f8:	2003e60c 	.word	0x2003e60c
   d63fc:	000d9558 	.word	0x000d9558

000d6400 <_ZN7TwoWireD1Ev>:
private:
  hal_i2c_interface_t _i2c;

public:
  TwoWire(hal_i2c_interface_t i2c, const hal_i2c_config_t& config);
  virtual ~TwoWire() {};
   d6400:	4770      	bx	lr

000d6402 <_ZN7TwoWire5writeEPKhj>:

// must be called in:
// slave tx event callback
// or after beginTransmission(address)
size_t TwoWire::write(const uint8_t *data, size_t quantity)
{
   d6402:	b5f8      	push	{r3, r4, r5, r6, r7, lr}
   d6404:	4606      	mov	r6, r0
   d6406:	4615      	mov	r5, r2
   d6408:	460c      	mov	r4, r1
   d640a:	188f      	adds	r7, r1, r2
  // in master/slave transmitter mode
  for(size_t i = 0; i < quantity; ++i)
   d640c:	42bc      	cmp	r4, r7
   d640e:	d006      	beq.n	d641e <_ZN7TwoWire5writeEPKhj+0x1c>
  {
    write(data[i]);
   d6410:	6833      	ldr	r3, [r6, #0]
   d6412:	f814 1b01 	ldrb.w	r1, [r4], #1
   d6416:	689b      	ldr	r3, [r3, #8]
   d6418:	4630      	mov	r0, r6
   d641a:	4798      	blx	r3
  for(size_t i = 0; i < quantity; ++i)
   d641c:	e7f6      	b.n	d640c <_ZN7TwoWire5writeEPKhj+0xa>
  }

  return quantity;
}
   d641e:	4628      	mov	r0, r5
   d6420:	bdf8      	pop	{r3, r4, r5, r6, r7, pc}

000d6422 <_ZN7TwoWire5writeEh>:
  return hal_i2c_write(_i2c, data, NULL);
   d6422:	7c00      	ldrb	r0, [r0, #16]
   d6424:	2200      	movs	r2, #0
   d6426:	f7ff baf7 	b.w	d5a18 <hal_i2c_write>

000d642a <_ZN7TwoWire9availableEv>:
// must be called in:
// slave rx event callback
// or after requestFrom(address, numBytes)
int TwoWire::available(void)
{
  return hal_i2c_available(_i2c, NULL);
   d642a:	7c00      	ldrb	r0, [r0, #16]
   d642c:	2100      	movs	r1, #0
   d642e:	f7ff bafb 	b.w	d5a28 <hal_i2c_available>

000d6432 <_ZN7TwoWire4readEv>:
// must be called in:
// slave rx event callback
// or after requestFrom(address, numBytes)
int TwoWire::read(void)
{
  return hal_i2c_read(_i2c, NULL);
   d6432:	7c00      	ldrb	r0, [r0, #16]
   d6434:	2100      	movs	r1, #0
   d6436:	f7ff baff 	b.w	d5a38 <hal_i2c_read>

000d643a <_ZN7TwoWire4peekEv>:
// must be called in:
// slave rx event callback
// or after requestFrom(address, numBytes)
int TwoWire::peek(void)
{
  return hal_i2c_peek(_i2c, NULL);
   d643a:	7c00      	ldrb	r0, [r0, #16]
   d643c:	2100      	movs	r1, #0
   d643e:	f7ff bb03 	b.w	d5a48 <hal_i2c_peek>

000d6442 <_ZN7TwoWire5flushEv>:
}

void TwoWire::flush(void)
{
  hal_i2c_flush(_i2c, NULL);
   d6442:	7c00      	ldrb	r0, [r0, #16]
   d6444:	2100      	movs	r1, #0
   d6446:	f7ff bb07 	b.w	d5a58 <hal_i2c_flush>

000d644a <_ZN7TwoWireD0Ev>:
   d644a:	b510      	push	{r4, lr}
   d644c:	2114      	movs	r1, #20
   d644e:	4604      	mov	r4, r0
   d6450:	f000 ffe7 	bl	d7422 <_ZdlPvj>
   d6454:	4620      	mov	r0, r4
   d6456:	bd10      	pop	{r4, pc}

000d6458 <_ZN7TwoWireC1E19hal_i2c_interface_tRK16hal_i2c_config_t>:
TwoWire::TwoWire(hal_i2c_interface_t i2c, const hal_i2c_config_t& conf)
   d6458:	b510      	push	{r4, lr}
    virtual int available() = 0;
    virtual int read() = 0;
    virtual int peek() = 0;
    virtual void flush() = 0;

    Stream() {_timeout=1000;}
   d645a:	f44f 737a 	mov.w	r3, #1000	; 0x3e8
   d645e:	4604      	mov	r4, r0
   d6460:	4608      	mov	r0, r1
   d6462:	2100      	movs	r1, #0
   d6464:	e9c4 1301 	strd	r1, r3, [r4, #4]
   d6468:	4b03      	ldr	r3, [pc, #12]	; (d6478 <_ZN7TwoWireC1E19hal_i2c_interface_tRK16hal_i2c_config_t+0x20>)
   d646a:	6023      	str	r3, [r4, #0]
  _i2c = i2c;
   d646c:	7420      	strb	r0, [r4, #16]
  hal_i2c_init(_i2c, &conf);
   d646e:	4611      	mov	r1, r2
   d6470:	f7ff fb02 	bl	d5a78 <hal_i2c_init>
}
   d6474:	4620      	mov	r0, r4
   d6476:	bd10      	pop	{r4, pc}
   d6478:	000d958c 	.word	0x000d958c

000d647c <_ZN7TwoWire8setSpeedEm>:
  hal_i2c_set_speed(_i2c, clockSpeed, NULL);
   d647c:	7c00      	ldrb	r0, [r0, #16]
   d647e:	2200      	movs	r2, #0
   d6480:	f7ff baaa 	b.w	d59d8 <hal_i2c_set_speed>

000d6484 <_ZN7TwoWire5beginEv>:
	hal_i2c_begin(_i2c, I2C_MODE_MASTER, 0x00, NULL);
   d6484:	2300      	movs	r3, #0
   d6486:	7c00      	ldrb	r0, [r0, #16]
   d6488:	461a      	mov	r2, r3
   d648a:	4619      	mov	r1, r3
   d648c:	f7ff baac 	b.w	d59e8 <hal_i2c_begin>

000d6490 <_ZN7TwoWire11requestFromERK16WireTransmission>:
size_t TwoWire::requestFrom(const WireTransmission& transfer) {
   d6490:	b57f      	push	{r0, r1, r2, r3, r4, r5, r6, lr}
    hal_i2c_transmission_config_t conf = {
   d6492:	2200      	movs	r2, #0
   d6494:	2314      	movs	r3, #20
   d6496:	e9cd 2201 	strd	r2, r2, [sp, #4]
   d649a:	f8ad 3004 	strh.w	r3, [sp, #4]
    };
   d649e:	780b      	ldrb	r3, [r1, #0]
   d64a0:	f88d 3008 	strb.w	r3, [sp, #8]
   d64a4:	684b      	ldr	r3, [r1, #4]
   d64a6:	9303      	str	r3, [sp, #12]
   d64a8:	68cb      	ldr	r3, [r1, #12]
   d64aa:	9304      	str	r3, [sp, #16]
  return hal_i2c_request_ex(_i2c, &conf, nullptr);
   d64ac:	7c00      	ldrb	r0, [r0, #16]
      .flags = (uint32_t)(stop_ ? HAL_I2C_TRANSMISSION_FLAG_STOP : 0)
   d64ae:	7a0b      	ldrb	r3, [r1, #8]
   d64b0:	9305      	str	r3, [sp, #20]
   d64b2:	a901      	add	r1, sp, #4
   d64b4:	f7ff fae8 	bl	d5a88 <hal_i2c_request_ex>
}
   d64b8:	b007      	add	sp, #28
   d64ba:	f85d fb04 	ldr.w	pc, [sp], #4

000d64be <_ZN7TwoWire11requestFromEhjh>:
{
   d64be:	b51f      	push	{r0, r1, r2, r3, r4, lr}
  return requestFrom(WireTransmission(address).quantity(quantity).stop(sendStop));
   d64c0:	3b00      	subs	r3, #0
        timeout_{HAL_I2C_DEFAULT_TIMEOUT_MS} {
   d64c2:	f88d 1000 	strb.w	r1, [sp]
   d64c6:	f04f 0164 	mov.w	r1, #100	; 0x64
   d64ca:	9103      	str	r1, [sp, #12]
   d64cc:	bf18      	it	ne
   d64ce:	2301      	movne	r3, #1
   d64d0:	4669      	mov	r1, sp
    size_ = size;
   d64d2:	9201      	str	r2, [sp, #4]
   d64d4:	f88d 3008 	strb.w	r3, [sp, #8]
   d64d8:	f7ff ffda 	bl	d6490 <_ZN7TwoWire11requestFromERK16WireTransmission>
}
   d64dc:	b005      	add	sp, #20
   d64de:	f85d fb04 	ldr.w	pc, [sp], #4

000d64e2 <_ZN7TwoWire11requestFromEhj>:
  return requestFrom(address, quantity, (uint8_t)true);
   d64e2:	2301      	movs	r3, #1
   d64e4:	f7ff bfeb 	b.w	d64be <_ZN7TwoWire11requestFromEhjh>

000d64e8 <_ZN7TwoWire17beginTransmissionEh>:
	hal_i2c_begin_transmission(_i2c, address, NULL);
   d64e8:	7c00      	ldrb	r0, [r0, #16]
   d64ea:	2200      	movs	r2, #0
   d64ec:	f7ff ba84 	b.w	d59f8 <hal_i2c_begin_transmission>

000d64f0 <_ZN7TwoWire15endTransmissionEh>:
	return hal_i2c_end_transmission(_i2c, sendStop, NULL);
   d64f0:	7c00      	ldrb	r0, [r0, #16]
   d64f2:	2200      	movs	r2, #0
   d64f4:	f7ff ba88 	b.w	d5a08 <hal_i2c_end_transmission>

000d64f8 <_ZN7TwoWire15endTransmissionEv>:
  return endTransmission(true);
   d64f8:	2101      	movs	r1, #1
   d64fa:	f7ff bff9 	b.w	d64f0 <_ZN7TwoWire15endTransmissionEh>

000d64fe <_Z21attachInterruptDirect9IRQn_TypePFvvEb>:
    return ok;
}

bool attachInterruptDirect(IRQn_Type irq, HAL_Direct_Interrupt_Handler handler, bool enable)
{
    const bool ok = !HAL_Set_Direct_Interrupt_Handler(irq, handler, enable ? HAL_DIRECT_INTERRUPT_FLAG_ENABLE : HAL_DIRECT_INTERRUPT_FLAG_NONE, nullptr);
   d64fe:	2a00      	cmp	r2, #0
{
   d6500:	b508      	push	{r3, lr}
    const bool ok = !HAL_Set_Direct_Interrupt_Handler(irq, handler, enable ? HAL_DIRECT_INTERRUPT_FLAG_ENABLE : HAL_DIRECT_INTERRUPT_FLAG_NONE, nullptr);
   d6502:	f04f 0300 	mov.w	r3, #0
   d6506:	bf14      	ite	ne
   d6508:	2204      	movne	r2, #4
   d650a:	461a      	moveq	r2, r3
   d650c:	f7ff fa5a 	bl	d59c4 <HAL_Set_Direct_Interrupt_Handler>
    return ok;
}
   d6510:	fab0 f080 	clz	r0, r0
   d6514:	0940      	lsrs	r0, r0, #5
   d6516:	bd08      	pop	{r3, pc}

000d6518 <_ZN9IPAddressD1Ev>:
    IPAddress(uint8_t first_octet, uint8_t second_octet, uint8_t third_octet, uint8_t fourth_octet);
    IPAddress(uint32_t address);
    IPAddress(const uint8_t* address);
    IPAddress(const HAL_IPAddress& address);

    virtual ~IPAddress() {}
   d6518:	4770      	bx	lr

000d651a <_ZN9IPAddressD0Ev>:
   d651a:	b510      	push	{r4, lr}
   d651c:	2118      	movs	r1, #24
   d651e:	4604      	mov	r4, r0
   d6520:	f000 ff7f 	bl	d7422 <_ZdlPvj>
   d6524:	4620      	mov	r0, r4
   d6526:	bd10      	pop	{r4, pc}

000d6528 <_ZNK9IPAddress7printToER5Print>:
#endif // Wiring_IPv6
	return address.ipv4==that.address.ipv4;
}

size_t IPAddress::printTo(Print& p) const
{
   d6528:	b5f0      	push	{r4, r5, r6, r7, lr}
#if Wiring_IPv6
#if HAL_USE_INET_HAL_POSIX
	if (address.v==6) {
   d652a:	7d03      	ldrb	r3, [r0, #20]
   d652c:	2b06      	cmp	r3, #6
{
   d652e:	b08d      	sub	sp, #52	; 0x34
   d6530:	460e      	mov	r6, r1
   d6532:	f100 0704 	add.w	r7, r0, #4
   d6536:	f04f 0400 	mov.w	r4, #0
	if (address.v==6) {
   d653a:	d012      	beq.n	d6562 <_ZNK9IPAddress7printToER5Print+0x3a>
   d653c:	f100 0508 	add.w	r5, r0, #8
            val = n;
        }
#if __GNUC__ >= 9
#pragma GCC diagnostic pop
#endif // __GNUC__ >= 9
        return printNumber(val, base) + t;
   d6540:	f815 1d01 	ldrb.w	r1, [r5, #-1]!
   d6544:	220a      	movs	r2, #10
   d6546:	4630      	mov	r0, r6
   d6548:	f000 f94d 	bl	d67e6 <_ZN5Print11printNumberEmh>
#else
#pragma message "HAL_USE_INET_HAL_POSIX is required for IPv6 support in IPAddress::printTo()"
#endif // HAL_USE_INET_HAL_POSIX
#endif // Wiring_IPv6
    size_t n = 0;
    for (int i = 0; i < 4; i++)
   d654c:	42af      	cmp	r7, r5
    {
        if (n)
            n += p.print('.');
        n += p.print((*this)[i], DEC);
   d654e:	4404      	add	r4, r0
    for (int i = 0; i < 4; i++)
   d6550:	d019      	beq.n	d6586 <_ZNK9IPAddress7printToER5Print+0x5e>
        if (n)
   d6552:	2c00      	cmp	r4, #0
   d6554:	d0f4      	beq.n	d6540 <_ZNK9IPAddress7printToER5Print+0x18>
            n += p.print('.');
   d6556:	212e      	movs	r1, #46	; 0x2e
   d6558:	4630      	mov	r0, r6
   d655a:	f000 f927 	bl	d67ac <_ZN5Print5printEc>
   d655e:	4404      	add	r4, r0
   d6560:	e7ee      	b.n	d6540 <_ZNK9IPAddress7printToER5Print+0x18>
		inet_inet_ntop(AF_INET6, address.ipv6, buf, sizeof(buf));
   d6562:	232f      	movs	r3, #47	; 0x2f
   d6564:	466a      	mov	r2, sp
   d6566:	4639      	mov	r1, r7
   d6568:	200a      	movs	r0, #10
		buf[0] = 0;
   d656a:	f88d 4000 	strb.w	r4, [sp]
		inet_inet_ntop(AF_INET6, address.ipv6, buf, sizeof(buf));
   d656e:	f7ff fa93 	bl	d5a98 <inet_inet_ntop>
      return write((const uint8_t *)str, strlen(str));
   d6572:	4668      	mov	r0, sp
   d6574:	f002 fe57 	bl	d9226 <strlen>
   d6578:	6833      	ldr	r3, [r6, #0]
   d657a:	4602      	mov	r2, r0
   d657c:	68db      	ldr	r3, [r3, #12]
   d657e:	4669      	mov	r1, sp
   d6580:	4630      	mov	r0, r6
   d6582:	4798      	blx	r3
   d6584:	4604      	mov	r4, r0
    }
    return n;
}
   d6586:	4620      	mov	r0, r4
   d6588:	b00d      	add	sp, #52	; 0x34
   d658a:	bdf0      	pop	{r4, r5, r6, r7, pc}

000d658c <_ZN9IPAddressC1Ev>:
IPAddress::IPAddress()
   d658c:	b510      	push	{r4, lr}
   d658e:	4b05      	ldr	r3, [pc, #20]	; (d65a4 <_ZN9IPAddressC1Ev+0x18>)
   d6590:	4604      	mov	r4, r0
        return address;
    }

    virtual size_t printTo(Print& p) const;

    void clear() { memset(&address, 0, sizeof (address)); }
   d6592:	2211      	movs	r2, #17
   d6594:	f840 3b04 	str.w	r3, [r0], #4
   d6598:	2100      	movs	r1, #0
   d659a:	f002 fdbf 	bl	d911c <memset>
}
   d659e:	4620      	mov	r0, r4
   d65a0:	bd10      	pop	{r4, pc}
   d65a2:	bf00      	nop
   d65a4:	000d95b4 	.word	0x000d95b4

000d65a8 <_ZN9IPAddressC1ERK16_HAL_IPAddress_t>:
IPAddress::IPAddress(const HAL_IPAddress& address)
   d65a8:	4603      	mov	r3, r0
   d65aa:	4a07      	ldr	r2, [pc, #28]	; (d65c8 <_ZN9IPAddressC1ERK16_HAL_IPAddress_t+0x20>)
   d65ac:	b510      	push	{r4, lr}
   d65ae:	f843 2b04 	str.w	r2, [r3], #4
    memcpy(&this->address, &address, sizeof(address));
   d65b2:	f101 0210 	add.w	r2, r1, #16
   d65b6:	f851 4b04 	ldr.w	r4, [r1], #4
   d65ba:	f843 4b04 	str.w	r4, [r3], #4
   d65be:	4291      	cmp	r1, r2
   d65c0:	d1f9      	bne.n	d65b6 <_ZN9IPAddressC1ERK16_HAL_IPAddress_t+0xe>
   d65c2:	780a      	ldrb	r2, [r1, #0]
   d65c4:	701a      	strb	r2, [r3, #0]
}
   d65c6:	bd10      	pop	{r4, pc}
   d65c8:	000d95b4 	.word	0x000d95b4

000d65cc <_ZN9IPAddress8set_ipv4Ehhhh>:
{
   d65cc:	b510      	push	{r4, lr}
    address.ipv4 = b0<<24 | b1 << 16 | b2 << 8 | b3;
   d65ce:	f89d 4008 	ldrb.w	r4, [sp, #8]
   d65d2:	ea44 2303 	orr.w	r3, r4, r3, lsl #8
   d65d6:	ea43 4202 	orr.w	r2, r3, r2, lsl #16
   d65da:	ea42 6101 	orr.w	r1, r2, r1, lsl #24
        address.v = version;
   d65de:	2304      	movs	r3, #4
   d65e0:	6041      	str	r1, [r0, #4]
   d65e2:	7503      	strb	r3, [r0, #20]
}
   d65e4:	bd10      	pop	{r4, pc}

000d65e6 <_ZN9IPAddressaSEPKh>:
{
   d65e6:	b513      	push	{r0, r1, r4, lr}
    set_ipv4(address[0], address[1], address[2], address[3]);
   d65e8:	78cb      	ldrb	r3, [r1, #3]
   d65ea:	9300      	str	r3, [sp, #0]
   d65ec:	788b      	ldrb	r3, [r1, #2]
   d65ee:	784a      	ldrb	r2, [r1, #1]
   d65f0:	7809      	ldrb	r1, [r1, #0]
   d65f2:	f7ff ffeb 	bl	d65cc <_ZN9IPAddress8set_ipv4Ehhhh>
}
   d65f6:	b002      	add	sp, #8
   d65f8:	bd10      	pop	{r4, pc}
	...

000d65fc <_GLOBAL__sub_I__ZN5spark3LogE>:
    // This handler doesn't support direct logging
}

// spark::Logger
inline spark::Logger::Logger(const char *name) :
        name_(name) {
   d65fc:	4b01      	ldr	r3, [pc, #4]	; (d6604 <_GLOBAL__sub_I__ZN5spark3LogE+0x8>)
   d65fe:	4a02      	ldr	r2, [pc, #8]	; (d6608 <_GLOBAL__sub_I__ZN5spark3LogE+0xc>)
   d6600:	601a      	str	r2, [r3, #0]
#if Wiring_LogConfig

// spark::
void spark::logProcessControlRequest(ctrl_request* req) {
    JSONRequestHandler::process(req);
}
   d6602:	4770      	bx	lr
   d6604:	2003e614 	.word	0x2003e614
   d6608:	000d95c0 	.word	0x000d95c0

000d660c <_ZN5spark12NetworkClass7connectEj>:
        return Network;
    }
}

void NetworkClass::connect(unsigned flags) {
    network_connect(*this, flags, 0, nullptr);
   d660c:	2300      	movs	r3, #0
   d660e:	6840      	ldr	r0, [r0, #4]
   d6610:	461a      	mov	r2, r3
   d6612:	f7ff bb35 	b.w	d5c80 <network_connect>

000d6616 <_ZN5spark12NetworkClass10disconnectEv>:
}

void NetworkClass::disconnect() {
    network_disconnect(*this, NETWORK_DISCONNECT_REASON_USER, nullptr);
   d6616:	6840      	ldr	r0, [r0, #4]
   d6618:	2200      	movs	r2, #0
   d661a:	2102      	movs	r1, #2
   d661c:	f7ff bb40 	b.w	d5ca0 <network_disconnect>

000d6620 <_ZN5spark12NetworkClass10connectingEv>:
}

bool NetworkClass::connecting() {
    return network_connecting(*this, 0, nullptr);
   d6620:	2200      	movs	r2, #0
   d6622:	6840      	ldr	r0, [r0, #4]
   d6624:	4611      	mov	r1, r2
   d6626:	f7ff bb33 	b.w	d5c90 <network_connecting>

000d662a <_ZN5spark12NetworkClass5readyEv>:
}

bool NetworkClass::ready() {
    return network_ready(*this, 0, nullptr);
   d662a:	2200      	movs	r2, #0
   d662c:	6840      	ldr	r0, [r0, #4]
   d662e:	4611      	mov	r1, r2
   d6630:	f7ff bb3e 	b.w	d5cb0 <network_ready>

000d6634 <_ZN5spark12NetworkClass2onEv>:
}

void NetworkClass::on() {
    network_on(*this, 0, 0, nullptr);
   d6634:	2300      	movs	r3, #0
   d6636:	6840      	ldr	r0, [r0, #4]
   d6638:	461a      	mov	r2, r3
   d663a:	4619      	mov	r1, r3
   d663c:	f7ff bb40 	b.w	d5cc0 <network_on>

000d6640 <_ZN5spark12NetworkClass3offEv>:
}

void NetworkClass::off() {
    network_off(*this, 0, 0, nullptr);
   d6640:	2300      	movs	r3, #0
   d6642:	6840      	ldr	r0, [r0, #4]
   d6644:	461a      	mov	r2, r3
   d6646:	4619      	mov	r1, r3
   d6648:	f7ff bb42 	b.w	d5cd0 <network_off>

000d664c <_ZN5spark12NetworkClass6listenEb>:
}

void NetworkClass::listen(bool begin) {
    network_listen(*this, begin ? 0 : 1, nullptr);
   d664c:	6840      	ldr	r0, [r0, #4]
   d664e:	2200      	movs	r2, #0
   d6650:	f081 0101 	eor.w	r1, r1, #1
   d6654:	f7ff bb44 	b.w	d5ce0 <network_listen>

000d6658 <_ZN5spark12NetworkClass16setListenTimeoutEt>:
}

void NetworkClass::setListenTimeout(uint16_t timeout) {
    network_set_listen_timeout(*this, timeout, nullptr);
   d6658:	6840      	ldr	r0, [r0, #4]
   d665a:	2200      	movs	r2, #0
   d665c:	f7ff bb50 	b.w	d5d00 <network_set_listen_timeout>

000d6660 <_ZN5spark12NetworkClass16getListenTimeoutEv>:
}

uint16_t NetworkClass::getListenTimeout() {
    return network_get_listen_timeout(*this, 0, nullptr);
   d6660:	2200      	movs	r2, #0
   d6662:	6840      	ldr	r0, [r0, #4]
   d6664:	4611      	mov	r1, r2
   d6666:	f7ff bb53 	b.w	d5d10 <network_get_listen_timeout>

000d666a <_ZN5spark12NetworkClass9listeningEv>:
}

bool NetworkClass::listening() {
    return network_listening(*this, 0, nullptr);
   d666a:	2200      	movs	r2, #0
   d666c:	6840      	ldr	r0, [r0, #4]
   d666e:	4611      	mov	r1, r2
   d6670:	f7ff bb3e 	b.w	d5cf0 <network_listening>

000d6674 <_ZN5spark12NetworkClass7resolveEPKc>:
}

IPAddress NetworkClass::resolve(const char* name) {
   d6674:	e92d 43f0 	stmdb	sp!, {r4, r5, r6, r7, r8, r9, lr}
    IPAddress addr;
#if HAL_USE_INET_HAL_POSIX
    struct addrinfo *ai = nullptr;
   d6678:	2400      	movs	r4, #0
IPAddress NetworkClass::resolve(const char* name) {
   d667a:	b095      	sub	sp, #84	; 0x54
   d667c:	4616      	mov	r6, r2
   d667e:	460d      	mov	r5, r1
   d6680:	4607      	mov	r7, r0
    IPAddress addr;
   d6682:	f7ff ff83 	bl	d658c <_ZN9IPAddressC1Ev>
    struct addrinfo hints = {};
   d6686:	4621      	mov	r1, r4
   d6688:	2218      	movs	r2, #24
   d668a:	a80e      	add	r0, sp, #56	; 0x38
    struct addrinfo *ai = nullptr;
   d668c:	9400      	str	r4, [sp, #0]
    struct addrinfo hints = {};
   d668e:	f002 fd45 	bl	d911c <memset>
    hints.ai_flags = AI_ADDRCONFIG;
   d6692:	2340      	movs	r3, #64	; 0x40
    hints.ai_family = AF_UNSPEC;
   d6694:	e9cd 340c 	strd	r3, r4, [sp, #48]	; 0x30
    const int r = getaddrinfo(name, nullptr, &hints, &ai);
   d6698:	4621      	mov	r1, r4
   d669a:	466b      	mov	r3, sp
   d669c:	aa0c      	add	r2, sp, #48	; 0x30
   d669e:	4630      	mov	r0, r6
   d66a0:	f7ff fa0a 	bl	d5ab8 <netdb_getaddrinfo>
    if (!r) {
   d66a4:	4604      	mov	r4, r0
   d66a6:	2800      	cmp	r0, #0
   d66a8:	d146      	bne.n	d6738 <_ZN5spark12NetworkClass7resolveEPKc+0xc4>
        bool ok = false;
        // This is not really needed if AI_ADDRCONFIG is properly supported
        bool ipv4 = network_ready(*this, NETWORK_READY_TYPE_IPV4, nullptr);
   d66aa:	4602      	mov	r2, r0
   d66ac:	2101      	movs	r1, #1
   d66ae:	6868      	ldr	r0, [r5, #4]
   d66b0:	f7ff fafe 	bl	d5cb0 <network_ready>
        bool ipv6 = network_ready(*this, NETWORK_READY_TYPE_IPV6, nullptr);
   d66b4:	2102      	movs	r1, #2
        bool ipv4 = network_ready(*this, NETWORK_READY_TYPE_IPV4, nullptr);
   d66b6:	4680      	mov	r8, r0
        bool ipv6 = network_ready(*this, NETWORK_READY_TYPE_IPV6, nullptr);
   d66b8:	4622      	mov	r2, r4
   d66ba:	6868      	ldr	r0, [r5, #4]
   d66bc:	f7ff faf8 	bl	d5cb0 <network_ready>
        for (auto cur = ai; cur != nullptr && !ok; cur = cur->ai_next) {
   d66c0:	9e00      	ldr	r6, [sp, #0]
        bool ipv6 = network_ready(*this, NETWORK_READY_TYPE_IPV6, nullptr);
   d66c2:	4681      	mov	r9, r0
        bool ok = false;
   d66c4:	4621      	mov	r1, r4
        for (auto cur = ai; cur != nullptr && !ok; cur = cur->ai_next) {
   d66c6:	2e00      	cmp	r6, #0
   d66c8:	d036      	beq.n	d6738 <_ZN5spark12NetworkClass7resolveEPKc+0xc4>
   d66ca:	2900      	cmp	r1, #0
   d66cc:	d134      	bne.n	d6738 <_ZN5spark12NetworkClass7resolveEPKc+0xc4>
            // NOTE: using only the first entry that matches the current state of IPv4/IPv6 connectivity
            switch (cur->ai_family) {
   d66ce:	6873      	ldr	r3, [r6, #4]
   d66d0:	2b02      	cmp	r3, #2
   d66d2:	d003      	beq.n	d66dc <_ZN5spark12NetworkClass7resolveEPKc+0x68>
   d66d4:	2b0a      	cmp	r3, #10
   d66d6:	d00b      	beq.n	d66f0 <_ZN5spark12NetworkClass7resolveEPKc+0x7c>
        for (auto cur = ai; cur != nullptr && !ok; cur = cur->ai_next) {
   d66d8:	69f6      	ldr	r6, [r6, #28]
   d66da:	e7f4      	b.n	d66c6 <_ZN5spark12NetworkClass7resolveEPKc+0x52>
                case AF_INET: {
                    if (!ipv4) {
   d66dc:	f1b8 0f00 	cmp.w	r8, #0
   d66e0:	d004      	beq.n	d66ec <_ZN5spark12NetworkClass7resolveEPKc+0x78>
                        continue;
                    }
                    // NOTE: HAL_IPAddress is little-endian
                    auto in = (struct sockaddr_in*)cur->ai_addr;
                    addr = (const uint8_t*)(&in->sin_addr.s_addr);
   d66e2:	6971      	ldr	r1, [r6, #20]
   d66e4:	4638      	mov	r0, r7
   d66e6:	3104      	adds	r1, #4
   d66e8:	f7ff ff7d 	bl	d65e6 <_ZN9IPAddressaSEPKh>
                    ok = true;
                    break;
   d66ec:	4641      	mov	r1, r8
   d66ee:	e7f3      	b.n	d66d8 <_ZN5spark12NetworkClass7resolveEPKc+0x64>
                }
                case AF_INET6: {
                    if (!ipv6) {
   d66f0:	f1b9 0f00 	cmp.w	r9, #0
   d66f4:	d101      	bne.n	d66fa <_ZN5spark12NetworkClass7resolveEPKc+0x86>
                    auto in6 = (struct sockaddr_in6*)cur->ai_addr;
                    HAL_IPAddress a = {};
                    a.v = 6;
                    memcpy(a.ipv6, in6->sin6_addr.s6_addr, sizeof(a.ipv6));
                    addr = IPAddress(a);
                    ok = true;
   d66f6:	4649      	mov	r1, r9
   d66f8:	e7ee      	b.n	d66d8 <_ZN5spark12NetworkClass7resolveEPKc+0x64>
                    auto in6 = (struct sockaddr_in6*)cur->ai_addr;
   d66fa:	6974      	ldr	r4, [r6, #20]
                    HAL_IPAddress a = {};
   d66fc:	2210      	movs	r2, #16
   d66fe:	a801      	add	r0, sp, #4
   d6700:	f002 fd0c 	bl	d911c <memset>
                    a.v = 6;
   d6704:	2306      	movs	r3, #6
   d6706:	f88d 3014 	strb.w	r3, [sp, #20]
                    memcpy(a.ipv6, in6->sin6_addr.s6_addr, sizeof(a.ipv6));
   d670a:	ad01      	add	r5, sp, #4
   d670c:	f104 0308 	add.w	r3, r4, #8
   d6710:	3418      	adds	r4, #24
   d6712:	6818      	ldr	r0, [r3, #0]
   d6714:	6859      	ldr	r1, [r3, #4]
   d6716:	462a      	mov	r2, r5
   d6718:	c203      	stmia	r2!, {r0, r1}
   d671a:	3308      	adds	r3, #8
   d671c:	42a3      	cmp	r3, r4
   d671e:	4615      	mov	r5, r2
   d6720:	d1f7      	bne.n	d6712 <_ZN5spark12NetworkClass7resolveEPKc+0x9e>
                    addr = IPAddress(a);
   d6722:	a901      	add	r1, sp, #4
   d6724:	a806      	add	r0, sp, #24
class IPAddress : public Printable {
   d6726:	ad07      	add	r5, sp, #28
   d6728:	f7ff ff3e 	bl	d65a8 <_ZN9IPAddressC1ERK16_HAL_IPAddress_t>
   d672c:	cd0f      	ldmia	r5!, {r0, r1, r2, r3}
   d672e:	1d3c      	adds	r4, r7, #4
   d6730:	c40f      	stmia	r4!, {r0, r1, r2, r3}
   d6732:	682b      	ldr	r3, [r5, #0]
   d6734:	7023      	strb	r3, [r4, #0]
   d6736:	e7de      	b.n	d66f6 <_ZN5spark12NetworkClass7resolveEPKc+0x82>
                    break;
                }
            }
        }
    }
    freeaddrinfo(ai);
   d6738:	9800      	ldr	r0, [sp, #0]
   d673a:	f7ff f9b5 	bl	d5aa8 <netdb_freeaddrinfo>
    return Cellular.resolve(name);
#endif // Wiring_Cellular

#endif // HAL_USE_INET_HAL_POSIX
    return addr;
}
   d673e:	4638      	mov	r0, r7
   d6740:	b015      	add	sp, #84	; 0x54
   d6742:	e8bd 83f0 	ldmia.w	sp!, {r4, r5, r6, r7, r8, r9, pc}
	...

000d6748 <_GLOBAL__sub_I__ZN5spark7NetworkE>:
   d6748:	4b02      	ldr	r3, [pc, #8]	; (d6754 <_GLOBAL__sub_I__ZN5spark7NetworkE+0xc>)
   d674a:	4a03      	ldr	r2, [pc, #12]	; (d6758 <_GLOBAL__sub_I__ZN5spark7NetworkE+0x10>)
   d674c:	601a      	str	r2, [r3, #0]
   d674e:	2200      	movs	r2, #0
   d6750:	605a      	str	r2, [r3, #4]

} // spark
   d6752:	4770      	bx	lr
   d6754:	2003e618 	.word	0x2003e618
   d6758:	000d95cc 	.word	0x000d95cc

000d675c <_ZN5Print5writeEPKhj>:

// Public Methods //////////////////////////////////////////////////////////////

/* default implementation: may be overridden */
size_t Print::write(const uint8_t *buffer, size_t size)
{
   d675c:	b5f8      	push	{r3, r4, r5, r6, r7, lr}
   d675e:	4606      	mov	r6, r0
   d6760:	460d      	mov	r5, r1
  size_t n = 0;
   d6762:	188f      	adds	r7, r1, r2
   d6764:	2400      	movs	r4, #0
  while (size--) {
   d6766:	42bd      	cmp	r5, r7
   d6768:	d00c      	beq.n	d6784 <_ZN5Print5writeEPKhj+0x28>
     int chunk = write(*buffer++);
   d676a:	6833      	ldr	r3, [r6, #0]
   d676c:	f815 1b01 	ldrb.w	r1, [r5], #1
   d6770:	689b      	ldr	r3, [r3, #8]
   d6772:	4630      	mov	r0, r6
   d6774:	4798      	blx	r3
     if (chunk>=0)
   d6776:	1e03      	subs	r3, r0, #0
   d6778:	db01      	blt.n	d677e <_ZN5Print5writeEPKhj+0x22>
         n += chunk;
   d677a:	441c      	add	r4, r3
  while (size--) {
   d677c:	e7f3      	b.n	d6766 <_ZN5Print5writeEPKhj+0xa>
     int chunk = write(*buffer++);
   d677e:	2c00      	cmp	r4, #0
   d6780:	bf08      	it	eq
   d6782:	461c      	moveq	r4, r3
             n = chunk;
         break;
     }
  }
  return n;
}
   d6784:	4620      	mov	r0, r4
   d6786:	bdf8      	pop	{r3, r4, r5, r6, r7, pc}

000d6788 <_ZN5Print5writeEPKc>:
    size_t write(const char *str) {
   d6788:	b513      	push	{r0, r1, r4, lr}
   d678a:	4604      	mov	r4, r0
    }
   d678c:	4608      	mov	r0, r1
      if (str == NULL) return 0;
   d678e:	b159      	cbz	r1, d67a8 <_ZN5Print5writeEPKc+0x20>
      return write((const uint8_t *)str, strlen(str));
   d6790:	9101      	str	r1, [sp, #4]
   d6792:	f002 fd48 	bl	d9226 <strlen>
   d6796:	6823      	ldr	r3, [r4, #0]
   d6798:	9901      	ldr	r1, [sp, #4]
   d679a:	68db      	ldr	r3, [r3, #12]
   d679c:	4602      	mov	r2, r0
   d679e:	4620      	mov	r0, r4
    }
   d67a0:	b002      	add	sp, #8
   d67a2:	e8bd 4010 	ldmia.w	sp!, {r4, lr}
      return write((const uint8_t *)str, strlen(str));
   d67a6:	4718      	bx	r3
    }
   d67a8:	b002      	add	sp, #8
   d67aa:	bd10      	pop	{r4, pc}

000d67ac <_ZN5Print5printEc>:
  return write(str);
}

size_t Print::print(char c)
{
  return write(c);
   d67ac:	6803      	ldr	r3, [r0, #0]
   d67ae:	689b      	ldr	r3, [r3, #8]
   d67b0:	4718      	bx	r3

000d67b2 <_ZN5Print5printEPK19__FlashStringHelper>:
 {
   return x.printTo(*this);
 }

size_t Print::print(const __FlashStringHelper* str)
{
   d67b2:	b508      	push	{r3, lr}
  return write(str);
   d67b4:	f7ff ffe8 	bl	d6788 <_ZN5Print5writeEPKc>
  return print(reinterpret_cast<const char*>(str));
}
   d67b8:	bd08      	pop	{r3, pc}

000d67ba <_ZN5Print7printlnEv>:

size_t Print::println(void)
{
   d67ba:	b538      	push	{r3, r4, r5, lr}
  size_t n = print('\r');
   d67bc:	210d      	movs	r1, #13
{
   d67be:	4605      	mov	r5, r0
  size_t n = print('\r');
   d67c0:	f7ff fff4 	bl	d67ac <_ZN5Print5printEc>
  n += print('\n');
   d67c4:	210a      	movs	r1, #10
  size_t n = print('\r');
   d67c6:	4604      	mov	r4, r0
  n += print('\n');
   d67c8:	4628      	mov	r0, r5
   d67ca:	f7ff ffef 	bl	d67ac <_ZN5Print5printEc>
  return n;
}
   d67ce:	4420      	add	r0, r4
   d67d0:	bd38      	pop	{r3, r4, r5, pc}

000d67d2 <_ZN5Print7printlnEPKc>:

size_t Print::println(const char c[])
{
   d67d2:	b538      	push	{r3, r4, r5, lr}
   d67d4:	4605      	mov	r5, r0
  return write(str);
   d67d6:	f7ff ffd7 	bl	d6788 <_ZN5Print5writeEPKc>
   d67da:	4604      	mov	r4, r0
  size_t n = print(c);
  n += println();
   d67dc:	4628      	mov	r0, r5
   d67de:	f7ff ffec 	bl	d67ba <_ZN5Print7printlnEv>
  return n;
}
   d67e2:	4420      	add	r0, r4
   d67e4:	bd38      	pop	{r3, r4, r5, pc}

000d67e6 <_ZN5Print11printNumberEmh>:
  return println(reinterpret_cast<const char*>(str));
}

// Private Methods /////////////////////////////////////////////////////////////

size_t Print::printNumber(unsigned long n, uint8_t base) {
   d67e6:	b530      	push	{r4, r5, lr}
   d67e8:	b08b      	sub	sp, #44	; 0x2c
  char buf[8 * sizeof(n) + 1]; // Assumes 8-bit chars plus zero byte.
  char *str = &buf[sizeof(buf) - 1];

  *str = '\0';
   d67ea:	2300      	movs	r3, #0
   d67ec:	f88d 3024 	strb.w	r3, [sp, #36]	; 0x24

  // prevent crash if called with base == 1
  if (base < 2) base = 10;
   d67f0:	2a01      	cmp	r2, #1
   d67f2:	bf98      	it	ls
   d67f4:	220a      	movls	r2, #10
   d67f6:	ac09      	add	r4, sp, #36	; 0x24

  do {
   decltype(n) m = n;
   n /= base;
   d67f8:	460d      	mov	r5, r1
   d67fa:	fbb1 f1f2 	udiv	r1, r1, r2
   char c = m - base * n;
   d67fe:	fb01 5312 	mls	r3, r1, r2, r5
   d6802:	f003 03ff 	and.w	r3, r3, #255	; 0xff
   *--str = c < 10 ? c + '0' : c + 'A' - 10;
   d6806:	2b09      	cmp	r3, #9
   d6808:	bf94      	ite	ls
   d680a:	3330      	addls	r3, #48	; 0x30
   d680c:	3337      	addhi	r3, #55	; 0x37
   d680e:	b2db      	uxtb	r3, r3
  } while(n);
   d6810:	42aa      	cmp	r2, r5
   *--str = c < 10 ? c + '0' : c + 'A' - 10;
   d6812:	f804 3d01 	strb.w	r3, [r4, #-1]!
  } while(n);
   d6816:	d9ef      	bls.n	d67f8 <_ZN5Print11printNumberEmh+0x12>

  return write(str);
   d6818:	4621      	mov	r1, r4
   d681a:	f7ff ffb5 	bl	d6788 <_ZN5Print5writeEPKc>
}
   d681e:	b00b      	add	sp, #44	; 0x2c
   d6820:	bd30      	pop	{r4, r5, pc}

000d6822 <_Z6randomi>:
#include "spark_wiring_random.h"
#include <stdlib.h>

int random(int max)
{
   d6822:	b510      	push	{r4, lr}
  if (0 == max) {
   d6824:	4604      	mov	r4, r0
   d6826:	b128      	cbz	r0, d6834 <_Z6randomi+0x12>
    return 0;
  }
  return rand() % max;
   d6828:	f002 fca4 	bl	d9174 <rand>
   d682c:	fb90 f3f4 	sdiv	r3, r0, r4
   d6830:	fb03 0414 	mls	r4, r3, r4, r0
}
   d6834:	4620      	mov	r0, r4
   d6836:	bd10      	pop	{r4, pc}

000d6838 <_Z6randomii>:

int random(int min, int max)
{
  if (min >= max) {
   d6838:	4288      	cmp	r0, r1
{
   d683a:	b510      	push	{r4, lr}
   d683c:	4604      	mov	r4, r0
  if (min >= max) {
   d683e:	da03      	bge.n	d6848 <_Z6randomii+0x10>
    return min;
  }
  return random(max - min) + min;
   d6840:	1a08      	subs	r0, r1, r0
   d6842:	f7ff ffee 	bl	d6822 <_Z6randomi>
   d6846:	4404      	add	r4, r0
}
   d6848:	4620      	mov	r0, r4
   d684a:	bd10      	pop	{r4, pc}

000d684c <_ZN8RGBClassD1Ev>:
#include "rgbled.h"

typedef void (raw_rgb_change_handler_t)(uint8_t, uint8_t, uint8_t);
typedef std::function<raw_rgb_change_handler_t> wiring_rgb_change_handler_t;

class RGBClass {
   d684c:	b510      	push	{r4, lr}
   d684e:	4604      	mov	r4, r0
   d6850:	f7ff faee 	bl	d5e30 <_ZNSt14_Function_baseD1Ev>
   d6854:	4620      	mov	r0, r4
   d6856:	bd10      	pop	{r4, pc}

000d6858 <_GLOBAL__sub_I_RGB>:
    _Function_base() : _M_manager(nullptr) { }
   d6858:	4803      	ldr	r0, [pc, #12]	; (d6868 <_GLOBAL__sub_I_RGB+0x10>)
#include "spark_wiring_rgb.h"
#include "spark_wiring_interrupts.h"

#include "core_hal.h"

RGBClass RGB;
   d685a:	4a04      	ldr	r2, [pc, #16]	; (d686c <_GLOBAL__sub_I_RGB+0x14>)
   d685c:	4904      	ldr	r1, [pc, #16]	; (d6870 <_GLOBAL__sub_I_RGB+0x18>)
   d685e:	2300      	movs	r3, #0
   d6860:	6083      	str	r3, [r0, #8]
   d6862:	f000 bdd9 	b.w	d7418 <__aeabi_atexit>
   d6866:	bf00      	nop
   d6868:	2003e620 	.word	0x2003e620
   d686c:	2003e444 	.word	0x2003e444
   d6870:	000d684d 	.word	0x000d684d

000d6874 <_ZN8SPIClassC1E19hal_spi_interface_t>:
    }
    return particle::SPISettings(info->clock, info->bit_order, info->data_mode);
}
} // namespace

SPIClass::SPIClass(hal_spi_interface_t spi)
   d6874:	b510      	push	{r4, lr}
   d6876:	4604      	mov	r4, r0
   d6878:	4608      	mov	r0, r1
{
    _spi = spi;
   d687a:	7021      	strb	r1, [r4, #0]
    hal_spi_init(_spi);
   d687c:	f7ff f924 	bl	d5ac8 <hal_spi_init>
    _dividerReference = SPI_CLK_SYSTEM; // 0 indicates the system clock
   d6880:	2300      	movs	r3, #0
   d6882:	6063      	str	r3, [r4, #4]
}
   d6884:	4620      	mov	r0, r4
   d6886:	bd10      	pop	{r4, pc}

000d6888 <_ZN6StringD1Ev>:
	init();
	char buf[33];
	dtoa(value, decimalPlaces, buf);
        *this = buf;
}
String::~String()
   d6888:	b510      	push	{r4, lr}
   d688a:	4604      	mov	r4, r0
{
	free(buffer);
   d688c:	6800      	ldr	r0, [r0, #0]
   d688e:	f7ff fa4f 	bl	d5d30 <free>
}
   d6892:	4620      	mov	r0, r4
   d6894:	bd10      	pop	{r4, pc}

000d6896 <_ZN6String10invalidateEv>:
	len = 0;
	flags = 0;
}

void String::invalidate(void)
{
   d6896:	b510      	push	{r4, lr}
   d6898:	4604      	mov	r4, r0
	if (buffer) free(buffer);
   d689a:	6800      	ldr	r0, [r0, #0]
   d689c:	b108      	cbz	r0, d68a2 <_ZN6String10invalidateEv+0xc>
   d689e:	f7ff fa47 	bl	d5d30 <free>
	buffer = NULL;
   d68a2:	2300      	movs	r3, #0
	capacity = len = 0;
   d68a4:	e9c4 3301 	strd	r3, r3, [r4, #4]
	buffer = NULL;
   d68a8:	6023      	str	r3, [r4, #0]
}
   d68aa:	bd10      	pop	{r4, pc}

000d68ac <_ZN6String12changeBufferEj>:
	}
	return 0;
}

unsigned char String::changeBuffer(unsigned int maxStrLen)
{
   d68ac:	b538      	push	{r3, r4, r5, lr}
   d68ae:	4604      	mov	r4, r0
   d68b0:	460d      	mov	r5, r1
	char *newbuffer = (char *)realloc(buffer, maxStrLen + 1);
   d68b2:	6800      	ldr	r0, [r0, #0]
   d68b4:	3101      	adds	r1, #1
   d68b6:	f7ff fa43 	bl	d5d40 <realloc>
	if (newbuffer) {
   d68ba:	b110      	cbz	r0, d68c2 <_ZN6String12changeBufferEj+0x16>
		buffer = newbuffer;
		capacity = maxStrLen;
   d68bc:	e9c4 0500 	strd	r0, r5, [r4]
		return 1;
   d68c0:	2001      	movs	r0, #1
	}
	return 0;
}
   d68c2:	bd38      	pop	{r3, r4, r5, pc}

000d68c4 <_ZN6String7reserveEj>:
{
   d68c4:	b510      	push	{r4, lr}
	if (buffer && capacity >= size) return 1;
   d68c6:	6803      	ldr	r3, [r0, #0]
{
   d68c8:	4604      	mov	r4, r0
	if (buffer && capacity >= size) return 1;
   d68ca:	b123      	cbz	r3, d68d6 <_ZN6String7reserveEj+0x12>
   d68cc:	6843      	ldr	r3, [r0, #4]
   d68ce:	428b      	cmp	r3, r1
   d68d0:	d301      	bcc.n	d68d6 <_ZN6String7reserveEj+0x12>
   d68d2:	2001      	movs	r0, #1
}
   d68d4:	bd10      	pop	{r4, pc}
	if (changeBuffer(size)) {
   d68d6:	4620      	mov	r0, r4
   d68d8:	f7ff ffe8 	bl	d68ac <_ZN6String12changeBufferEj>
   d68dc:	2800      	cmp	r0, #0
   d68de:	d0f9      	beq.n	d68d4 <_ZN6String7reserveEj+0x10>
		if (len == 0) buffer[0] = 0;
   d68e0:	68a3      	ldr	r3, [r4, #8]
   d68e2:	2b00      	cmp	r3, #0
   d68e4:	d1f5      	bne.n	d68d2 <_ZN6String7reserveEj+0xe>
   d68e6:	6822      	ldr	r2, [r4, #0]
   d68e8:	7013      	strb	r3, [r2, #0]
   d68ea:	e7f2      	b.n	d68d2 <_ZN6String7reserveEj+0xe>

000d68ec <_ZN6String4copyEPKcj>:
/*********************************************/
/*  Copy and Move                            */
/*********************************************/

String & String::copy(const char *cstr, unsigned int length)
{
   d68ec:	b537      	push	{r0, r1, r2, r4, r5, lr}
   d68ee:	460d      	mov	r5, r1
	if (!reserve(length)) {
   d68f0:	4611      	mov	r1, r2
   d68f2:	9201      	str	r2, [sp, #4]
{
   d68f4:	4604      	mov	r4, r0
	if (!reserve(length)) {
   d68f6:	f7ff ffe5 	bl	d68c4 <_ZN6String7reserveEj>
   d68fa:	9a01      	ldr	r2, [sp, #4]
   d68fc:	b928      	cbnz	r0, d690a <_ZN6String4copyEPKcj+0x1e>
		invalidate();
   d68fe:	4620      	mov	r0, r4
   d6900:	f7ff ffc9 	bl	d6896 <_ZN6String10invalidateEv>
	}
	len = length;
	memcpy(buffer, cstr, length);
	buffer[len] = 0;
	return *this;
}
   d6904:	4620      	mov	r0, r4
   d6906:	b003      	add	sp, #12
   d6908:	bd30      	pop	{r4, r5, pc}
	len = length;
   d690a:	60a2      	str	r2, [r4, #8]
	memcpy(buffer, cstr, length);
   d690c:	4629      	mov	r1, r5
   d690e:	6820      	ldr	r0, [r4, #0]
   d6910:	f002 fbf6 	bl	d9100 <memcpy>
	buffer[len] = 0;
   d6914:	6822      	ldr	r2, [r4, #0]
   d6916:	68a3      	ldr	r3, [r4, #8]
   d6918:	2100      	movs	r1, #0
   d691a:	54d1      	strb	r1, [r2, r3]
	return *this;
   d691c:	e7f2      	b.n	d6904 <_ZN6String4copyEPKcj+0x18>

000d691e <_ZN6StringC1EPKc>:
	buffer = NULL;
   d691e:	2300      	movs	r3, #0
String::String(const char *cstr)
   d6920:	b513      	push	{r0, r1, r4, lr}
	capacity = 0;
   d6922:	e9c0 3300 	strd	r3, r3, [r0]
String::String(const char *cstr)
   d6926:	4604      	mov	r4, r0
	len = 0;
   d6928:	6083      	str	r3, [r0, #8]
	flags = 0;
   d692a:	7303      	strb	r3, [r0, #12]
	if (cstr) copy(cstr, strlen(cstr));
   d692c:	b141      	cbz	r1, d6940 <_ZN6StringC1EPKc+0x22>
   d692e:	4608      	mov	r0, r1
   d6930:	9101      	str	r1, [sp, #4]
   d6932:	f002 fc78 	bl	d9226 <strlen>
   d6936:	9901      	ldr	r1, [sp, #4]
   d6938:	4602      	mov	r2, r0
   d693a:	4620      	mov	r0, r4
   d693c:	f7ff ffd6 	bl	d68ec <_ZN6String4copyEPKcj>
}
   d6940:	4620      	mov	r0, r4
   d6942:	b002      	add	sp, #8
   d6944:	bd10      	pop	{r4, pc}

000d6946 <_ZN6String4moveERS_>:
    return copy(reinterpret_cast<const char*>(pstr), length);
}

#ifdef __GXX_EXPERIMENTAL_CXX0X__
void String::move(String &rhs)
{
   d6946:	b538      	push	{r3, r4, r5, lr}
   d6948:	4605      	mov	r5, r0
	if (buffer) {
   d694a:	6800      	ldr	r0, [r0, #0]
{
   d694c:	460c      	mov	r4, r1
	if (buffer) {
   d694e:	b168      	cbz	r0, d696c <_ZN6String4moveERS_+0x26>
		if (capacity >= rhs.len) {
   d6950:	686a      	ldr	r2, [r5, #4]
   d6952:	688b      	ldr	r3, [r1, #8]
   d6954:	429a      	cmp	r2, r3
   d6956:	d307      	bcc.n	d6968 <_ZN6String4moveERS_+0x22>
			strcpy(buffer, rhs.buffer);
   d6958:	6809      	ldr	r1, [r1, #0]
   d695a:	f002 fc3f 	bl	d91dc <strcpy>
			len = rhs.len;
   d695e:	68a3      	ldr	r3, [r4, #8]
   d6960:	60ab      	str	r3, [r5, #8]
			rhs.len = 0;
   d6962:	2300      	movs	r3, #0
	buffer = rhs.buffer;
	capacity = rhs.capacity;
	len = rhs.len;
	rhs.buffer = NULL;
	rhs.capacity = 0;
	rhs.len = 0;
   d6964:	60a3      	str	r3, [r4, #8]
}
   d6966:	bd38      	pop	{r3, r4, r5, pc}
			free(buffer);
   d6968:	f7ff f9e2 	bl	d5d30 <free>
	buffer = rhs.buffer;
   d696c:	6823      	ldr	r3, [r4, #0]
   d696e:	602b      	str	r3, [r5, #0]
	capacity = rhs.capacity;
   d6970:	6863      	ldr	r3, [r4, #4]
   d6972:	606b      	str	r3, [r5, #4]
	len = rhs.len;
   d6974:	68a3      	ldr	r3, [r4, #8]
   d6976:	60ab      	str	r3, [r5, #8]
	rhs.buffer = NULL;
   d6978:	2300      	movs	r3, #0
	rhs.capacity = 0;
   d697a:	e9c4 3300 	strd	r3, r3, [r4]
   d697e:	e7f1      	b.n	d6964 <_ZN6String4moveERS_+0x1e>

000d6980 <_ZN6StringaSERKS_>:
#endif

String & String::operator = (const String &rhs)
{
	if (this == &rhs) return *this;
   d6980:	4288      	cmp	r0, r1
{
   d6982:	b510      	push	{r4, lr}
   d6984:	4604      	mov	r4, r0
	if (this == &rhs) return *this;
   d6986:	d005      	beq.n	d6994 <_ZN6StringaSERKS_+0x14>

	if (rhs.buffer) copy(rhs.buffer, rhs.len);
   d6988:	680b      	ldr	r3, [r1, #0]
   d698a:	b12b      	cbz	r3, d6998 <_ZN6StringaSERKS_+0x18>
   d698c:	688a      	ldr	r2, [r1, #8]
   d698e:	4619      	mov	r1, r3
   d6990:	f7ff ffac 	bl	d68ec <_ZN6String4copyEPKcj>
	else invalidate();

	return *this;
}
   d6994:	4620      	mov	r0, r4
   d6996:	bd10      	pop	{r4, pc}
	else invalidate();
   d6998:	f7ff ff7d 	bl	d6896 <_ZN6String10invalidateEv>
   d699c:	e7fa      	b.n	d6994 <_ZN6StringaSERKS_+0x14>

000d699e <_ZN6StringC1ERKS_>:
String::String(const String &value)
   d699e:	b510      	push	{r4, lr}
	buffer = NULL;
   d69a0:	2300      	movs	r3, #0
String::String(const String &value)
   d69a2:	4604      	mov	r4, r0
	capacity = 0;
   d69a4:	e9c0 3300 	strd	r3, r3, [r0]
	len = 0;
   d69a8:	6083      	str	r3, [r0, #8]
	flags = 0;
   d69aa:	7303      	strb	r3, [r0, #12]
	*this = value;
   d69ac:	f7ff ffe8 	bl	d6980 <_ZN6StringaSERKS_>
}
   d69b0:	4620      	mov	r0, r4
   d69b2:	bd10      	pop	{r4, pc}

000d69b4 <_ZN6StringaSEOS_>:
}

#ifdef __GXX_EXPERIMENTAL_CXX0X__
String & String::operator = (String &&rval)
{
	if (this != &rval) move(rval);
   d69b4:	4288      	cmp	r0, r1
{
   d69b6:	b510      	push	{r4, lr}
   d69b8:	4604      	mov	r4, r0
	if (this != &rval) move(rval);
   d69ba:	d001      	beq.n	d69c0 <_ZN6StringaSEOS_+0xc>
   d69bc:	f7ff ffc3 	bl	d6946 <_ZN6String4moveERS_>
	return *this;
}
   d69c0:	4620      	mov	r0, r4
   d69c2:	bd10      	pop	{r4, pc}

000d69c4 <_ZN6StringaSEPKc>:
	return *this;
}
#endif

String & String::operator = (const char *cstr)
{
   d69c4:	b513      	push	{r0, r1, r4, lr}
   d69c6:	4604      	mov	r4, r0
	if (cstr) copy(cstr, strlen(cstr));
   d69c8:	b159      	cbz	r1, d69e2 <_ZN6StringaSEPKc+0x1e>
   d69ca:	4608      	mov	r0, r1
   d69cc:	9101      	str	r1, [sp, #4]
   d69ce:	f002 fc2a 	bl	d9226 <strlen>
   d69d2:	9901      	ldr	r1, [sp, #4]
   d69d4:	4602      	mov	r2, r0
   d69d6:	4620      	mov	r0, r4
   d69d8:	f7ff ff88 	bl	d68ec <_ZN6String4copyEPKcj>
	else invalidate();

	return *this;
}
   d69dc:	4620      	mov	r0, r4
   d69de:	b002      	add	sp, #8
   d69e0:	bd10      	pop	{r4, pc}
	else invalidate();
   d69e2:	f7ff ff58 	bl	d6896 <_ZN6String10invalidateEv>
   d69e6:	e7f9      	b.n	d69dc <_ZN6StringaSEPKc+0x18>

000d69e8 <_ZN6StringC1Eih>:
String::String(int value, unsigned char base)
   d69e8:	b510      	push	{r4, lr}
   d69ea:	4604      	mov	r4, r0
   d69ec:	b08a      	sub	sp, #40	; 0x28
	buffer = NULL;
   d69ee:	2300      	movs	r3, #0
	capacity = 0;
   d69f0:	e9c4 3300 	strd	r3, r3, [r4]
	len = 0;
   d69f4:	60a3      	str	r3, [r4, #8]
	flags = 0;
   d69f6:	7323      	strb	r3, [r4, #12]
String::String(int value, unsigned char base)
   d69f8:	4608      	mov	r0, r1
	itoa(value, buf, base);
   d69fa:	a901      	add	r1, sp, #4
   d69fc:	f000 fa36 	bl	d6e6c <itoa>
	*this = buf;
   d6a00:	a901      	add	r1, sp, #4
   d6a02:	4620      	mov	r0, r4
   d6a04:	f7ff ffde 	bl	d69c4 <_ZN6StringaSEPKc>
}
   d6a08:	4620      	mov	r0, r4
   d6a0a:	b00a      	add	sp, #40	; 0x28
   d6a0c:	bd10      	pop	{r4, pc}

000d6a0e <_ZN6String6concatEPKcj>:
{
	return concat(s.buffer, s.len);
}

unsigned char String::concat(const char *cstr, unsigned int length)
{
   d6a0e:	b570      	push	{r4, r5, r6, lr}
   d6a10:	4605      	mov	r5, r0
	unsigned int newlen = len + length;
	if (!cstr) return 0;
   d6a12:	460e      	mov	r6, r1
   d6a14:	b909      	cbnz	r1, d6a1a <_ZN6String6concatEPKcj+0xc>
   d6a16:	2000      	movs	r0, #0
	if (length == 0) return 1;
	if (!reserve(newlen)) return 0;
	strcpy(buffer + len, cstr);
	len = newlen;
	return 1;
}
   d6a18:	bd70      	pop	{r4, r5, r6, pc}
	if (length == 0) return 1;
   d6a1a:	b16a      	cbz	r2, d6a38 <_ZN6String6concatEPKcj+0x2a>
	unsigned int newlen = len + length;
   d6a1c:	6884      	ldr	r4, [r0, #8]
   d6a1e:	4414      	add	r4, r2
	if (!reserve(newlen)) return 0;
   d6a20:	4621      	mov	r1, r4
   d6a22:	f7ff ff4f 	bl	d68c4 <_ZN6String7reserveEj>
   d6a26:	2800      	cmp	r0, #0
   d6a28:	d0f5      	beq.n	d6a16 <_ZN6String6concatEPKcj+0x8>
	strcpy(buffer + len, cstr);
   d6a2a:	6828      	ldr	r0, [r5, #0]
   d6a2c:	68ab      	ldr	r3, [r5, #8]
   d6a2e:	4631      	mov	r1, r6
   d6a30:	4418      	add	r0, r3
   d6a32:	f002 fbd3 	bl	d91dc <strcpy>
	len = newlen;
   d6a36:	60ac      	str	r4, [r5, #8]
	if (length == 0) return 1;
   d6a38:	2001      	movs	r0, #1
   d6a3a:	e7ed      	b.n	d6a18 <_ZN6String6concatEPKcj+0xa>

000d6a3c <_ZN6String6concatEc>:
unsigned char String::concat(const __FlashStringHelper * str) {
	return concat(reinterpret_cast<const char*>(str));
}

unsigned char String::concat(char c)
{
   d6a3c:	b507      	push	{r0, r1, r2, lr}
	char buf[2];
	buf[0] = c;
	buf[1] = 0;
   d6a3e:	2300      	movs	r3, #0
	buf[0] = c;
   d6a40:	f88d 1004 	strb.w	r1, [sp, #4]
	return concat(buf, 1);
   d6a44:	2201      	movs	r2, #1
   d6a46:	a901      	add	r1, sp, #4
	buf[1] = 0;
   d6a48:	f88d 3005 	strb.w	r3, [sp, #5]
	return concat(buf, 1);
   d6a4c:	f7ff ffdf 	bl	d6a0e <_ZN6String6concatEPKcj>
}
   d6a50:	b003      	add	sp, #12
   d6a52:	f85d fb04 	ldr.w	pc, [sp], #4

000d6a56 <_ZplRK15StringSumHelperRK6String>:
/*********************************************/
/*  Concatenate                              */
/*********************************************/

StringSumHelper & operator + (const StringSumHelper &lhs, const String &rhs)
{
   d6a56:	b510      	push	{r4, lr}
	StringSumHelper &a = const_cast<StringSumHelper&>(lhs);
	if (!a.concat(rhs.buffer, rhs.len)) a.invalidate();
   d6a58:	688a      	ldr	r2, [r1, #8]
   d6a5a:	6809      	ldr	r1, [r1, #0]
{
   d6a5c:	4604      	mov	r4, r0
	if (!a.concat(rhs.buffer, rhs.len)) a.invalidate();
   d6a5e:	f7ff ffd6 	bl	d6a0e <_ZN6String6concatEPKcj>
   d6a62:	b910      	cbnz	r0, d6a6a <_ZplRK15StringSumHelperRK6String+0x14>
   d6a64:	4620      	mov	r0, r4
   d6a66:	f7ff ff16 	bl	d6896 <_ZN6String10invalidateEv>
	return a;
}
   d6a6a:	4620      	mov	r0, r4
   d6a6c:	bd10      	pop	{r4, pc}

000d6a6e <_ZplRK15StringSumHelperPKc>:

StringSumHelper & operator + (const StringSumHelper &lhs, const char *cstr)
{
   d6a6e:	b513      	push	{r0, r1, r4, lr}
   d6a70:	4604      	mov	r4, r0
	StringSumHelper &a = const_cast<StringSumHelper&>(lhs);
	if (!cstr || !a.concat(cstr, strlen(cstr))) a.invalidate();
   d6a72:	b929      	cbnz	r1, d6a80 <_ZplRK15StringSumHelperPKc+0x12>
   d6a74:	4620      	mov	r0, r4
   d6a76:	f7ff ff0e 	bl	d6896 <_ZN6String10invalidateEv>
	return a;
}
   d6a7a:	4620      	mov	r0, r4
   d6a7c:	b002      	add	sp, #8
   d6a7e:	bd10      	pop	{r4, pc}
	if (!cstr || !a.concat(cstr, strlen(cstr))) a.invalidate();
   d6a80:	4608      	mov	r0, r1
   d6a82:	9101      	str	r1, [sp, #4]
   d6a84:	f002 fbcf 	bl	d9226 <strlen>
   d6a88:	9901      	ldr	r1, [sp, #4]
   d6a8a:	4602      	mov	r2, r0
   d6a8c:	4620      	mov	r0, r4
   d6a8e:	f7ff ffbe 	bl	d6a0e <_ZN6String6concatEPKcj>
   d6a92:	2800      	cmp	r0, #0
   d6a94:	d0ee      	beq.n	d6a74 <_ZplRK15StringSumHelperPKc+0x6>
   d6a96:	e7f0      	b.n	d6a7a <_ZplRK15StringSumHelperPKc+0xc>

000d6a98 <_ZplRK15StringSumHelperc>:

StringSumHelper & operator + (const StringSumHelper &lhs, char c)
{
   d6a98:	b510      	push	{r4, lr}
   d6a9a:	4604      	mov	r4, r0
	StringSumHelper &a = const_cast<StringSumHelper&>(lhs);
	if (!a.concat(c)) a.invalidate();
   d6a9c:	f7ff ffce 	bl	d6a3c <_ZN6String6concatEc>
   d6aa0:	b910      	cbnz	r0, d6aa8 <_ZplRK15StringSumHelperc+0x10>
   d6aa2:	4620      	mov	r0, r4
   d6aa4:	f7ff fef7 	bl	d6896 <_ZN6String10invalidateEv>
	return a;
}
   d6aa8:	4620      	mov	r0, r4
   d6aaa:	bd10      	pop	{r4, pc}

000d6aac <_ZN6String6formatEPKcz>:
    StringPrintableHelper help(*this);
    printable.printTo(help);
}

String String::format(const char* fmt, ...)
{
   d6aac:	b40e      	push	{r1, r2, r3}
   d6aae:	b570      	push	{r4, r5, r6, lr}
   d6ab0:	b087      	sub	sp, #28
   d6ab2:	ad0b      	add	r5, sp, #44	; 0x2c
   d6ab4:	4604      	mov	r4, r0
   d6ab6:	f855 2b04 	ldr.w	r2, [r5], #4
    va_list marker;
    va_start(marker, fmt);
    const int bufsize = 5;
    char test[bufsize];
    size_t n = vsnprintf(test, bufsize, fmt, marker);
   d6aba:	9201      	str	r2, [sp, #4]
   d6abc:	462b      	mov	r3, r5
   d6abe:	2105      	movs	r1, #5
   d6ac0:	a804      	add	r0, sp, #16
    va_start(marker, fmt);
   d6ac2:	9503      	str	r5, [sp, #12]
    size_t n = vsnprintf(test, bufsize, fmt, marker);
   d6ac4:	f7ff f944 	bl	d5d50 <vsnprintf>
    va_end(marker);

    String result;
   d6ac8:	490b      	ldr	r1, [pc, #44]	; (d6af8 <_ZN6String6formatEPKcz+0x4c>)
    size_t n = vsnprintf(test, bufsize, fmt, marker);
   d6aca:	4606      	mov	r6, r0
    String result;
   d6acc:	4620      	mov	r0, r4
   d6ace:	f7ff ff26 	bl	d691e <_ZN6StringC1EPKc>
    result.reserve(n);  // internally adds +1 for null terminator
   d6ad2:	4631      	mov	r1, r6
   d6ad4:	4620      	mov	r0, r4
   d6ad6:	f7ff fef5 	bl	d68c4 <_ZN6String7reserveEj>
    if (result.buffer) {
   d6ada:	6820      	ldr	r0, [r4, #0]
   d6adc:	b130      	cbz	r0, d6aec <_ZN6String6formatEPKcz+0x40>
        va_start(marker, fmt);
        n = vsnprintf(result.buffer, n+1, fmt, marker);
   d6ade:	9a01      	ldr	r2, [sp, #4]
        va_start(marker, fmt);
   d6ae0:	9503      	str	r5, [sp, #12]
        n = vsnprintf(result.buffer, n+1, fmt, marker);
   d6ae2:	462b      	mov	r3, r5
   d6ae4:	1c71      	adds	r1, r6, #1
   d6ae6:	f7ff f933 	bl	d5d50 <vsnprintf>
        va_end(marker);
        result.len = n;
   d6aea:	60a0      	str	r0, [r4, #8]
    }
    return result;
}
   d6aec:	4620      	mov	r0, r4
   d6aee:	b007      	add	sp, #28
   d6af0:	e8bd 4070 	ldmia.w	sp!, {r4, r5, r6, lr}
   d6af4:	b003      	add	sp, #12
   d6af6:	4770      	bx	lr
   d6af8:	000d946e 	.word	0x000d946e

000d6afc <_ZN17SystemSleepResult22freeWakeupSourceMemoryEv.isra.0>:
    operator SleepResult() {
        return toSleepResult();
    }

private:
    void freeWakeupSourceMemory() {
   d6afc:	b510      	push	{r4, lr}
   d6afe:	4604      	mov	r4, r0
        if (wakeupSource_) {
   d6b00:	6800      	ldr	r0, [r0, #0]
   d6b02:	b118      	cbz	r0, d6b0c <_ZN17SystemSleepResult22freeWakeupSourceMemoryEv.isra.0+0x10>
            free(wakeupSource_);
   d6b04:	f7ff f914 	bl	d5d30 <free>
            wakeupSource_ = nullptr;
   d6b08:	2300      	movs	r3, #0
   d6b0a:	6023      	str	r3, [r4, #0]
        }
    }
   d6b0c:	bd10      	pop	{r4, pc}

000d6b0e <_ZN11SystemClassD1Ev>:
    system_error_t error_;
    SleepResult compatResult_;
};


class SystemClass {
   d6b0e:	b510      	push	{r4, lr}
   d6b10:	4604      	mov	r4, r0
        freeWakeupSourceMemory();
   d6b12:	f7ff fff3 	bl	d6afc <_ZN17SystemSleepResult22freeWakeupSourceMemoryEv.isra.0>
class SystemClass {
   d6b16:	4620      	mov	r0, r4
   d6b18:	bd10      	pop	{r4, pc}
	...

000d6b1c <_GLOBAL__sub_I_System>:
    return wokenUpByRtc();
}

system_error_t SleepResult::error() const {
    return err_;
   d6b1c:	b510      	push	{r4, lr}
} // namespace particle

// particle::Flag<TagT, ValueT>
template<typename TagT, typename ValueT>
inline particle::Flag<TagT, ValueT>::Flag(ValueT val) :
        val_(val) {
   d6b1e:	4b09      	ldr	r3, [pc, #36]	; (d6b44 <_GLOBAL__sub_I_System+0x28>)
              error_(SYSTEM_ERROR_NONE) {
   d6b20:	4c09      	ldr	r4, [pc, #36]	; (d6b48 <_GLOBAL__sub_I_System+0x2c>)
   d6b22:	2202      	movs	r2, #2
   d6b24:	2000      	movs	r0, #0
   d6b26:	601a      	str	r2, [r3, #0]
    SleepResult() {}
   d6b28:	4b08      	ldr	r3, [pc, #32]	; (d6b4c <_GLOBAL__sub_I_System+0x30>)
              error_(SYSTEM_ERROR_NONE) {
   d6b2a:	6020      	str	r0, [r4, #0]
   d6b2c:	80a0      	strh	r0, [r4, #4]
    SleepResult() {}
   d6b2e:	71a0      	strb	r0, [r4, #6]
   d6b30:	60a3      	str	r3, [r4, #8]
public:

    SystemClass(System_Mode_TypeDef mode = DEFAULT) {
        set_system_mode(mode);
   d6b32:	f7ff f859 	bl	d5be8 <set_system_mode>
SystemClass System;
   d6b36:	4620      	mov	r0, r4
   d6b38:	4a05      	ldr	r2, [pc, #20]	; (d6b50 <_GLOBAL__sub_I_System+0x34>)
   d6b3a:	4906      	ldr	r1, [pc, #24]	; (d6b54 <_GLOBAL__sub_I_System+0x38>)
   d6b3c:	e8bd 4010 	ldmia.w	sp!, {r4, lr}
SystemClass System;
   d6b40:	f000 bc6a 	b.w	d7418 <__aeabi_atexit>
   d6b44:	2003e63c 	.word	0x2003e63c
   d6b48:	2003e630 	.word	0x2003e630
   d6b4c:	ffff0000 	.word	0xffff0000
   d6b50:	2003e444 	.word	0x2003e444
   d6b54:	000d6b0f 	.word	0x000d6b0f

000d6b58 <_GLOBAL__sub_I_TIME_FORMAT_DEFAULT>:
            calendar_time_cache = Convert_UnixTime_To_CalendarTime(unix_time);
            unix_time_cache = unix_time;
    }
}

const char* TimeClass::format_spec = TIME_FORMAT_DEFAULT;
   d6b58:	4b02      	ldr	r3, [pc, #8]	; (d6b64 <_GLOBAL__sub_I_TIME_FORMAT_DEFAULT+0xc>)
   d6b5a:	681a      	ldr	r2, [r3, #0]
   d6b5c:	4b02      	ldr	r3, [pc, #8]	; (d6b68 <_GLOBAL__sub_I_TIME_FORMAT_DEFAULT+0x10>)
   d6b5e:	601a      	str	r2, [r3, #0]
{
  return isValid();
}


TimeClass Time;
   d6b60:	4770      	bx	lr
   d6b62:	bf00      	nop
   d6b64:	2003e3d8 	.word	0x2003e3d8
   d6b68:	2003e640 	.word	0x2003e640

000d6b6c <_ZN11USARTSerialD1Ev>:
private:
  hal_usart_interface_t _serial;
  bool _blocking;
public:
  USARTSerial(hal_usart_interface_t serial, hal_usart_ring_buffer_t *rx_buffer, hal_usart_ring_buffer_t *tx_buffer);
  virtual ~USARTSerial() {};
   d6b6c:	4770      	bx	lr

000d6b6e <_ZN11USARTSerial14blockOnOverrunEb>:
    hal_usart_half_duplex(_serial, Enable);
}

void USARTSerial::blockOnOverrun(bool block)
{
  _blocking = block;
   d6b6e:	7441      	strb	r1, [r0, #17]
}
   d6b70:	4770      	bx	lr

000d6b72 <_ZN11USARTSerial17availableForWriteEv>:


int USARTSerial::availableForWrite(void)
{
   d6b72:	b508      	push	{r3, lr}
  return std::max(0, (int)hal_usart_available_data_for_write(_serial));
   d6b74:	7c00      	ldrb	r0, [r0, #16]
   d6b76:	f7fe ffef 	bl	d5b58 <hal_usart_available_data_for_write>
}
   d6b7a:	ea20 70e0 	bic.w	r0, r0, r0, asr #31
   d6b7e:	bd08      	pop	{r3, pc}

000d6b80 <_ZN11USARTSerial9availableEv>:

int USARTSerial::available(void)
{
   d6b80:	b508      	push	{r3, lr}
  return std::max(0, (int)hal_usart_available(_serial));
   d6b82:	7c00      	ldrb	r0, [r0, #16]
   d6b84:	f7fe ffc0 	bl	d5b08 <hal_usart_available>
}
   d6b88:	ea20 70e0 	bic.w	r0, r0, r0, asr #31
   d6b8c:	bd08      	pop	{r3, pc}

000d6b8e <_ZN11USARTSerial4peekEv>:

int USARTSerial::peek(void)
{
   d6b8e:	b508      	push	{r3, lr}
  return std::max(-1, (int)hal_usart_peek(_serial));
   d6b90:	7c00      	ldrb	r0, [r0, #16]
   d6b92:	f7fe ffc9 	bl	d5b28 <hal_usart_peek>
}
   d6b96:	ea40 70e0 	orr.w	r0, r0, r0, asr #31
   d6b9a:	bd08      	pop	{r3, pc}

000d6b9c <_ZN11USARTSerial4readEv>:

int USARTSerial::read(void)
{
   d6b9c:	b508      	push	{r3, lr}
  return std::max(-1, (int)hal_usart_read(_serial));
   d6b9e:	7c00      	ldrb	r0, [r0, #16]
   d6ba0:	f7fe ffba 	bl	d5b18 <hal_usart_read>
}
   d6ba4:	ea40 70e0 	orr.w	r0, r0, r0, asr #31
   d6ba8:	bd08      	pop	{r3, pc}

000d6baa <_ZN11USARTSerial5flushEv>:

void USARTSerial::flush()
{
  hal_usart_flush(_serial);
   d6baa:	7c00      	ldrb	r0, [r0, #16]
   d6bac:	f7fe bfc4 	b.w	d5b38 <hal_usart_flush>

000d6bb0 <_ZN11USARTSerial5writeEh>:
}

size_t USARTSerial::write(uint8_t c)
{
   d6bb0:	b537      	push	{r0, r1, r2, r4, r5, lr}
  // attempt a write if blocking, or for non-blocking if there is room.
  if (_blocking || hal_usart_available_data_for_write(_serial) > 0) {
   d6bb2:	7c45      	ldrb	r5, [r0, #17]
{
   d6bb4:	4604      	mov	r4, r0
  if (_blocking || hal_usart_available_data_for_write(_serial) > 0) {
   d6bb6:	b12d      	cbz	r5, d6bc4 <_ZN11USARTSerial5writeEh+0x14>
    // the HAL always blocks.
	  return hal_usart_write(_serial, c);
   d6bb8:	7c20      	ldrb	r0, [r4, #16]
  }
  return 0;
}
   d6bba:	b003      	add	sp, #12
   d6bbc:	e8bd 4030 	ldmia.w	sp!, {r4, r5, lr}
	  return hal_usart_write(_serial, c);
   d6bc0:	f7fe bf9a 	b.w	d5af8 <hal_usart_write>
  if (_blocking || hal_usart_available_data_for_write(_serial) > 0) {
   d6bc4:	7c00      	ldrb	r0, [r0, #16]
   d6bc6:	9101      	str	r1, [sp, #4]
   d6bc8:	f7fe ffc6 	bl	d5b58 <hal_usart_available_data_for_write>
   d6bcc:	2800      	cmp	r0, #0
   d6bce:	9901      	ldr	r1, [sp, #4]
   d6bd0:	dcf2      	bgt.n	d6bb8 <_ZN11USARTSerial5writeEh+0x8>
}
   d6bd2:	4628      	mov	r0, r5
   d6bd4:	b003      	add	sp, #12
   d6bd6:	bd30      	pop	{r4, r5, pc}

000d6bd8 <_ZN11USARTSerialD0Ev>:
   d6bd8:	b510      	push	{r4, lr}
   d6bda:	2114      	movs	r1, #20
   d6bdc:	4604      	mov	r4, r0
   d6bde:	f000 fc20 	bl	d7422 <_ZdlPvj>
   d6be2:	4620      	mov	r0, r4
   d6be4:	bd10      	pop	{r4, pc}
	...

000d6be8 <_ZN11USARTSerialC1E21hal_usart_interface_tP23hal_usart_ring_buffer_tS2_>:
USARTSerial::USARTSerial(hal_usart_interface_t serial, hal_usart_ring_buffer_t *rx_buffer, hal_usart_ring_buffer_t *tx_buffer)
   d6be8:	b510      	push	{r4, lr}
   d6bea:	f04f 0c00 	mov.w	ip, #0
   d6bee:	4604      	mov	r4, r0
   d6bf0:	4608      	mov	r0, r1
   d6bf2:	4611      	mov	r1, r2
   d6bf4:	f44f 727a 	mov.w	r2, #1000	; 0x3e8
   d6bf8:	e9c4 c201 	strd	ip, r2, [r4, #4]
   d6bfc:	4a04      	ldr	r2, [pc, #16]	; (d6c10 <_ZN11USARTSerialC1E21hal_usart_interface_tP23hal_usart_ring_buffer_tS2_+0x28>)
   d6bfe:	6022      	str	r2, [r4, #0]
  _blocking = true;
   d6c00:	2201      	movs	r2, #1
  _serial = serial;
   d6c02:	7420      	strb	r0, [r4, #16]
  _blocking = true;
   d6c04:	7462      	strb	r2, [r4, #17]
  hal_usart_init(serial, rx_buffer, tx_buffer);
   d6c06:	461a      	mov	r2, r3
   d6c08:	f7fe ff6e 	bl	d5ae8 <hal_usart_init>
}
   d6c0c:	4620      	mov	r0, r4
   d6c0e:	bd10      	pop	{r4, pc}
   d6c10:	000d961c 	.word	0x000d961c

000d6c14 <_Z22__fetch_global_Serial1v>:
static hal_usart_ring_buffer_t* serial1_rx_buffer = nullptr;
static hal_usart_ring_buffer_t* serial1_tx_buffer = nullptr;
#endif

USARTSerial& __fetch_global_Serial1()
{
   d6c14:	b513      	push	{r0, r1, r4, lr}
#if ((MODULE_FUNCTION == MOD_FUNC_USER_PART) || (MODULE_FUNCTION == MOD_FUNC_MONO_FIRMWARE))
	static USARTSerial serial1(HAL_USART_SERIAL1, &serial1_rx_buffer, &serial1_tx_buffer);
   d6c16:	4c0e      	ldr	r4, [pc, #56]	; (d6c50 <_Z22__fetch_global_Serial1v+0x3c>)
   d6c18:	7821      	ldrb	r1, [r4, #0]
   d6c1a:	f3bf 8f5b 	dmb	ish
   d6c1e:	f011 0101 	ands.w	r1, r1, #1
   d6c22:	d112      	bne.n	d6c4a <_Z22__fetch_global_Serial1v+0x36>
   d6c24:	4620      	mov	r0, r4
   d6c26:	9101      	str	r1, [sp, #4]
   d6c28:	f7fd fa3b 	bl	d40a2 <__cxa_guard_acquire>
   d6c2c:	9901      	ldr	r1, [sp, #4]
   d6c2e:	b160      	cbz	r0, d6c4a <_Z22__fetch_global_Serial1v+0x36>
   d6c30:	4a08      	ldr	r2, [pc, #32]	; (d6c54 <_Z22__fetch_global_Serial1v+0x40>)
   d6c32:	4b09      	ldr	r3, [pc, #36]	; (d6c58 <_Z22__fetch_global_Serial1v+0x44>)
   d6c34:	4809      	ldr	r0, [pc, #36]	; (d6c5c <_Z22__fetch_global_Serial1v+0x48>)
   d6c36:	f7ff ffd7 	bl	d6be8 <_ZN11USARTSerialC1E21hal_usart_interface_tP23hal_usart_ring_buffer_tS2_>
   d6c3a:	4620      	mov	r0, r4
   d6c3c:	f7fd fa36 	bl	d40ac <__cxa_guard_release>
   d6c40:	4a07      	ldr	r2, [pc, #28]	; (d6c60 <_Z22__fetch_global_Serial1v+0x4c>)
   d6c42:	4908      	ldr	r1, [pc, #32]	; (d6c64 <_Z22__fetch_global_Serial1v+0x50>)
   d6c44:	4805      	ldr	r0, [pc, #20]	; (d6c5c <_Z22__fetch_global_Serial1v+0x48>)
   d6c46:	f000 fbe7 	bl	d7418 <__aeabi_atexit>
    serial1_tx_buffer = new hal_usart_ring_buffer_t();
  }
  static USARTSerial serial1(HAL_USART_SERIAL1, serial1_rx_buffer, serial1_tx_buffer);
#endif
	return serial1;
}
   d6c4a:	4804      	ldr	r0, [pc, #16]	; (d6c5c <_Z22__fetch_global_Serial1v+0x48>)
   d6c4c:	b002      	add	sp, #8
   d6c4e:	bd10      	pop	{r4, pc}
   d6c50:	2003e644 	.word	0x2003e644
   d6c54:	2003e648 	.word	0x2003e648
   d6c58:	2003e6cc 	.word	0x2003e6cc
   d6c5c:	2003e750 	.word	0x2003e750
   d6c60:	2003e444 	.word	0x2003e444
   d6c64:	000d6b6d 	.word	0x000d6b6d

000d6c68 <_ZN9USBSerial14blockOnOverrunEb>:
  HAL_USB_USART_Flush_Data(_serial);
}

void USBSerial::blockOnOverrun(bool block)
{
  _blocking = block;
   d6c68:	7441      	strb	r1, [r0, #17]
}
   d6c6a:	4770      	bx	lr

000d6c6c <_ZN9USBSerialD1Ev>:
#include "usb_hal.h"
#include "system_task.h"
#include "spark_wiring_startup.h"
#include "concurrent_hal.h"

class USBSerial : public Stream
   d6c6c:	4770      	bx	lr

000d6c6e <_ZN9USBSerial4readEv>:
{
   d6c6e:	b508      	push	{r3, lr}
	return std::max(-1, (int)HAL_USB_USART_Receive_Data(_serial, false));
   d6c70:	2100      	movs	r1, #0
   d6c72:	7c00      	ldrb	r0, [r0, #16]
   d6c74:	f7fe ff98 	bl	d5ba8 <HAL_USB_USART_Receive_Data>
}
   d6c78:	ea40 70e0 	orr.w	r0, r0, r0, asr #31
   d6c7c:	bd08      	pop	{r3, pc}

000d6c7e <_ZN9USBSerial4peekEv>:

int USBSerial::peek()
{
   d6c7e:	b508      	push	{r3, lr}
	return std::max(-1, (int)HAL_USB_USART_Receive_Data(_serial, true));
   d6c80:	2101      	movs	r1, #1
   d6c82:	7c00      	ldrb	r0, [r0, #16]
   d6c84:	f7fe ff90 	bl	d5ba8 <HAL_USB_USART_Receive_Data>
}
   d6c88:	ea40 70e0 	orr.w	r0, r0, r0, asr #31
   d6c8c:	bd08      	pop	{r3, pc}

000d6c8e <_ZN9USBSerial17availableForWriteEv>:
{
   d6c8e:	b508      	push	{r3, lr}
  return std::max(0, (int)HAL_USB_USART_Available_Data_For_Write(_serial));
   d6c90:	7c00      	ldrb	r0, [r0, #16]
   d6c92:	f7fe ff81 	bl	d5b98 <HAL_USB_USART_Available_Data_For_Write>
}
   d6c96:	ea20 70e0 	bic.w	r0, r0, r0, asr #31
   d6c9a:	bd08      	pop	{r3, pc}

000d6c9c <_ZN9USBSerial9availableEv>:
{
   d6c9c:	b508      	push	{r3, lr}
	return std::max(0, (int)HAL_USB_USART_Available_Data(_serial));
   d6c9e:	7c00      	ldrb	r0, [r0, #16]
   d6ca0:	f7fe ff72 	bl	d5b88 <HAL_USB_USART_Available_Data>
}
   d6ca4:	ea20 70e0 	bic.w	r0, r0, r0, asr #31
   d6ca8:	bd08      	pop	{r3, pc}

000d6caa <_ZN9USBSerial5writeEh>:
{
   d6caa:	b513      	push	{r0, r1, r4, lr}
   d6cac:	4604      	mov	r4, r0
  if (HAL_USB_USART_Available_Data_For_Write(_serial) > 0 || _blocking) {
   d6cae:	7c00      	ldrb	r0, [r0, #16]
{
   d6cb0:	9101      	str	r1, [sp, #4]
  if (HAL_USB_USART_Available_Data_For_Write(_serial) > 0 || _blocking) {
   d6cb2:	f7fe ff71 	bl	d5b98 <HAL_USB_USART_Available_Data_For_Write>
   d6cb6:	2800      	cmp	r0, #0
   d6cb8:	9901      	ldr	r1, [sp, #4]
   d6cba:	dc01      	bgt.n	d6cc0 <_ZN9USBSerial5writeEh+0x16>
   d6cbc:	7c60      	ldrb	r0, [r4, #17]
   d6cbe:	b120      	cbz	r0, d6cca <_ZN9USBSerial5writeEh+0x20>
    return std::max(0, (int)HAL_USB_USART_Send_Data(_serial, byte));
   d6cc0:	7c20      	ldrb	r0, [r4, #16]
   d6cc2:	f7fe ff79 	bl	d5bb8 <HAL_USB_USART_Send_Data>
   d6cc6:	ea20 70e0 	bic.w	r0, r0, r0, asr #31
}
   d6cca:	b002      	add	sp, #8
   d6ccc:	bd10      	pop	{r4, pc}

000d6cce <_ZN9USBSerial5flushEv>:
  HAL_USB_USART_Flush_Data(_serial);
   d6cce:	7c00      	ldrb	r0, [r0, #16]
   d6cd0:	f7fe bf7a 	b.w	d5bc8 <HAL_USB_USART_Flush_Data>

000d6cd4 <_ZN9USBSerialD0Ev>:
   d6cd4:	b510      	push	{r4, lr}
   d6cd6:	2114      	movs	r1, #20
   d6cd8:	4604      	mov	r4, r0
   d6cda:	f000 fba2 	bl	d7422 <_ZdlPvj>
   d6cde:	4620      	mov	r0, r4
   d6ce0:	bd10      	pop	{r4, pc}
	...

000d6ce4 <_ZN9USBSerialC1E20HAL_USB_USART_SerialRK20HAL_USB_USART_Config>:
USBSerial::USBSerial(HAL_USB_USART_Serial serial, const HAL_USB_USART_Config& conf)
   d6ce4:	b510      	push	{r4, lr}
   d6ce6:	f44f 737a 	mov.w	r3, #1000	; 0x3e8
   d6cea:	4604      	mov	r4, r0
   d6cec:	4608      	mov	r0, r1
   d6cee:	2100      	movs	r1, #0
   d6cf0:	e9c4 1301 	strd	r1, r3, [r4, #4]
   d6cf4:	4b04      	ldr	r3, [pc, #16]	; (d6d08 <_ZN9USBSerialC1E20HAL_USB_USART_SerialRK20HAL_USB_USART_Config+0x24>)
   d6cf6:	6023      	str	r3, [r4, #0]
  _blocking = true;
   d6cf8:	2301      	movs	r3, #1
  _serial = serial;
   d6cfa:	7420      	strb	r0, [r4, #16]
  _blocking = true;
   d6cfc:	7463      	strb	r3, [r4, #17]
  HAL_USB_USART_Init(_serial, &conf);
   d6cfe:	4611      	mov	r1, r2
   d6d00:	f7fe ff32 	bl	d5b68 <HAL_USB_USART_Init>
}
   d6d04:	4620      	mov	r0, r4
   d6d06:	bd10      	pop	{r4, pc}
   d6d08:	000d964c 	.word	0x000d964c

000d6d0c <_ZN9USBSerial5beginEl>:
    HAL_USB_USART_Begin(_serial, speed, NULL);
   d6d0c:	7c00      	ldrb	r0, [r0, #16]
   d6d0e:	2200      	movs	r2, #0
   d6d10:	f7fe bf32 	b.w	d5b78 <HAL_USB_USART_Begin>

000d6d14 <_Z19acquireSerialBufferv>:

// Preinstantiate Objects //////////////////////////////////////////////////////
#ifdef SPARK_USB_SERIAL

HAL_USB_USART_Config __attribute__((weak)) acquireSerialBuffer()
{
   d6d14:	b510      	push	{r4, lr}
  HAL_USB_USART_Config conf = {0};
   d6d16:	2214      	movs	r2, #20
{
   d6d18:	4604      	mov	r4, r0
  HAL_USB_USART_Config conf = {0};
   d6d1a:	2100      	movs	r1, #0
   d6d1c:	f002 f9fe 	bl	d911c <memset>
  conf.rx_buffer_size = USB_RX_BUFFER_SIZE;
  conf.tx_buffer_size = USB_TX_BUFFER_SIZE;
#endif

  return conf;
}
   d6d20:	4620      	mov	r0, r4
   d6d22:	bd10      	pop	{r4, pc}

000d6d24 <_Z16_fetch_usbserialv>:

USBSerial& _fetch_usbserial()
{
   d6d24:	b510      	push	{r4, lr}
  HAL_USB_USART_Config conf = acquireSerialBuffer();
	static USBSerial _usbserial(HAL_USB_USART_SERIAL, conf);
   d6d26:	4c10      	ldr	r4, [pc, #64]	; (d6d68 <_Z16_fetch_usbserialv+0x44>)
{
   d6d28:	b088      	sub	sp, #32
  HAL_USB_USART_Config conf = acquireSerialBuffer();
   d6d2a:	a803      	add	r0, sp, #12
   d6d2c:	f7ff fff2 	bl	d6d14 <_Z19acquireSerialBufferv>
	static USBSerial _usbserial(HAL_USB_USART_SERIAL, conf);
   d6d30:	7821      	ldrb	r1, [r4, #0]
   d6d32:	f3bf 8f5b 	dmb	ish
   d6d36:	f011 0101 	ands.w	r1, r1, #1
   d6d3a:	d111      	bne.n	d6d60 <_Z16_fetch_usbserialv+0x3c>
   d6d3c:	4620      	mov	r0, r4
   d6d3e:	9101      	str	r1, [sp, #4]
   d6d40:	f7fd f9af 	bl	d40a2 <__cxa_guard_acquire>
   d6d44:	9901      	ldr	r1, [sp, #4]
   d6d46:	b158      	cbz	r0, d6d60 <_Z16_fetch_usbserialv+0x3c>
   d6d48:	aa03      	add	r2, sp, #12
   d6d4a:	4808      	ldr	r0, [pc, #32]	; (d6d6c <_Z16_fetch_usbserialv+0x48>)
   d6d4c:	f7ff ffca 	bl	d6ce4 <_ZN9USBSerialC1E20HAL_USB_USART_SerialRK20HAL_USB_USART_Config>
   d6d50:	4620      	mov	r0, r4
   d6d52:	f7fd f9ab 	bl	d40ac <__cxa_guard_release>
   d6d56:	4a06      	ldr	r2, [pc, #24]	; (d6d70 <_Z16_fetch_usbserialv+0x4c>)
   d6d58:	4906      	ldr	r1, [pc, #24]	; (d6d74 <_Z16_fetch_usbserialv+0x50>)
   d6d5a:	4804      	ldr	r0, [pc, #16]	; (d6d6c <_Z16_fetch_usbserialv+0x48>)
   d6d5c:	f000 fb5c 	bl	d7418 <__aeabi_atexit>
	return _usbserial;
}
   d6d60:	4802      	ldr	r0, [pc, #8]	; (d6d6c <_Z16_fetch_usbserialv+0x48>)
   d6d62:	b008      	add	sp, #32
   d6d64:	bd10      	pop	{r4, pc}
   d6d66:	bf00      	nop
   d6d68:	2003e764 	.word	0x2003e764
   d6d6c:	2003e768 	.word	0x2003e768
   d6d70:	2003e444 	.word	0x2003e444
   d6d74:	000d6c6d 	.word	0x000d6c6d

000d6d78 <_ZN5spark9WiFiClass5readyEv>:
    bool connecting(void) {
        return network_connecting(*this, 0, NULL);
    }

    bool ready(void) {
        return network_ready(*this, 0, NULL);
   d6d78:	2200      	movs	r2, #0
   d6d7a:	6840      	ldr	r0, [r0, #4]
   d6d7c:	4611      	mov	r1, r2
   d6d7e:	f7fe bf97 	b.w	d5cb0 <network_ready>

000d6d82 <_ZN5spark9WiFiClass9listeningEv>:
    uint16_t getListenTimeout(void) {
        return network_get_listen_timeout(*this, 0, NULL);
    }

    bool listening(void) {
        return network_listening(*this, 0, NULL);
   d6d82:	2200      	movs	r2, #0
   d6d84:	6840      	ldr	r0, [r0, #4]
   d6d86:	4611      	mov	r1, r2
   d6d88:	f7fe bfb2 	b.w	d5cf0 <network_listening>

000d6d8c <_ZN5spark9WiFiClass16getListenTimeoutEv>:
        return network_get_listen_timeout(*this, 0, NULL);
   d6d8c:	2200      	movs	r2, #0
   d6d8e:	6840      	ldr	r0, [r0, #4]
   d6d90:	4611      	mov	r1, r2
   d6d92:	f7fe bfbd 	b.w	d5d10 <network_get_listen_timeout>

000d6d96 <_ZN5spark9WiFiClass16setListenTimeoutEt>:
        network_set_listen_timeout(*this, timeout, NULL);
   d6d96:	6840      	ldr	r0, [r0, #4]
   d6d98:	2200      	movs	r2, #0
   d6d9a:	f7fe bfb1 	b.w	d5d00 <network_set_listen_timeout>

000d6d9e <_ZN5spark9WiFiClass6listenEb>:
        network_listen(*this, begin ? 0 : 1, NULL);
   d6d9e:	6840      	ldr	r0, [r0, #4]
   d6da0:	2200      	movs	r2, #0
   d6da2:	f081 0101 	eor.w	r1, r1, #1
   d6da6:	f7fe bf9b 	b.w	d5ce0 <network_listen>

000d6daa <_ZN5spark9WiFiClass3offEv>:
        network_off(*this, 0, 0, NULL);
   d6daa:	2300      	movs	r3, #0
   d6dac:	6840      	ldr	r0, [r0, #4]
   d6dae:	461a      	mov	r2, r3
   d6db0:	4619      	mov	r1, r3
   d6db2:	f7fe bf8d 	b.w	d5cd0 <network_off>

000d6db6 <_ZN5spark9WiFiClass2onEv>:
        network_on(*this, 0, 0, NULL);
   d6db6:	2300      	movs	r3, #0
   d6db8:	6840      	ldr	r0, [r0, #4]
   d6dba:	461a      	mov	r2, r3
   d6dbc:	4619      	mov	r1, r3
   d6dbe:	f7fe bf7f 	b.w	d5cc0 <network_on>

000d6dc2 <_ZN5spark9WiFiClass10connectingEv>:
        return network_connecting(*this, 0, NULL);
   d6dc2:	2200      	movs	r2, #0
   d6dc4:	6840      	ldr	r0, [r0, #4]
   d6dc6:	4611      	mov	r1, r2
   d6dc8:	f7fe bf62 	b.w	d5c90 <network_connecting>

000d6dcc <_ZN5spark9WiFiClass10disconnectEv>:
        network_disconnect(*this, NETWORK_DISCONNECT_REASON_USER, NULL);
   d6dcc:	6840      	ldr	r0, [r0, #4]
   d6dce:	2200      	movs	r2, #0
   d6dd0:	2102      	movs	r1, #2
   d6dd2:	f7fe bf65 	b.w	d5ca0 <network_disconnect>

000d6dd6 <_ZN5spark9WiFiClass7connectEj>:
        network_connect(*this, flags, 0, NULL);
   d6dd6:	2300      	movs	r3, #0
   d6dd8:	6840      	ldr	r0, [r0, #4]
   d6dda:	461a      	mov	r2, r3
   d6ddc:	f7fe bf50 	b.w	d5c80 <network_connect>

000d6de0 <_GLOBAL__sub_I__ZN10WiFiSignalC2ERK21wlan_connected_info_t>:
   d6de0:	4b02      	ldr	r3, [pc, #8]	; (d6dec <_GLOBAL__sub_I__ZN10WiFiSignalC2ERK21wlan_connected_info_t+0xc>)
   d6de2:	2204      	movs	r2, #4
   d6de4:	605a      	str	r2, [r3, #4]
            NetworkClass(NETWORK_INTERFACE_WIFI_STA) {
   d6de6:	4a02      	ldr	r2, [pc, #8]	; (d6df0 <_GLOBAL__sub_I__ZN10WiFiSignalC2ERK21wlan_connected_info_t+0x10>)
   d6de8:	601a      	str	r2, [r3, #0]
the same way.
*****************************************************************************/

    WiFiClass WiFi;
    // NetworkClass& Network = WiFi;
}
   d6dea:	4770      	bx	lr
   d6dec:	2003e77c 	.word	0x2003e77c
   d6df0:	000d967c 	.word	0x000d967c

000d6df4 <_Z11str_reversePc>:

//------------------------------------------------------------------------------------------
#define BUFSIZE (sizeof(long) * 8 + 1)

//utility function used by ultoa()
__attribute__((weak)) void str_reverse(char* buffer){
   d6df4:	b510      	push	{r4, lr}
   d6df6:	4604      	mov	r4, r0
	char *i, *j;
	char c;
	i=buffer;
	j=buffer + strlen(buffer)-1;
   d6df8:	f002 fa15 	bl	d9226 <strlen>
   d6dfc:	3801      	subs	r0, #1
   d6dfe:	1823      	adds	r3, r4, r0
   d6e00:	4620      	mov	r0, r4
	while(i<j){
   d6e02:	4283      	cmp	r3, r0
   d6e04:	d906      	bls.n	d6e14 <_Z11str_reversePc+0x20>
		c = *i;
   d6e06:	7802      	ldrb	r2, [r0, #0]
		*i = *j;
   d6e08:	7819      	ldrb	r1, [r3, #0]
   d6e0a:	f800 1b01 	strb.w	r1, [r0], #1
		*j = c;
   d6e0e:	f803 2901 	strb.w	r2, [r3], #-1
	while(i<j){
   d6e12:	e7f6      	b.n	d6e02 <_Z11str_reversePc+0xe>
		++i;
		--j;
	}
}
   d6e14:	bd10      	pop	{r4, pc}

000d6e16 <ultoa>:
      memcpy(head, ++tail, i);
      return str;
}

//convert unsigned long to string
__attribute__((weak)) char* ultoa(unsigned long a, char* buffer, int radix, char pad){
   d6e16:	b570      	push	{r4, r5, r6, lr}
   d6e18:	460c      	mov	r4, r1
	if(radix<2 || radix>36){
   d6e1a:	1e91      	subs	r1, r2, #2
   d6e1c:	2922      	cmp	r1, #34	; 0x22
__attribute__((weak)) char* ultoa(unsigned long a, char* buffer, int radix, char pad){
   d6e1e:	4605      	mov	r5, r0
	if(radix<2 || radix>36){
   d6e20:	d822      	bhi.n	d6e68 <ultoa+0x52>
		return NULL;
	}
	char* ptr=buffer;
   d6e22:	4620      	mov	r0, r4

	div_t result;
	while(a){
   d6e24:	b16d      	cbz	r5, d6e42 <ultoa+0x2c>
            /* toolchain bug??
            result = div(a, radix);
            */
            result.quot = a/radix;
   d6e26:	fbb5 f6f2 	udiv	r6, r5, r2
            result.rem = a%radix;
   d6e2a:	fb02 5516 	mls	r5, r2, r6, r5
            *ptr = result.rem;
   d6e2e:	b2e9      	uxtb	r1, r5
            if(result.rem<10){
   d6e30:	2d09      	cmp	r5, #9
                *ptr += '0';
   d6e32:	bf94      	ite	ls
   d6e34:	3130      	addls	r1, #48	; 0x30
            }else{
                *ptr += 'a'-10;
   d6e36:	3157      	addhi	r1, #87	; 0x57
   d6e38:	b2c9      	uxtb	r1, r1
   d6e3a:	f800 1b01 	strb.w	r1, [r0], #1
            }
            ++ptr;
            a = result.quot;
   d6e3e:	4635      	mov	r5, r6
	while(a){
   d6e40:	e7f0      	b.n	d6e24 <ultoa+0xe>
   d6e42:	4602      	mov	r2, r0
	}
        while (ptr < buffer+pad)
   d6e44:	4423      	add	r3, r4
            *ptr++ = '0';
   d6e46:	2130      	movs	r1, #48	; 0x30
        while (ptr < buffer+pad)
   d6e48:	4293      	cmp	r3, r2
   d6e4a:	d902      	bls.n	d6e52 <ultoa+0x3c>
            *ptr++ = '0';
   d6e4c:	f802 1b01 	strb.w	r1, [r2], #1
        while (ptr < buffer+pad)
   d6e50:	e7fa      	b.n	d6e48 <ultoa+0x32>
   d6e52:	1a1a      	subs	r2, r3, r0
   d6e54:	4283      	cmp	r3, r0
   d6e56:	bf38      	it	cc
   d6e58:	2200      	movcc	r2, #0

	*ptr = '\0';
   d6e5a:	2300      	movs	r3, #0
   d6e5c:	5483      	strb	r3, [r0, r2]
	str_reverse(buffer);
   d6e5e:	4620      	mov	r0, r4
   d6e60:	f7ff ffc8 	bl	d6df4 <_Z11str_reversePc>
	return buffer;
   d6e64:	4620      	mov	r0, r4
}
   d6e66:	bd70      	pop	{r4, r5, r6, pc}
		return NULL;
   d6e68:	2000      	movs	r0, #0
   d6e6a:	e7fc      	b.n	d6e66 <ultoa+0x50>

000d6e6c <itoa>:

__attribute__((weak)) char* itoa(int a, char* buffer, int radix){
   d6e6c:	b538      	push	{r3, r4, r5, lr}
	if(a<0){
   d6e6e:	1e03      	subs	r3, r0, #0
__attribute__((weak)) char* itoa(int a, char* buffer, int radix){
   d6e70:	460c      	mov	r4, r1
   d6e72:	4615      	mov	r5, r2
	if(a<0){
   d6e74:	da0e      	bge.n	d6e94 <itoa+0x28>
		*buffer = '-';
		unsigned v = a==INT_MIN ? ((unsigned)INT_MAX+1) : -a;
   d6e76:	f1b3 4f00 	cmp.w	r3, #2147483648	; 0x80000000
		*buffer = '-';
   d6e7a:	f04f 022d 	mov.w	r2, #45	; 0x2d
		unsigned v = a==INT_MIN ? ((unsigned)INT_MAX+1) : -a;
   d6e7e:	bf14      	ite	ne
   d6e80:	4258      	negne	r0, r3
   d6e82:	4618      	moveq	r0, r3
		ultoa((unsigned)v, buffer + 1, radix);
   d6e84:	2301      	movs	r3, #1
		*buffer = '-';
   d6e86:	700a      	strb	r2, [r1, #0]
		ultoa((unsigned)v, buffer + 1, radix);
   d6e88:	462a      	mov	r2, r5
   d6e8a:	4419      	add	r1, r3
	}else{
		ultoa(a, buffer, radix);
   d6e8c:	f7ff ffc3 	bl	d6e16 <ultoa>
	}
	return buffer;
}
   d6e90:	4620      	mov	r0, r4
   d6e92:	bd38      	pop	{r3, r4, r5, pc}
		ultoa(a, buffer, radix);
   d6e94:	2301      	movs	r3, #1
   d6e96:	e7f9      	b.n	d6e8c <itoa+0x20>

000d6e98 <_ZZ21module_user_init_hookENUlP6_reentjmPvE_4_FUNES0_jmS1_>:

void module_user_init_hook()
{
#if HAL_PLATFORM_NEWLIB
    newlib_impure_ptr_callback([](struct _reent* r, size_t size, uint32_t version, void* ctx) -> void {
        _impure_ptr = r;
   d6e98:	4b01      	ldr	r3, [pc, #4]	; (d6ea0 <_ZZ21module_user_init_hookENUlP6_reentjmPvE_4_FUNES0_jmS1_+0x8>)
   d6e9a:	6018      	str	r0, [r3, #0]
    }, nullptr);
   d6e9c:	4770      	bx	lr
   d6e9e:	bf00      	nop
   d6ea0:	2003e3e0 	.word	0x2003e3e0

000d6ea4 <serialEventRun>:
{
   d6ea4:	b508      	push	{r3, lr}
    if (serialEvent && Serial.available()>0)
   d6ea6:	4b0b      	ldr	r3, [pc, #44]	; (d6ed4 <serialEventRun+0x30>)
   d6ea8:	b143      	cbz	r3, d6ebc <serialEventRun+0x18>
   d6eaa:	f7ff ff3b 	bl	d6d24 <_Z16_fetch_usbserialv>
   d6eae:	6803      	ldr	r3, [r0, #0]
   d6eb0:	691b      	ldr	r3, [r3, #16]
   d6eb2:	4798      	blx	r3
   d6eb4:	2800      	cmp	r0, #0
   d6eb6:	dd01      	ble.n	d6ebc <serialEventRun+0x18>
        serialEvent();
   d6eb8:	f3af 8000 	nop.w
    if (serialEvent1 && Serial1.available()>0)
   d6ebc:	4b06      	ldr	r3, [pc, #24]	; (d6ed8 <serialEventRun+0x34>)
   d6ebe:	b143      	cbz	r3, d6ed2 <serialEventRun+0x2e>
   d6ec0:	f7ff fea8 	bl	d6c14 <_Z22__fetch_global_Serial1v>
   d6ec4:	6803      	ldr	r3, [r0, #0]
   d6ec6:	691b      	ldr	r3, [r3, #16]
   d6ec8:	4798      	blx	r3
   d6eca:	2800      	cmp	r0, #0
   d6ecc:	dd01      	ble.n	d6ed2 <serialEventRun+0x2e>
        serialEvent1();
   d6ece:	f3af 8000 	nop.w
}
   d6ed2:	bd08      	pop	{r3, pc}
	...

000d6edc <_post_loop>:
{
   d6edc:	b508      	push	{r3, lr}
	serialEventRun();
   d6ede:	f7ff ffe1 	bl	d6ea4 <serialEventRun>
		return !timeout_fn;
	}

	static inline system_tick_t current_time()
	{
		return HAL_Timer_Get_Milli_Seconds();
   d6ee2:	f7fe fd3f 	bl	d5964 <HAL_Timer_Get_Milli_Seconds>
	/**
	 * Lifesign that the application is still working normally.
	 */
	static void checkin()
	{
		last_checkin = current_time();
   d6ee6:	4b01      	ldr	r3, [pc, #4]	; (d6eec <_post_loop+0x10>)
   d6ee8:	6018      	str	r0, [r3, #0]
}
   d6eea:	bd08      	pop	{r3, pc}
   d6eec:	2003e798 	.word	0x2003e798

000d6ef0 <_Z33system_initialize_user_backup_ramv>:
    memcpy(&link_global_retained_start, &link_global_retained_initial_values, len);
   d6ef0:	4802      	ldr	r0, [pc, #8]	; (d6efc <_Z33system_initialize_user_backup_ramv+0xc>)
   d6ef2:	4a03      	ldr	r2, [pc, #12]	; (d6f00 <_Z33system_initialize_user_backup_ramv+0x10>)
   d6ef4:	4903      	ldr	r1, [pc, #12]	; (d6f04 <_Z33system_initialize_user_backup_ramv+0x14>)
   d6ef6:	1a12      	subs	r2, r2, r0
   d6ef8:	f002 b902 	b.w	d9100 <memcpy>
   d6efc:	2003f400 	.word	0x2003f400
   d6f00:	2003f404 	.word	0x2003f404
   d6f04:	000d96f0 	.word	0x000d96f0

000d6f08 <_Z27ctrl_request_custom_handlerP12ctrl_request>:
void __attribute((weak)) ctrl_request_custom_handler(ctrl_request* req) {
   d6f08:	b507      	push	{r0, r1, r2, lr}
    system_ctrl_set_result(req, SYSTEM_ERROR_NOT_SUPPORTED, nullptr, nullptr, nullptr);
   d6f0a:	2300      	movs	r3, #0
   d6f0c:	9300      	str	r3, [sp, #0]
   d6f0e:	461a      	mov	r2, r3
   d6f10:	f06f 0177 	mvn.w	r1, #119	; 0x77
   d6f14:	f7fe fe92 	bl	d5c3c <system_ctrl_set_result>
}
   d6f18:	b003      	add	sp, #12
   d6f1a:	f85d fb04 	ldr.w	pc, [sp], #4
	...

000d6f20 <_ZL20ctrl_request_handlerP12ctrl_request>:
static void ctrl_request_handler(ctrl_request* req) {
   d6f20:	b507      	push	{r0, r1, r2, lr}
    switch (req->type) {
   d6f22:	8843      	ldrh	r3, [r0, #2]
   d6f24:	2b0a      	cmp	r3, #10
   d6f26:	d008      	beq.n	d6f3a <_ZL20ctrl_request_handlerP12ctrl_request+0x1a>
   d6f28:	2b50      	cmp	r3, #80	; 0x50
   d6f2a:	d10b      	bne.n	d6f44 <_ZL20ctrl_request_handlerP12ctrl_request+0x24>
        if (log_process_ctrl_request_callback) {
   d6f2c:	4b09      	ldr	r3, [pc, #36]	; (d6f54 <_ZL20ctrl_request_handlerP12ctrl_request+0x34>)
   d6f2e:	681b      	ldr	r3, [r3, #0]
   d6f30:	b14b      	cbz	r3, d6f46 <_ZL20ctrl_request_handlerP12ctrl_request+0x26>
}
   d6f32:	b003      	add	sp, #12
   d6f34:	f85d eb04 	ldr.w	lr, [sp], #4
            log_process_ctrl_request_callback(req);
   d6f38:	4718      	bx	r3
        ctrl_request_custom_handler(req);
   d6f3a:	f7ff ffe5 	bl	d6f08 <_Z27ctrl_request_custom_handlerP12ctrl_request>
}
   d6f3e:	b003      	add	sp, #12
   d6f40:	f85d fb04 	ldr.w	pc, [sp], #4
        system_ctrl_set_result(req, SYSTEM_ERROR_NOT_SUPPORTED, nullptr, nullptr, nullptr);
   d6f44:	2300      	movs	r3, #0
   d6f46:	9300      	str	r3, [sp, #0]
   d6f48:	461a      	mov	r2, r3
   d6f4a:	f06f 0177 	mvn.w	r1, #119	; 0x77
   d6f4e:	f7fe fe75 	bl	d5c3c <system_ctrl_set_result>
}
   d6f52:	e7f4      	b.n	d6f3e <_ZL20ctrl_request_handlerP12ctrl_request+0x1e>
   d6f54:	2003e788 	.word	0x2003e788

000d6f58 <module_user_init_hook>:
{
   d6f58:	b538      	push	{r3, r4, r5, lr}
#endif // HAL_PLATFORM_NEWLIB

#if HAL_PLATFORM_BACKUP_RAM
    backup_ram_was_valid_ =  __backup_sram_signature==signature;
   d6f5a:	4c12      	ldr	r4, [pc, #72]	; (d6fa4 <module_user_init_hook+0x4c>)
    newlib_impure_ptr_callback([](struct _reent* r, size_t size, uint32_t version, void* ctx) -> void {
   d6f5c:	4812      	ldr	r0, [pc, #72]	; (d6fa8 <module_user_init_hook+0x50>)
    backup_ram_was_valid_ =  __backup_sram_signature==signature;
   d6f5e:	4d13      	ldr	r5, [pc, #76]	; (d6fac <module_user_init_hook+0x54>)
    newlib_impure_ptr_callback([](struct _reent* r, size_t size, uint32_t version, void* ctx) -> void {
   d6f60:	2100      	movs	r1, #0
   d6f62:	f7fe ff15 	bl	d5d90 <newlib_impure_ptr_callback>
    backup_ram_was_valid_ =  __backup_sram_signature==signature;
   d6f66:	6823      	ldr	r3, [r4, #0]
   d6f68:	42ab      	cmp	r3, r5
   d6f6a:	4b11      	ldr	r3, [pc, #68]	; (d6fb0 <module_user_init_hook+0x58>)
   d6f6c:	bf0c      	ite	eq
   d6f6e:	2201      	moveq	r2, #1
   d6f70:	2200      	movne	r2, #0
   d6f72:	701a      	strb	r2, [r3, #0]
    if (!backup_ram_was_valid_) {
   d6f74:	d002      	beq.n	d6f7c <module_user_init_hook+0x24>
        system_initialize_user_backup_ram();
   d6f76:	f7ff ffbb 	bl	d6ef0 <_Z33system_initialize_user_backup_ramv>
        __backup_sram_signature = signature;
   d6f7a:	6025      	str	r5, [r4, #0]
    }
#endif

#if HAL_PLATFORM_RNG
    // Initialize the default stdlib PRNG using hardware RNG as a seed
    const uint32_t seed = HAL_RNG_GetRandomNumber();
   d6f7c:	f7fe fcda 	bl	d5934 <HAL_RNG_GetRandomNumber>
   d6f80:	4604      	mov	r4, r0
    srand(seed);
   d6f82:	f002 f8d3 	bl	d912c <srand>

    // If the user defines random_seed_from_cloud, call it with a seed value
    // generated by a hardware RNG as well.
    if (random_seed_from_cloud) {
   d6f86:	4b0b      	ldr	r3, [pc, #44]	; (d6fb4 <module_user_init_hook+0x5c>)
   d6f88:	b113      	cbz	r3, d6f90 <module_user_init_hook+0x38>
        random_seed_from_cloud(seed);
   d6f8a:	4620      	mov	r0, r4
   d6f8c:	f3af 8000 	nop.w
    }
#endif
    // Register the random_seed_from_cloud handler
    spark_set_random_seed_from_cloud_handler(&random_seed_from_cloud, nullptr);
   d6f90:	2100      	movs	r1, #0
   d6f92:	4808      	ldr	r0, [pc, #32]	; (d6fb4 <module_user_init_hook+0x5c>)
   d6f94:	f7fe fe6c 	bl	d5c70 <spark_set_random_seed_from_cloud_handler>

    // Register application handler for the control requests
    system_ctrl_set_app_request_handler(ctrl_request_handler, nullptr);
}
   d6f98:	e8bd 4038 	ldmia.w	sp!, {r3, r4, r5, lr}
    system_ctrl_set_app_request_handler(ctrl_request_handler, nullptr);
   d6f9c:	4806      	ldr	r0, [pc, #24]	; (d6fb8 <module_user_init_hook+0x60>)
   d6f9e:	2100      	movs	r1, #0
   d6fa0:	f7fe be42 	b.w	d5c28 <system_ctrl_set_app_request_handler>
   d6fa4:	2003f400 	.word	0x2003f400
   d6fa8:	000d6e99 	.word	0x000d6e99
   d6fac:	9a271c1e 	.word	0x9a271c1e
   d6fb0:	2003e784 	.word	0x2003e784
   d6fb4:	00000000 	.word	0x00000000
   d6fb8:	000d6f21 	.word	0x000d6f21

000d6fbc <pinAvailable>:
/*
 * @brief Perform safety check on desired pin to see if it's already
 * being used.  Return 0 if used, otherwise return 1 if available.
 */
bool pinAvailable(uint16_t pin) {
  if (pin >= TOTAL_PINS) {
   d6fbc:	2823      	cmp	r0, #35	; 0x23
bool pinAvailable(uint16_t pin) {
   d6fbe:	b513      	push	{r0, r1, r4, lr}
  if (pin >= TOTAL_PINS) {
   d6fc0:	d902      	bls.n	d6fc8 <pinAvailable+0xc>
    return false;
   d6fc2:	2000      	movs	r0, #0
    return false; // 'pin' is used
  }
#endif

  return true; // 'pin' is available
}
   d6fc4:	b002      	add	sp, #8
   d6fc6:	bd10      	pop	{r4, pc}
  if((pin == SCK || pin == MOSI || pin == MISO) && hal_spi_is_enabled(SPI.interface()) == true)
   d6fc8:	f1a0 030b 	sub.w	r3, r0, #11
   d6fcc:	2b02      	cmp	r3, #2
   d6fce:	d81a      	bhi.n	d7006 <pinAvailable+0x4a>

template <hal_spi_interface_t Interface>
class SpiProxy {
public:
    static SPIClass& instance() {
        static SPIClass instance(Interface);
   d6fd0:	4c17      	ldr	r4, [pc, #92]	; (d7030 <pinAvailable+0x74>)
   d6fd2:	7821      	ldrb	r1, [r4, #0]
   d6fd4:	f3bf 8f5b 	dmb	ish
   d6fd8:	f011 0101 	ands.w	r1, r1, #1
   d6fdc:	d10b      	bne.n	d6ff6 <pinAvailable+0x3a>
   d6fde:	4620      	mov	r0, r4
   d6fe0:	9101      	str	r1, [sp, #4]
   d6fe2:	f7fd f85e 	bl	d40a2 <__cxa_guard_acquire>
   d6fe6:	9901      	ldr	r1, [sp, #4]
   d6fe8:	b128      	cbz	r0, d6ff6 <pinAvailable+0x3a>
   d6fea:	4812      	ldr	r0, [pc, #72]	; (d7034 <pinAvailable+0x78>)
   d6fec:	f7ff fc42 	bl	d6874 <_ZN8SPIClassC1E19hal_spi_interface_t>
   d6ff0:	4620      	mov	r0, r4
   d6ff2:	f7fd f85b 	bl	d40ac <__cxa_guard_release>
   d6ff6:	4b0f      	ldr	r3, [pc, #60]	; (d7034 <pinAvailable+0x78>)
   d6ff8:	7818      	ldrb	r0, [r3, #0]
   d6ffa:	f7fe fd6d 	bl	d5ad8 <hal_spi_is_enabled>
   d6ffe:	2800      	cmp	r0, #0
   d7000:	d1df      	bne.n	d6fc2 <pinAvailable+0x6>
  return true; // 'pin' is available
   d7002:	2001      	movs	r0, #1
   d7004:	e7de      	b.n	d6fc4 <pinAvailable+0x8>
  if((pin == SCL || pin == SDA) && hal_i2c_is_enabled(Wire.interface(), nullptr) == true)
   d7006:	2801      	cmp	r0, #1
   d7008:	d809      	bhi.n	d701e <pinAvailable+0x62>
   d700a:	f000 f86f 	bl	d70ec <_Z19__fetch_global_Wirev>
   d700e:	2100      	movs	r1, #0
   d7010:	7c00      	ldrb	r0, [r0, #16]
   d7012:	f7fe fd29 	bl	d5a68 <hal_i2c_is_enabled>
  if((pin == RX || pin == TX) && hal_usart_is_enabled(Serial1.interface()) == true)
   d7016:	f080 0001 	eor.w	r0, r0, #1
   d701a:	b2c0      	uxtb	r0, r0
   d701c:	e7d2      	b.n	d6fc4 <pinAvailable+0x8>
   d701e:	3809      	subs	r0, #9
   d7020:	2801      	cmp	r0, #1
   d7022:	d8ee      	bhi.n	d7002 <pinAvailable+0x46>
   d7024:	f7ff fdf6 	bl	d6c14 <_Z22__fetch_global_Serial1v>
   d7028:	7c00      	ldrb	r0, [r0, #16]
   d702a:	f7fe fd8d 	bl	d5b48 <hal_usart_is_enabled>
   d702e:	e7f2      	b.n	d7016 <pinAvailable+0x5a>
   d7030:	2003e78c 	.word	0x2003e78c
   d7034:	2003e790 	.word	0x2003e790

000d7038 <pinMode>:
  if(pin >= TOTAL_PINS || setMode == PIN_MODE_NONE )
   d7038:	2823      	cmp	r0, #35	; 0x23
{
   d703a:	b538      	push	{r3, r4, r5, lr}
   d703c:	4604      	mov	r4, r0
   d703e:	460d      	mov	r5, r1
  if(pin >= TOTAL_PINS || setMode == PIN_MODE_NONE )
   d7040:	d80a      	bhi.n	d7058 <pinMode+0x20>
   d7042:	29ff      	cmp	r1, #255	; 0xff
   d7044:	d008      	beq.n	d7058 <pinMode+0x20>
  if( !pinAvailable(pin) ) {
   d7046:	f7ff ffb9 	bl	d6fbc <pinAvailable>
   d704a:	b128      	cbz	r0, d7058 <pinMode+0x20>
  HAL_Pin_Mode(pin, setMode);
   d704c:	4629      	mov	r1, r5
   d704e:	4620      	mov	r0, r4
}
   d7050:	e8bd 4038 	ldmia.w	sp!, {r3, r4, r5, lr}
  HAL_Pin_Mode(pin, setMode);
   d7054:	f7fe bc96 	b.w	d5984 <HAL_Pin_Mode>
}
   d7058:	bd38      	pop	{r3, r4, r5, pc}

000d705a <digitalWrite>:

/*
 * @brief Sets a GPIO pin to HIGH or LOW.
 */
void digitalWrite(pin_t pin, uint8_t value)
{
   d705a:	b538      	push	{r3, r4, r5, lr}
   d705c:	4604      	mov	r4, r0
   d705e:	460d      	mov	r5, r1
    PinMode mode = HAL_Get_Pin_Mode(pin);
   d7060:	f7fe fc98 	bl	d5994 <HAL_Get_Pin_Mode>
    if (mode==PIN_MODE_NONE || is_input_mode(mode))
   d7064:	28ff      	cmp	r0, #255	; 0xff
   d7066:	d010      	beq.n	d708a <digitalWrite+0x30>
            mode == INPUT_PULLDOWN ||
   d7068:	2806      	cmp	r0, #6
   d706a:	d804      	bhi.n	d7076 <digitalWrite+0x1c>
   d706c:	234d      	movs	r3, #77	; 0x4d
   d706e:	fa23 f000 	lsr.w	r0, r3, r0
   d7072:	07c3      	lsls	r3, r0, #31
   d7074:	d409      	bmi.n	d708a <digitalWrite+0x30>
        return;
  // Safety check
  if( !pinAvailable(pin) ) {
   d7076:	4620      	mov	r0, r4
   d7078:	f7ff ffa0 	bl	d6fbc <pinAvailable>
   d707c:	b128      	cbz	r0, d708a <digitalWrite+0x30>
    return;
  }

  HAL_GPIO_Write(pin, value);
   d707e:	4629      	mov	r1, r5
   d7080:	4620      	mov	r0, r4
}
   d7082:	e8bd 4038 	ldmia.w	sp!, {r3, r4, r5, lr}
  HAL_GPIO_Write(pin, value);
   d7086:	f7fe bc8d 	b.w	d59a4 <HAL_GPIO_Write>
}
   d708a:	bd38      	pop	{r3, r4, r5, pc}

000d708c <analogRead>:
 * Note: ADC is 12-bit. Currently it returns 0-4095
 */
int32_t analogRead(pin_t pin)
{
  // Allow people to use 0-7 to define analog pins by checking to see if the values are too low.
  if(pin < FIRST_ANALOG_PIN)
   d708c:	280d      	cmp	r0, #13
{
   d708e:	b510      	push	{r4, lr}
   d7090:	4604      	mov	r4, r0
  {
    pin = pin + FIRST_ANALOG_PIN;
   d7092:	bf9c      	itt	ls
   d7094:	340e      	addls	r4, #14
   d7096:	b2a4      	uxthls	r4, r4
  }

  // Safety check
  if( !pinAvailable(pin) ) {
   d7098:	4620      	mov	r0, r4
   d709a:	f7ff ff8f 	bl	d6fbc <pinAvailable>
   d709e:	b150      	cbz	r0, d70b6 <analogRead+0x2a>
    return LOW;
  }

  if(HAL_Validate_Pin_Function(pin, PF_ADC)!=PF_ADC)
   d70a0:	2103      	movs	r1, #3
   d70a2:	4620      	mov	r0, r4
   d70a4:	f7fe fc66 	bl	d5974 <HAL_Validate_Pin_Function>
   d70a8:	2803      	cmp	r0, #3
   d70aa:	d104      	bne.n	d70b6 <analogRead+0x2a>
  {
    return LOW;
  }

  return hal_adc_read(pin);
   d70ac:	4620      	mov	r0, r4
}
   d70ae:	e8bd 4010 	ldmia.w	sp!, {r4, lr}
  return hal_adc_read(pin);
   d70b2:	f7fe bc7f 	b.w	d59b4 <hal_adc_read>
}
   d70b6:	2000      	movs	r0, #0
   d70b8:	bd10      	pop	{r4, pc}
	...

000d70bc <_Z17acquireWireBufferv>:
}

} // anonymous

hal_i2c_config_t __attribute__((weak)) acquireWireBuffer()
{
   d70bc:	b538      	push	{r3, r4, r5, lr}
	hal_i2c_config_t config = {
   d70be:	2300      	movs	r3, #0
   d70c0:	2520      	movs	r5, #32
   d70c2:	8043      	strh	r3, [r0, #2]
   d70c4:	2314      	movs	r3, #20
{
   d70c6:	4604      	mov	r4, r0
	hal_i2c_config_t config = {
   d70c8:	8003      	strh	r3, [r0, #0]
   d70ca:	6085      	str	r5, [r0, #8]
   d70cc:	6105      	str	r5, [r0, #16]
		.rx_buffer = new (std::nothrow) uint8_t[I2C_BUFFER_LENGTH],
   d70ce:	4906      	ldr	r1, [pc, #24]	; (d70e8 <_Z17acquireWireBufferv+0x2c>)
   d70d0:	4628      	mov	r0, r5
   d70d2:	f000 f9a8 	bl	d7426 <_ZnajRKSt9nothrow_t>
		.tx_buffer = new (std::nothrow) uint8_t[I2C_BUFFER_LENGTH],
   d70d6:	4904      	ldr	r1, [pc, #16]	; (d70e8 <_Z17acquireWireBufferv+0x2c>)
	};
   d70d8:	6060      	str	r0, [r4, #4]
		.tx_buffer = new (std::nothrow) uint8_t[I2C_BUFFER_LENGTH],
   d70da:	4628      	mov	r0, r5
   d70dc:	f000 f9a3 	bl	d7426 <_ZnajRKSt9nothrow_t>
	};
   d70e0:	60e0      	str	r0, [r4, #12]
	return defaultWireConfig();
}
   d70e2:	4620      	mov	r0, r4
   d70e4:	bd38      	pop	{r3, r4, r5, pc}
   d70e6:	bf00      	nop
   d70e8:	000d96a8 	.word	0x000d96a8

000d70ec <_Z19__fetch_global_Wirev>:
	return defaultWireConfig();
}
#endif

TwoWire& __fetch_global_Wire()
{
   d70ec:	b530      	push	{r4, r5, lr}
	static TwoWire wire(HAL_I2C_INTERFACE1, acquireWireBuffer());
   d70ee:	4d0f      	ldr	r5, [pc, #60]	; (d712c <_Z19__fetch_global_Wirev+0x40>)
   d70f0:	7829      	ldrb	r1, [r5, #0]
   d70f2:	f3bf 8f5b 	dmb	ish
   d70f6:	f011 0401 	ands.w	r4, r1, #1
{
   d70fa:	b087      	sub	sp, #28
	static TwoWire wire(HAL_I2C_INTERFACE1, acquireWireBuffer());
   d70fc:	d113      	bne.n	d7126 <_Z19__fetch_global_Wirev+0x3a>
   d70fe:	4628      	mov	r0, r5
   d7100:	f7fc ffcf 	bl	d40a2 <__cxa_guard_acquire>
   d7104:	b178      	cbz	r0, d7126 <_Z19__fetch_global_Wirev+0x3a>
   d7106:	a801      	add	r0, sp, #4
   d7108:	f7ff ffd8 	bl	d70bc <_Z17acquireWireBufferv>
   d710c:	aa01      	add	r2, sp, #4
   d710e:	4621      	mov	r1, r4
   d7110:	4807      	ldr	r0, [pc, #28]	; (d7130 <_Z19__fetch_global_Wirev+0x44>)
   d7112:	f7ff f9a1 	bl	d6458 <_ZN7TwoWireC1E19hal_i2c_interface_tRK16hal_i2c_config_t>
   d7116:	4628      	mov	r0, r5
   d7118:	f7fc ffc8 	bl	d40ac <__cxa_guard_release>
   d711c:	4a05      	ldr	r2, [pc, #20]	; (d7134 <_Z19__fetch_global_Wirev+0x48>)
   d711e:	4906      	ldr	r1, [pc, #24]	; (d7138 <_Z19__fetch_global_Wirev+0x4c>)
   d7120:	4803      	ldr	r0, [pc, #12]	; (d7130 <_Z19__fetch_global_Wirev+0x44>)
   d7122:	f000 f979 	bl	d7418 <__aeabi_atexit>
	return wire;
}
   d7126:	4802      	ldr	r0, [pc, #8]	; (d7130 <_Z19__fetch_global_Wirev+0x44>)
   d7128:	b007      	add	sp, #28
   d712a:	bd30      	pop	{r4, r5, pc}
   d712c:	2003e79c 	.word	0x2003e79c
   d7130:	2003e7a0 	.word	0x2003e7a0
   d7134:	2003e444 	.word	0x2003e444
   d7138:	000d6401 	.word	0x000d6401

000d713c <irq_handler>:
}

static void irq_handler(NRF_TIMER_Type        * p_reg,
                        timer_control_block_t * p_cb,
                        uint8_t                 channel_count)
{
   d713c:	e92d 47f3 	stmdb	sp!, {r0, r1, r4, r5, r6, r7, r8, r9, sl, lr}
   d7140:	2400      	movs	r4, #0
   d7142:	4606      	mov	r6, r0
   d7144:	460f      	mov	r7, r1
   d7146:	4690      	mov	r8, r2
   d7148:	f500 75a0 	add.w	r5, r0, #320	; 0x140
        ((uint32_t)NRF_TIMER_EVENT_COMPARE0 + (channel * sizeof(uint32_t)));
}

__STATIC_INLINE nrf_timer_int_mask_t nrf_timer_compare_int_get(uint32_t channel)
{
    return (nrf_timer_int_mask_t)
   d714c:	f44f 3980 	mov.w	r9, #65536	; 0x10000
    *((volatile uint32_t *)((uint8_t *)p_reg + (uint32_t)event)) = 0x0UL;
   d7150:	46a2      	mov	sl, r4
    return (nrf_timer_event_t)
   d7152:	00a0      	lsls	r0, r4, #2
   d7154:	f500 73a0 	add.w	r3, r0, #320	; 0x140
   d7158:	b298      	uxth	r0, r3
    return (bool)*(volatile uint32_t *)((uint8_t *)p_reg + (uint32_t)event);
   d715a:	682b      	ldr	r3, [r5, #0]
    for (i = 0; i < channel_count; ++i)
    {
        nrf_timer_event_t event = nrf_timer_compare_event_get(i);
        nrf_timer_int_mask_t int_mask = nrf_timer_compare_int_get(i);

        if (nrf_timer_event_check(p_reg, event) &&
   d715c:	b16b      	cbz	r3, d717a <irq_handler+0x3e>
    return (bool)(p_reg->INTENSET & timer_int);
   d715e:	f8d6 3304 	ldr.w	r3, [r6, #772]	; 0x304
    return (nrf_timer_int_mask_t)
   d7162:	fa09 f204 	lsl.w	r2, r9, r4
   d7166:	421a      	tst	r2, r3
   d7168:	d007      	beq.n	d717a <irq_handler+0x3e>
    *((volatile uint32_t *)((uint8_t *)p_reg + (uint32_t)event)) = 0x0UL;
   d716a:	f8c5 a000 	str.w	sl, [r5]
    volatile uint32_t dummy = *((volatile uint32_t *)((uint8_t *)p_reg + (uint32_t)event));
   d716e:	682b      	ldr	r3, [r5, #0]
   d7170:	9301      	str	r3, [sp, #4]
    (void)dummy;
   d7172:	9b01      	ldr	r3, [sp, #4]
            nrf_timer_int_enable_check(p_reg, int_mask))
        {
            nrf_timer_event_clear(p_reg, event);
            NRFX_LOG_DEBUG("Compare event, channel: %d.", i);
            p_cb->handler(event, p_cb->context);
   d7174:	e9d7 3100 	ldrd	r3, r1, [r7]
   d7178:	4798      	blx	r3
    for (i = 0; i < channel_count; ++i)
   d717a:	3401      	adds	r4, #1
   d717c:	45a0      	cmp	r8, r4
   d717e:	f105 0504 	add.w	r5, r5, #4
   d7182:	d1e6      	bne.n	d7152 <irq_handler+0x16>
        }
    }
}
   d7184:	b002      	add	sp, #8
   d7186:	e8bd 87f0 	ldmia.w	sp!, {r4, r5, r6, r7, r8, r9, sl, pc}
	...

000d718c <nrfx_timer_init>:
{
   d718c:	e92d 47f3 	stmdb	sp!, {r0, r1, r4, r5, r6, r7, r8, r9, sl, lr}
    NRFX_ASSERT(p_instance->p_reg != NRF_TIMER0);
   d7190:	4b57      	ldr	r3, [pc, #348]	; (d72f0 <nrfx_timer_init+0x164>)
    timer_control_block_t * p_cb = &m_cb[p_instance->instance_id];
   d7192:	7907      	ldrb	r7, [r0, #4]
{
   d7194:	4616      	mov	r6, r2
    NRFX_ASSERT(p_instance->p_reg != NRF_TIMER0);
   d7196:	6802      	ldr	r2, [r0, #0]
   d7198:	429a      	cmp	r2, r3
{
   d719a:	4604      	mov	r4, r0
   d719c:	460d      	mov	r5, r1
    NRFX_ASSERT(p_instance->p_reg != NRF_TIMER0);
   d719e:	d104      	bne.n	d71aa <nrfx_timer_init+0x1e>
   d71a0:	4a54      	ldr	r2, [pc, #336]	; (d72f4 <nrfx_timer_init+0x168>)
   d71a2:	2100      	movs	r1, #0
   d71a4:	200a      	movs	r0, #10
   d71a6:	f7fe fd17 	bl	d5bd8 <panic_>
    NRFX_ASSERT(p_config);
   d71aa:	b925      	cbnz	r5, d71b6 <nrfx_timer_init+0x2a>
   d71ac:	4a51      	ldr	r2, [pc, #324]	; (d72f4 <nrfx_timer_init+0x168>)
   d71ae:	4629      	mov	r1, r5
   d71b0:	200a      	movs	r0, #10
   d71b2:	f7fe fd11 	bl	d5bd8 <panic_>
    NRFX_ASSERT(timer_event_handler);
   d71b6:	b926      	cbnz	r6, d71c2 <nrfx_timer_init+0x36>
   d71b8:	4a4e      	ldr	r2, [pc, #312]	; (d72f4 <nrfx_timer_init+0x168>)
   d71ba:	4631      	mov	r1, r6
   d71bc:	200a      	movs	r0, #10
   d71be:	f7fe fd0b 	bl	d5bd8 <panic_>
    if (p_cb->state != NRFX_DRV_STATE_UNINITIALIZED)
   d71c2:	4a4d      	ldr	r2, [pc, #308]	; (d72f8 <nrfx_timer_init+0x16c>)
   d71c4:	230c      	movs	r3, #12
   d71c6:	fb03 2307 	mla	r3, r3, r7, r2
   d71ca:	4690      	mov	r8, r2
   d71cc:	7a1b      	ldrb	r3, [r3, #8]
   d71ce:	2b00      	cmp	r3, #0
   d71d0:	f040 808c 	bne.w	d72ec <nrfx_timer_init+0x160>
    NRFX_ASSERT(NRF_TIMER_IS_BIT_WIDTH_VALID(p_instance->p_reg, p_config->bit_width));
   d71d4:	6823      	ldr	r3, [r4, #0]
   d71d6:	4a46      	ldr	r2, [pc, #280]	; (d72f0 <nrfx_timer_init+0x164>)
   d71d8:	4293      	cmp	r3, r2
   d71da:	d00f      	beq.n	d71fc <nrfx_timer_init+0x70>
   d71dc:	f502 5280 	add.w	r2, r2, #4096	; 0x1000
   d71e0:	4293      	cmp	r3, r2
   d71e2:	d00b      	beq.n	d71fc <nrfx_timer_init+0x70>
   d71e4:	f502 5280 	add.w	r2, r2, #4096	; 0x1000
   d71e8:	4293      	cmp	r3, r2
   d71ea:	d007      	beq.n	d71fc <nrfx_timer_init+0x70>
   d71ec:	f502 3280 	add.w	r2, r2, #65536	; 0x10000
   d71f0:	4293      	cmp	r3, r2
   d71f2:	d003      	beq.n	d71fc <nrfx_timer_init+0x70>
   d71f4:	f502 5280 	add.w	r2, r2, #4096	; 0x1000
   d71f8:	4293      	cmp	r3, r2
   d71fa:	d102      	bne.n	d7202 <nrfx_timer_init+0x76>
   d71fc:	78ab      	ldrb	r3, [r5, #2]
   d71fe:	2b03      	cmp	r3, #3
   d7200:	d904      	bls.n	d720c <nrfx_timer_init+0x80>
   d7202:	4a3c      	ldr	r2, [pc, #240]	; (d72f4 <nrfx_timer_init+0x168>)
   d7204:	2100      	movs	r1, #0
   d7206:	200a      	movs	r0, #10
   d7208:	f7fe fce6 	bl	d5bd8 <panic_>
    p_cb->handler = timer_event_handler;
   d720c:	230c      	movs	r3, #12
   d720e:	437b      	muls	r3, r7
   d7210:	eb08 0203 	add.w	r2, r8, r3
   d7214:	f848 6003 	str.w	r6, [r8, r3]
    for (i = 0; i < p_instance->cc_channel_count; ++i)
   d7218:	2100      	movs	r1, #0
    p_cb->context = p_config->p_context;
   d721a:	686b      	ldr	r3, [r5, #4]
   d721c:	6053      	str	r3, [r2, #4]
    *((volatile uint32_t *)((uint8_t *)p_reg + (uint32_t)event)) = 0x0UL;
   d721e:	460e      	mov	r6, r1
    for (i = 0; i < p_instance->cc_channel_count; ++i)
   d7220:	7960      	ldrb	r0, [r4, #5]
   d7222:	6822      	ldr	r2, [r4, #0]
   d7224:	b2cb      	uxtb	r3, r1
   d7226:	4298      	cmp	r0, r3
   d7228:	d857      	bhi.n	d72da <nrfx_timer_init+0x14e>
    NRFX_IRQ_PRIORITY_SET(nrfx_get_irq_number(p_instance->p_reg),
   d722a:	78ee      	ldrb	r6, [r5, #3]
#define NRFX_IRQ_PRIORITY_SET(irq_number, priority) \
    _NRFX_IRQ_PRIORITY_SET(irq_number, priority)
static inline void _NRFX_IRQ_PRIORITY_SET(IRQn_Type irq_number,
                                          uint8_t   priority)
{
    NRFX_ASSERT(INTERRUPT_PRIORITY_IS_VALID(priority));
   d722c:	1eb3      	subs	r3, r6, #2
   d722e:	2b01      	cmp	r3, #1
    return ((((uint32_t)p_object) & 0x3u) == 0u);
}

__STATIC_INLINE IRQn_Type nrfx_get_irq_number(void const * p_reg)
{
    return (IRQn_Type)NRFX_IRQ_NUMBER_GET(p_reg);
   d7230:	ea4f 3912 	mov.w	r9, r2, lsr #12
   d7234:	f342 3a07 	sbfx	sl, r2, #12, #8
   d7238:	d907      	bls.n	d724a <nrfx_timer_init+0xbe>
   d723a:	1f73      	subs	r3, r6, #5
   d723c:	2b02      	cmp	r3, #2
   d723e:	d904      	bls.n	d724a <nrfx_timer_init+0xbe>
   d7240:	4a2c      	ldr	r2, [pc, #176]	; (d72f4 <nrfx_timer_init+0x168>)
   d7242:	2100      	movs	r1, #0
   d7244:	200a      	movs	r0, #10
   d7246:	f7fe fcc7 	bl	d5bd8 <panic_>
  \param [in]      IRQn  Interrupt number.
  \param [in]  priority  Priority to set.
 */
__STATIC_INLINE void NVIC_SetPriority(IRQn_Type IRQn, uint32_t priority)
{
  if ((int32_t)(IRQn) < 0)
   d724a:	f1ba 0f00 	cmp.w	sl, #0
  {
    SCB->SHP[(((uint32_t)(int32_t)IRQn) & 0xFUL)-4UL] = (uint8_t)((priority << (8U - __NVIC_PRIO_BITS)) & (uint32_t)0xFFUL);
  }
  else
  {
    NVIC->IP[((uint32_t)(int32_t)IRQn)]               = (uint8_t)((priority << (8U - __NVIC_PRIO_BITS)) & (uint32_t)0xFFUL);
   d724e:	bfac      	ite	ge
   d7250:	f10a 4360 	addge.w	r3, sl, #3758096384	; 0xe0000000
    SCB->SHP[(((uint32_t)(int32_t)IRQn) & 0xFUL)-4UL] = (uint8_t)((priority << (8U - __NVIC_PRIO_BITS)) & (uint32_t)0xFFUL);
   d7254:	4b29      	ldrlt	r3, [pc, #164]	; (d72fc <nrfx_timer_init+0x170>)
  NVIC->ISER[(((uint32_t)(int32_t)IRQn) >> 5UL)] = (uint32_t)(1UL << (((uint32_t)(int32_t)IRQn) & 0x1FUL));
   d7256:	482a      	ldr	r0, [pc, #168]	; (d7300 <nrfx_timer_init+0x174>)
   d7258:	ea4f 1646 	mov.w	r6, r6, lsl #5
    SCB->SHP[(((uint32_t)(int32_t)IRQn) & 0xFUL)-4UL] = (uint8_t)((priority << (8U - __NVIC_PRIO_BITS)) & (uint32_t)0xFFUL);
   d725c:	bfb8      	it	lt
   d725e:	f009 090f 	andlt.w	r9, r9, #15
   d7262:	b2f6      	uxtb	r6, r6
    NVIC->IP[((uint32_t)(int32_t)IRQn)]               = (uint8_t)((priority << (8U - __NVIC_PRIO_BITS)) & (uint32_t)0xFFUL);
   d7264:	bfaa      	itet	ge
   d7266:	f503 4361 	addge.w	r3, r3, #57600	; 0xe100
    SCB->SHP[(((uint32_t)(int32_t)IRQn) & 0xFUL)-4UL] = (uint8_t)((priority << (8U - __NVIC_PRIO_BITS)) & (uint32_t)0xFFUL);
   d726a:	f803 6009 	strblt.w	r6, [r3, r9]
    NVIC->IP[((uint32_t)(int32_t)IRQn)]               = (uint8_t)((priority << (8U - __NVIC_PRIO_BITS)) & (uint32_t)0xFFUL);
   d726e:	f883 6300 	strbge.w	r6, [r3, #768]	; 0x300
   d7272:	6823      	ldr	r3, [r4, #0]
  NVIC->ISER[(((uint32_t)(int32_t)IRQn) >> 5UL)] = (uint32_t)(1UL << (((uint32_t)(int32_t)IRQn) & 0x1FUL));
   d7274:	f343 3107 	sbfx	r1, r3, #12, #8
   d7278:	0949      	lsrs	r1, r1, #5
   d727a:	2201      	movs	r2, #1
   d727c:	f3c3 3304 	ubfx	r3, r3, #12, #5
   d7280:	fa02 f303 	lsl.w	r3, r2, r3
   d7284:	f840 3021 	str.w	r3, [r0, r1, lsl #2]
    nrf_timer_mode_set(p_instance->p_reg, p_config->mode);
   d7288:	6820      	ldr	r0, [r4, #0]
                    ((mode << TIMER_MODE_MODE_Pos) & TIMER_MODE_MODE_Msk);
   d728a:	786b      	ldrb	r3, [r5, #1]
    p_reg->MODE = (p_reg->MODE & ~TIMER_MODE_MODE_Msk) |
   d728c:	f8d0 1504 	ldr.w	r1, [r0, #1284]	; 0x504
                    ((mode << TIMER_MODE_MODE_Pos) & TIMER_MODE_MODE_Msk);
   d7290:	f003 0303 	and.w	r3, r3, #3
    p_reg->MODE = (p_reg->MODE & ~TIMER_MODE_MODE_Msk) |
   d7294:	f021 0103 	bic.w	r1, r1, #3
   d7298:	430b      	orrs	r3, r1
   d729a:	f8c0 3504 	str.w	r3, [r0, #1284]	; 0x504
    nrf_timer_bit_width_set(p_instance->p_reg, p_config->bit_width);
   d729e:	6820      	ldr	r0, [r4, #0]
                       ((bit_width << TIMER_BITMODE_BITMODE_Pos) &
   d72a0:	78ab      	ldrb	r3, [r5, #2]
    p_reg->BITMODE = (p_reg->BITMODE & ~TIMER_BITMODE_BITMODE_Msk) |
   d72a2:	f8d0 1508 	ldr.w	r1, [r0, #1288]	; 0x508
                       ((bit_width << TIMER_BITMODE_BITMODE_Pos) &
   d72a6:	f003 0303 	and.w	r3, r3, #3
    p_reg->BITMODE = (p_reg->BITMODE & ~TIMER_BITMODE_BITMODE_Msk) |
   d72aa:	f021 0103 	bic.w	r1, r1, #3
   d72ae:	430b      	orrs	r3, r1
   d72b0:	f8c0 3508 	str.w	r3, [r0, #1288]	; 0x508
    nrf_timer_frequency_set(p_instance->p_reg, p_config->frequency);
   d72b4:	6820      	ldr	r0, [r4, #0]
                         ((frequency << TIMER_PRESCALER_PRESCALER_Pos) &
   d72b6:	782b      	ldrb	r3, [r5, #0]
    p_reg->PRESCALER = (p_reg->PRESCALER & ~TIMER_PRESCALER_PRESCALER_Msk) |
   d72b8:	f8d0 1510 	ldr.w	r1, [r0, #1296]	; 0x510
                         ((frequency << TIMER_PRESCALER_PRESCALER_Pos) &
   d72bc:	f003 030f 	and.w	r3, r3, #15
    p_reg->PRESCALER = (p_reg->PRESCALER & ~TIMER_PRESCALER_PRESCALER_Msk) |
   d72c0:	f021 010f 	bic.w	r1, r1, #15
   d72c4:	430b      	orrs	r3, r1
   d72c6:	f8c0 3510 	str.w	r3, [r0, #1296]	; 0x510
    p_cb->state = NRFX_DRV_STATE_INITIALIZED;
   d72ca:	230c      	movs	r3, #12
   d72cc:	fb03 8707 	mla	r7, r3, r7, r8
    return err_code;
   d72d0:	2000      	movs	r0, #0
    p_cb->state = NRFX_DRV_STATE_INITIALIZED;
   d72d2:	723a      	strb	r2, [r7, #8]
}
   d72d4:	b002      	add	sp, #8
   d72d6:	e8bd 87f0 	ldmia.w	sp!, {r4, r5, r6, r7, r8, r9, sl, pc}
    return (nrf_timer_event_t)
   d72da:	009b      	lsls	r3, r3, #2
    *((volatile uint32_t *)((uint8_t *)p_reg + (uint32_t)event)) = 0x0UL;
   d72dc:	f503 73a0 	add.w	r3, r3, #320	; 0x140
   d72e0:	3101      	adds	r1, #1
   d72e2:	50d6      	str	r6, [r2, r3]
    volatile uint32_t dummy = *((volatile uint32_t *)((uint8_t *)p_reg + (uint32_t)event));
   d72e4:	58d3      	ldr	r3, [r2, r3]
   d72e6:	9301      	str	r3, [sp, #4]
    (void)dummy;
   d72e8:	9b01      	ldr	r3, [sp, #4]
    for (i = 0; i < p_instance->cc_channel_count; ++i)
   d72ea:	e799      	b.n	d7220 <nrfx_timer_init+0x94>
        return err_code;
   d72ec:	2008      	movs	r0, #8
   d72ee:	e7f1      	b.n	d72d4 <nrfx_timer_init+0x148>
   d72f0:	40008000 	.word	0x40008000
   d72f4:	000d5945 	.word	0x000d5945
   d72f8:	2003e7b4 	.word	0x2003e7b4
   d72fc:	e000ed14 	.word	0xe000ed14
   d7300:	e000e100 	.word	0xe000e100

000d7304 <nrfx_timer_enable>:
{
   d7304:	b538      	push	{r3, r4, r5, lr}
    NRFX_ASSERT(m_cb[p_instance->instance_id].state == NRFX_DRV_STATE_INITIALIZED);
   d7306:	4d0c      	ldr	r5, [pc, #48]	; (d7338 <nrfx_timer_enable+0x34>)
   d7308:	7902      	ldrb	r2, [r0, #4]
   d730a:	210c      	movs	r1, #12
   d730c:	fb01 5202 	mla	r2, r1, r2, r5
{
   d7310:	4604      	mov	r4, r0
    NRFX_ASSERT(m_cb[p_instance->instance_id].state == NRFX_DRV_STATE_INITIALIZED);
   d7312:	7a12      	ldrb	r2, [r2, #8]
   d7314:	2a01      	cmp	r2, #1
   d7316:	d004      	beq.n	d7322 <nrfx_timer_enable+0x1e>
   d7318:	4a08      	ldr	r2, [pc, #32]	; (d733c <nrfx_timer_enable+0x38>)
   d731a:	2100      	movs	r1, #0
   d731c:	200a      	movs	r0, #10
   d731e:	f7fe fc5b 	bl	d5bd8 <panic_>
    nrf_timer_task_trigger(p_instance->p_reg, NRF_TIMER_TASK_START);
   d7322:	6823      	ldr	r3, [r4, #0]
    *((volatile uint32_t *)((uint8_t *)p_reg + (uint32_t)task)) = 0x1UL;
   d7324:	2201      	movs	r2, #1
   d7326:	601a      	str	r2, [r3, #0]
    m_cb[p_instance->instance_id].state = NRFX_DRV_STATE_POWERED_ON;
   d7328:	7923      	ldrb	r3, [r4, #4]
   d732a:	220c      	movs	r2, #12
   d732c:	fb02 5303 	mla	r3, r2, r3, r5
   d7330:	2202      	movs	r2, #2
   d7332:	721a      	strb	r2, [r3, #8]
}
   d7334:	bd38      	pop	{r3, r4, r5, pc}
   d7336:	bf00      	nop
   d7338:	2003e7b4 	.word	0x2003e7b4
   d733c:	000d5945 	.word	0x000d5945

000d7340 <nrfx_timer_disable>:
{
   d7340:	b538      	push	{r3, r4, r5, lr}
    NRFX_ASSERT(m_cb[p_instance->instance_id].state != NRFX_DRV_STATE_UNINITIALIZED);
   d7342:	4d0a      	ldr	r5, [pc, #40]	; (d736c <nrfx_timer_disable+0x2c>)
   d7344:	7902      	ldrb	r2, [r0, #4]
   d7346:	210c      	movs	r1, #12
   d7348:	fb01 5202 	mla	r2, r1, r2, r5
{
   d734c:	4604      	mov	r4, r0
    NRFX_ASSERT(m_cb[p_instance->instance_id].state != NRFX_DRV_STATE_UNINITIALIZED);
   d734e:	7a11      	ldrb	r1, [r2, #8]
   d7350:	b919      	cbnz	r1, d735a <nrfx_timer_disable+0x1a>
   d7352:	4a07      	ldr	r2, [pc, #28]	; (d7370 <nrfx_timer_disable+0x30>)
   d7354:	200a      	movs	r0, #10
   d7356:	f7fe fc3f 	bl	d5bd8 <panic_>
    nrf_timer_task_trigger(p_instance->p_reg, NRF_TIMER_TASK_SHUTDOWN);
   d735a:	6823      	ldr	r3, [r4, #0]
   d735c:	2201      	movs	r2, #1
   d735e:	611a      	str	r2, [r3, #16]
    m_cb[p_instance->instance_id].state = NRFX_DRV_STATE_INITIALIZED;
   d7360:	7923      	ldrb	r3, [r4, #4]
   d7362:	210c      	movs	r1, #12
   d7364:	fb01 5303 	mla	r3, r1, r3, r5
   d7368:	721a      	strb	r2, [r3, #8]
}
   d736a:	bd38      	pop	{r3, r4, r5, pc}
   d736c:	2003e7b4 	.word	0x2003e7b4
   d7370:	000d5945 	.word	0x000d5945

000d7374 <nrfx_timer_clear>:
{
   d7374:	b510      	push	{r4, lr}
    NRFX_ASSERT(m_cb[p_instance->instance_id].state != NRFX_DRV_STATE_UNINITIALIZED);
   d7376:	4a08      	ldr	r2, [pc, #32]	; (d7398 <nrfx_timer_clear+0x24>)
   d7378:	7903      	ldrb	r3, [r0, #4]
   d737a:	210c      	movs	r1, #12
   d737c:	fb01 2303 	mla	r3, r1, r3, r2
{
   d7380:	4604      	mov	r4, r0
    NRFX_ASSERT(m_cb[p_instance->instance_id].state != NRFX_DRV_STATE_UNINITIALIZED);
   d7382:	7a19      	ldrb	r1, [r3, #8]
   d7384:	b919      	cbnz	r1, d738e <nrfx_timer_clear+0x1a>
   d7386:	4a05      	ldr	r2, [pc, #20]	; (d739c <nrfx_timer_clear+0x28>)
   d7388:	200a      	movs	r0, #10
   d738a:	f7fe fc25 	bl	d5bd8 <panic_>
    nrf_timer_task_trigger(p_instance->p_reg, NRF_TIMER_TASK_CLEAR);
   d738e:	6823      	ldr	r3, [r4, #0]
   d7390:	2201      	movs	r2, #1
   d7392:	60da      	str	r2, [r3, #12]
}
   d7394:	bd10      	pop	{r4, pc}
   d7396:	bf00      	nop
   d7398:	2003e7b4 	.word	0x2003e7b4
   d739c:	000d5945 	.word	0x000d5945

000d73a0 <nrfx_timer_compare>:
{
   d73a0:	b573      	push	{r0, r1, r4, r5, r6, lr}
    return (nrf_timer_int_mask_t)
   d73a2:	f44f 3480 	mov.w	r4, #65536	; 0x10000
   d73a6:	6805      	ldr	r5, [r0, #0]
   d73a8:	408c      	lsls	r4, r1
    if (enable_int)
   d73aa:	b18b      	cbz	r3, d73d0 <nrfx_timer_compare+0x30>
        ((uint32_t)NRF_TIMER_EVENT_COMPARE0 + (channel * sizeof(uint32_t)));
   d73ac:	f101 0350 	add.w	r3, r1, #80	; 0x50
    *((volatile uint32_t *)((uint8_t *)p_reg + (uint32_t)event)) = 0x0UL;
   d73b0:	009b      	lsls	r3, r3, #2
   d73b2:	2600      	movs	r6, #0
   d73b4:	50ee      	str	r6, [r5, r3]
    volatile uint32_t dummy = *((volatile uint32_t *)((uint8_t *)p_reg + (uint32_t)event));
   d73b6:	58eb      	ldr	r3, [r5, r3]
   d73b8:	9301      	str	r3, [sp, #4]
    (void)dummy;
   d73ba:	9b01      	ldr	r3, [sp, #4]
        nrf_timer_int_enable(p_instance->p_reg, timer_int);
   d73bc:	6803      	ldr	r3, [r0, #0]
    p_reg->INTENSET = timer_int_mask;
   d73be:	f8c3 4304 	str.w	r4, [r3, #772]	; 0x304
    nrf_timer_cc_write(p_instance->p_reg, cc_channel, cc_value);
   d73c2:	6803      	ldr	r3, [r0, #0]
    p_reg->CC[cc_channel] = cc_value;
   d73c4:	f501 71a8 	add.w	r1, r1, #336	; 0x150
   d73c8:	f843 2021 	str.w	r2, [r3, r1, lsl #2]
}
   d73cc:	b002      	add	sp, #8
   d73ce:	bd70      	pop	{r4, r5, r6, pc}
    p_reg->INTENCLR = timer_int_mask;
   d73d0:	f8c5 4308 	str.w	r4, [r5, #776]	; 0x308
}
   d73d4:	e7f5      	b.n	d73c2 <nrfx_timer_compare+0x22>

000d73d6 <nrfx_timer_extended_compare>:
{
   d73d6:	b4f0      	push	{r4, r5, r6, r7}
    nrf_timer_shorts_disable(p_instance->p_reg,
   d73d8:	6807      	ldr	r7, [r0, #0]
        (TIMER_SHORTS_COMPARE0_CLEAR_Msk << cc_channel));
   d73da:	f240 1601 	movw	r6, #257	; 0x101
    p_reg->SHORTS &= ~(timer_shorts_mask);
   d73de:	f8d7 5200 	ldr.w	r5, [r7, #512]	; 0x200
    nrf_timer_shorts_disable(p_instance->p_reg,
   d73e2:	408e      	lsls	r6, r1
   d73e4:	ea25 0506 	bic.w	r5, r5, r6
   d73e8:	f8c7 5200 	str.w	r5, [r7, #512]	; 0x200
    nrf_timer_shorts_enable(p_instance->p_reg, timer_short_mask);
   d73ec:	6804      	ldr	r4, [r0, #0]
    p_reg->SHORTS |= timer_shorts_mask;
   d73ee:	f8d4 5200 	ldr.w	r5, [r4, #512]	; 0x200
   d73f2:	432b      	orrs	r3, r5
   d73f4:	f8c4 3200 	str.w	r3, [r4, #512]	; 0x200
    nrfx_timer_compare(p_instance,
   d73f8:	f89d 3010 	ldrb.w	r3, [sp, #16]
}
   d73fc:	bcf0      	pop	{r4, r5, r6, r7}
    nrfx_timer_compare(p_instance,
   d73fe:	f7ff bfcf 	b.w	d73a0 <nrfx_timer_compare>
	...

000d7404 <TIMER4_IRQHandler>:
#endif

#if NRFX_CHECK(NRFX_TIMER4_ENABLED)
void nrfx_timer_4_irq_handler(void)
{
    irq_handler(NRF_TIMER4, &m_cb[NRFX_TIMER4_INST_IDX],
   d7404:	4902      	ldr	r1, [pc, #8]	; (d7410 <TIMER4_IRQHandler+0xc>)
   d7406:	4803      	ldr	r0, [pc, #12]	; (d7414 <TIMER4_IRQHandler+0x10>)
   d7408:	2206      	movs	r2, #6
   d740a:	f7ff be97 	b.w	d713c <irq_handler>
   d740e:	bf00      	nop
   d7410:	2003e7e4 	.word	0x2003e7e4
   d7414:	4001b000 	.word	0x4001b000

000d7418 <__aeabi_atexit>:
   d7418:	460b      	mov	r3, r1
   d741a:	4601      	mov	r1, r0
   d741c:	4618      	mov	r0, r3
   d741e:	f001 be61 	b.w	d90e4 <__cxa_atexit>

000d7422 <_ZdlPvj>:
   d7422:	f7fc be3c 	b.w	d409e <_ZdlPv>

000d7426 <_ZnajRKSt9nothrow_t>:
   d7426:	f7fc be38 	b.w	d409a <_Znaj>

000d742a <_ZSt25__throw_bad_function_callv>:
   d742a:	b508      	push	{r3, lr}
   d742c:	f7fe fc98 	bl	d5d60 <abort>

000d7430 <pow>:
   d7430:	e92d 4ff0 	stmdb	sp!, {r4, r5, r6, r7, r8, r9, sl, fp, lr}
   d7434:	ed2d 8b02 	vpush	{d8}
   d7438:	b08d      	sub	sp, #52	; 0x34
   d743a:	ec57 6b10 	vmov	r6, r7, d0
   d743e:	ec55 4b11 	vmov	r4, r5, d1
   d7442:	f000 f9ad 	bl	d77a0 <__ieee754_pow>
   d7446:	4bae      	ldr	r3, [pc, #696]	; (d7700 <pow+0x2d0>)
   d7448:	eeb0 8a40 	vmov.f32	s16, s0
   d744c:	eef0 8a60 	vmov.f32	s17, s1
   d7450:	f993 9000 	ldrsb.w	r9, [r3]
   d7454:	f1b9 3fff 	cmp.w	r9, #4294967295	; 0xffffffff
   d7458:	d037      	beq.n	d74ca <pow+0x9a>
   d745a:	4622      	mov	r2, r4
   d745c:	462b      	mov	r3, r5
   d745e:	4620      	mov	r0, r4
   d7460:	4629      	mov	r1, r5
   d7462:	f001 fdd9 	bl	d9018 <__aeabi_dcmpun>
   d7466:	4683      	mov	fp, r0
   d7468:	bb78      	cbnz	r0, d74ca <pow+0x9a>
   d746a:	4632      	mov	r2, r6
   d746c:	463b      	mov	r3, r7
   d746e:	4630      	mov	r0, r6
   d7470:	4639      	mov	r1, r7
   d7472:	f001 fdd1 	bl	d9018 <__aeabi_dcmpun>
   d7476:	4680      	mov	r8, r0
   d7478:	2800      	cmp	r0, #0
   d747a:	f040 8093 	bne.w	d75a4 <pow+0x174>
   d747e:	f04f 0a00 	mov.w	sl, #0
   d7482:	f04f 0b00 	mov.w	fp, #0
   d7486:	4630      	mov	r0, r6
   d7488:	4639      	mov	r1, r7
   d748a:	4652      	mov	r2, sl
   d748c:	465b      	mov	r3, fp
   d748e:	f001 fd91 	bl	d8fb4 <__aeabi_dcmpeq>
   d7492:	b318      	cbz	r0, d74dc <pow+0xac>
   d7494:	4652      	mov	r2, sl
   d7496:	465b      	mov	r3, fp
   d7498:	4620      	mov	r0, r4
   d749a:	4629      	mov	r1, r5
   d749c:	f001 fd8a 	bl	d8fb4 <__aeabi_dcmpeq>
   d74a0:	9000      	str	r0, [sp, #0]
   d74a2:	2800      	cmp	r0, #0
   d74a4:	d057      	beq.n	d7556 <pow+0x126>
   d74a6:	4b97      	ldr	r3, [pc, #604]	; (d7704 <pow+0x2d4>)
   d74a8:	f8cd 8028 	str.w	r8, [sp, #40]	; 0x28
   d74ac:	2201      	movs	r2, #1
   d74ae:	e9cd 6704 	strd	r6, r7, [sp, #16]
   d74b2:	e9cd 4506 	strd	r4, r5, [sp, #24]
   d74b6:	e9cd ab08 	strd	sl, fp, [sp, #32]
   d74ba:	9202      	str	r2, [sp, #8]
   d74bc:	9303      	str	r3, [sp, #12]
   d74be:	f1b9 0f00 	cmp.w	r9, #0
   d74c2:	f000 8089 	beq.w	d75d8 <pow+0x1a8>
   d74c6:	ed9f 8b8a 	vldr	d8, [pc, #552]	; d76f0 <pow+0x2c0>
   d74ca:	eeb0 0a48 	vmov.f32	s0, s16
   d74ce:	eef0 0a68 	vmov.f32	s1, s17
   d74d2:	b00d      	add	sp, #52	; 0x34
   d74d4:	ecbd 8b02 	vpop	{d8}
   d74d8:	e8bd 8ff0 	ldmia.w	sp!, {r4, r5, r6, r7, r8, r9, sl, fp, pc}
   d74dc:	eeb0 0a48 	vmov.f32	s0, s16
   d74e0:	eef0 0a68 	vmov.f32	s1, s17
   d74e4:	f001 f804 	bl	d84f0 <finite>
   d74e8:	4680      	mov	r8, r0
   d74ea:	2800      	cmp	r0, #0
   d74ec:	f000 8082 	beq.w	d75f4 <pow+0x1c4>
   d74f0:	f04f 0800 	mov.w	r8, #0
   d74f4:	f04f 0900 	mov.w	r9, #0
   d74f8:	ec51 0b18 	vmov	r0, r1, d8
   d74fc:	4642      	mov	r2, r8
   d74fe:	464b      	mov	r3, r9
   d7500:	f001 fd58 	bl	d8fb4 <__aeabi_dcmpeq>
   d7504:	2800      	cmp	r0, #0
   d7506:	d0e0      	beq.n	d74ca <pow+0x9a>
   d7508:	ec47 6b10 	vmov	d0, r6, r7
   d750c:	f000 fff0 	bl	d84f0 <finite>
   d7510:	2800      	cmp	r0, #0
   d7512:	d0da      	beq.n	d74ca <pow+0x9a>
   d7514:	ec45 4b10 	vmov	d0, r4, r5
   d7518:	f000 ffea 	bl	d84f0 <finite>
   d751c:	2800      	cmp	r0, #0
   d751e:	d0d4      	beq.n	d74ca <pow+0x9a>
   d7520:	4b77      	ldr	r3, [pc, #476]	; (d7700 <pow+0x2d0>)
   d7522:	4a78      	ldr	r2, [pc, #480]	; (d7704 <pow+0x2d4>)
   d7524:	f993 3000 	ldrsb.w	r3, [r3]
   d7528:	9203      	str	r2, [sp, #12]
   d752a:	2104      	movs	r1, #4
   d752c:	2200      	movs	r2, #0
   d752e:	2b02      	cmp	r3, #2
   d7530:	e9cd 6704 	strd	r6, r7, [sp, #16]
   d7534:	e9cd 4506 	strd	r4, r5, [sp, #24]
   d7538:	e9cd 8908 	strd	r8, r9, [sp, #32]
   d753c:	9102      	str	r1, [sp, #8]
   d753e:	920a      	str	r2, [sp, #40]	; 0x28
   d7540:	d004      	beq.n	d754c <pow+0x11c>
   d7542:	a802      	add	r0, sp, #8
   d7544:	f000 ffe0 	bl	d8508 <matherr>
   d7548:	2800      	cmp	r0, #0
   d754a:	d14a      	bne.n	d75e2 <pow+0x1b2>
   d754c:	f7fe fc18 	bl	d5d80 <__errno>
   d7550:	2322      	movs	r3, #34	; 0x22
   d7552:	6003      	str	r3, [r0, #0]
   d7554:	e045      	b.n	d75e2 <pow+0x1b2>
   d7556:	ec45 4b10 	vmov	d0, r4, r5
   d755a:	f000 ffc9 	bl	d84f0 <finite>
   d755e:	2800      	cmp	r0, #0
   d7560:	d0b3      	beq.n	d74ca <pow+0x9a>
   d7562:	4652      	mov	r2, sl
   d7564:	465b      	mov	r3, fp
   d7566:	4620      	mov	r0, r4
   d7568:	4629      	mov	r1, r5
   d756a:	f001 fd2d 	bl	d8fc8 <__aeabi_dcmplt>
   d756e:	2800      	cmp	r0, #0
   d7570:	d0ab      	beq.n	d74ca <pow+0x9a>
   d7572:	4b63      	ldr	r3, [pc, #396]	; (d7700 <pow+0x2d0>)
   d7574:	9900      	ldr	r1, [sp, #0]
   d7576:	4a63      	ldr	r2, [pc, #396]	; (d7704 <pow+0x2d4>)
   d7578:	f993 3000 	ldrsb.w	r3, [r3]
   d757c:	910a      	str	r1, [sp, #40]	; 0x28
   d757e:	2101      	movs	r1, #1
   d7580:	e9cd 6704 	strd	r6, r7, [sp, #16]
   d7584:	e9cd 4506 	strd	r4, r5, [sp, #24]
   d7588:	e9cd 1202 	strd	r1, r2, [sp, #8]
   d758c:	2b00      	cmp	r3, #0
   d758e:	d16f      	bne.n	d7670 <pow+0x240>
   d7590:	e9cd ab08 	strd	sl, fp, [sp, #32]
   d7594:	a802      	add	r0, sp, #8
   d7596:	f000 ffb7 	bl	d8508 <matherr>
   d759a:	2800      	cmp	r0, #0
   d759c:	d06e      	beq.n	d767c <pow+0x24c>
   d759e:	9b0a      	ldr	r3, [sp, #40]	; 0x28
   d75a0:	b32b      	cbz	r3, d75ee <pow+0x1be>
   d75a2:	e020      	b.n	d75e6 <pow+0x1b6>
   d75a4:	2200      	movs	r2, #0
   d75a6:	2300      	movs	r3, #0
   d75a8:	4620      	mov	r0, r4
   d75aa:	4629      	mov	r1, r5
   d75ac:	f001 fd02 	bl	d8fb4 <__aeabi_dcmpeq>
   d75b0:	2800      	cmp	r0, #0
   d75b2:	d08a      	beq.n	d74ca <pow+0x9a>
   d75b4:	ed9f 8b4e 	vldr	d8, [pc, #312]	; d76f0 <pow+0x2c0>
   d75b8:	4b52      	ldr	r3, [pc, #328]	; (d7704 <pow+0x2d4>)
   d75ba:	f8cd b028 	str.w	fp, [sp, #40]	; 0x28
   d75be:	2201      	movs	r2, #1
   d75c0:	f1b9 0f02 	cmp.w	r9, #2
   d75c4:	e9cd 6704 	strd	r6, r7, [sp, #16]
   d75c8:	e9cd 4506 	strd	r4, r5, [sp, #24]
   d75cc:	ed8d 8b08 	vstr	d8, [sp, #32]
   d75d0:	9202      	str	r2, [sp, #8]
   d75d2:	9303      	str	r3, [sp, #12]
   d75d4:	f43f af79 	beq.w	d74ca <pow+0x9a>
   d75d8:	a802      	add	r0, sp, #8
   d75da:	f000 ff95 	bl	d8508 <matherr>
   d75de:	2800      	cmp	r0, #0
   d75e0:	d051      	beq.n	d7686 <pow+0x256>
   d75e2:	9b0a      	ldr	r3, [sp, #40]	; 0x28
   d75e4:	b11b      	cbz	r3, d75ee <pow+0x1be>
   d75e6:	f7fe fbcb 	bl	d5d80 <__errno>
   d75ea:	9b0a      	ldr	r3, [sp, #40]	; 0x28
   d75ec:	6003      	str	r3, [r0, #0]
   d75ee:	ed9d 8b08 	vldr	d8, [sp, #32]
   d75f2:	e76a      	b.n	d74ca <pow+0x9a>
   d75f4:	ec47 6b10 	vmov	d0, r6, r7
   d75f8:	f000 ff7a 	bl	d84f0 <finite>
   d75fc:	2800      	cmp	r0, #0
   d75fe:	f43f af77 	beq.w	d74f0 <pow+0xc0>
   d7602:	ec45 4b10 	vmov	d0, r4, r5
   d7606:	f000 ff73 	bl	d84f0 <finite>
   d760a:	2800      	cmp	r0, #0
   d760c:	f43f af70 	beq.w	d74f0 <pow+0xc0>
   d7610:	ec53 2b18 	vmov	r2, r3, d8
   d7614:	ee18 0a10 	vmov	r0, s16
   d7618:	4619      	mov	r1, r3
   d761a:	f001 fcfd 	bl	d9018 <__aeabi_dcmpun>
   d761e:	4b38      	ldr	r3, [pc, #224]	; (d7700 <pow+0x2d0>)
   d7620:	2800      	cmp	r0, #0
   d7622:	f040 8096 	bne.w	d7752 <pow+0x322>
   d7626:	f993 8000 	ldrsb.w	r8, [r3]
   d762a:	900a      	str	r0, [sp, #40]	; 0x28
   d762c:	2303      	movs	r3, #3
   d762e:	9302      	str	r3, [sp, #8]
   d7630:	4b34      	ldr	r3, [pc, #208]	; (d7704 <pow+0x2d4>)
   d7632:	9303      	str	r3, [sp, #12]
   d7634:	e9cd 6704 	strd	r6, r7, [sp, #16]
   d7638:	e9cd 4506 	strd	r4, r5, [sp, #24]
   d763c:	f1b8 0f00 	cmp.w	r8, #0
   d7640:	d126      	bne.n	d7690 <pow+0x260>
   d7642:	f8df 90d0 	ldr.w	r9, [pc, #208]	; d7714 <pow+0x2e4>
   d7646:	f04f 4860 	mov.w	r8, #3758096384	; 0xe0000000
   d764a:	4652      	mov	r2, sl
   d764c:	465b      	mov	r3, fp
   d764e:	4630      	mov	r0, r6
   d7650:	4639      	mov	r1, r7
   d7652:	e9cd 8908 	strd	r8, r9, [sp, #32]
   d7656:	f001 fcb7 	bl	d8fc8 <__aeabi_dcmplt>
   d765a:	bb48      	cbnz	r0, d76b0 <pow+0x280>
   d765c:	a802      	add	r0, sp, #8
   d765e:	f000 ff53 	bl	d8508 <matherr>
   d7662:	2800      	cmp	r0, #0
   d7664:	d19b      	bne.n	d759e <pow+0x16e>
   d7666:	f7fe fb8b 	bl	d5d80 <__errno>
   d766a:	2322      	movs	r3, #34	; 0x22
   d766c:	6003      	str	r3, [r0, #0]
   d766e:	e796      	b.n	d759e <pow+0x16e>
   d7670:	4925      	ldr	r1, [pc, #148]	; (d7708 <pow+0x2d8>)
   d7672:	2000      	movs	r0, #0
   d7674:	2b02      	cmp	r3, #2
   d7676:	e9cd 0108 	strd	r0, r1, [sp, #32]
   d767a:	d18b      	bne.n	d7594 <pow+0x164>
   d767c:	f7fe fb80 	bl	d5d80 <__errno>
   d7680:	2321      	movs	r3, #33	; 0x21
   d7682:	6003      	str	r3, [r0, #0]
   d7684:	e78b      	b.n	d759e <pow+0x16e>
   d7686:	f7fe fb7b 	bl	d5d80 <__errno>
   d768a:	2321      	movs	r3, #33	; 0x21
   d768c:	6003      	str	r3, [r0, #0]
   d768e:	e7a8      	b.n	d75e2 <pow+0x1b2>
   d7690:	ed9f 7b19 	vldr	d7, [pc, #100]	; d76f8 <pow+0x2c8>
   d7694:	4652      	mov	r2, sl
   d7696:	465b      	mov	r3, fp
   d7698:	4630      	mov	r0, r6
   d769a:	4639      	mov	r1, r7
   d769c:	ed8d 7b08 	vstr	d7, [sp, #32]
   d76a0:	f001 fc92 	bl	d8fc8 <__aeabi_dcmplt>
   d76a4:	2800      	cmp	r0, #0
   d76a6:	d137      	bne.n	d7718 <pow+0x2e8>
   d76a8:	f1b8 0f02 	cmp.w	r8, #2
   d76ac:	d0db      	beq.n	d7666 <pow+0x236>
   d76ae:	e7d5      	b.n	d765c <pow+0x22c>
   d76b0:	4b16      	ldr	r3, [pc, #88]	; (d770c <pow+0x2dc>)
   d76b2:	2200      	movs	r2, #0
   d76b4:	4620      	mov	r0, r4
   d76b6:	4629      	mov	r1, r5
   d76b8:	f001 fa14 	bl	d8ae4 <__aeabi_dmul>
   d76bc:	4602      	mov	r2, r0
   d76be:	460b      	mov	r3, r1
   d76c0:	ec43 2b10 	vmov	d0, r2, r3
   d76c4:	e9cd 2300 	strd	r2, r3, [sp]
   d76c8:	f000 ff2a 	bl	d8520 <rint>
   d76cc:	e9dd 2300 	ldrd	r2, r3, [sp]
   d76d0:	ec51 0b10 	vmov	r0, r1, d0
   d76d4:	f001 fc6e 	bl	d8fb4 <__aeabi_dcmpeq>
   d76d8:	2800      	cmp	r0, #0
   d76da:	d136      	bne.n	d774a <pow+0x31a>
   d76dc:	4b0c      	ldr	r3, [pc, #48]	; (d7710 <pow+0x2e0>)
   d76de:	4908      	ldr	r1, [pc, #32]	; (d7700 <pow+0x2d0>)
   d76e0:	f04f 4260 	mov.w	r2, #3758096384	; 0xe0000000
   d76e4:	e9cd 2308 	strd	r2, r3, [sp, #32]
   d76e8:	f991 8000 	ldrsb.w	r8, [r1]
   d76ec:	e7dc      	b.n	d76a8 <pow+0x278>
   d76ee:	bf00      	nop
   d76f0:	00000000 	.word	0x00000000
   d76f4:	3ff00000 	.word	0x3ff00000
   d76f8:	00000000 	.word	0x00000000
   d76fc:	7ff00000 	.word	0x7ff00000
   d7700:	2003e3dc 	.word	0x2003e3dc
   d7704:	000d96ac 	.word	0x000d96ac
   d7708:	fff00000 	.word	0xfff00000
   d770c:	3fe00000 	.word	0x3fe00000
   d7710:	c7efffff 	.word	0xc7efffff
   d7714:	47efffff 	.word	0x47efffff
   d7718:	4b1c      	ldr	r3, [pc, #112]	; (d778c <pow+0x35c>)
   d771a:	2200      	movs	r2, #0
   d771c:	4620      	mov	r0, r4
   d771e:	4629      	mov	r1, r5
   d7720:	f001 f9e0 	bl	d8ae4 <__aeabi_dmul>
   d7724:	4602      	mov	r2, r0
   d7726:	460b      	mov	r3, r1
   d7728:	ec43 2b10 	vmov	d0, r2, r3
   d772c:	e9cd 2300 	strd	r2, r3, [sp]
   d7730:	f000 fef6 	bl	d8520 <rint>
   d7734:	e9dd 2300 	ldrd	r2, r3, [sp]
   d7738:	ec51 0b10 	vmov	r0, r1, d0
   d773c:	f001 fc3a 	bl	d8fb4 <__aeabi_dcmpeq>
   d7740:	b918      	cbnz	r0, d774a <pow+0x31a>
   d7742:	4b13      	ldr	r3, [pc, #76]	; (d7790 <pow+0x360>)
   d7744:	2200      	movs	r2, #0
   d7746:	e9cd 2308 	strd	r2, r3, [sp, #32]
   d774a:	4b12      	ldr	r3, [pc, #72]	; (d7794 <pow+0x364>)
   d774c:	f993 8000 	ldrsb.w	r8, [r3]
   d7750:	e7aa      	b.n	d76a8 <pow+0x278>
   d7752:	f993 9000 	ldrsb.w	r9, [r3]
   d7756:	4b10      	ldr	r3, [pc, #64]	; (d7798 <pow+0x368>)
   d7758:	f8cd 8028 	str.w	r8, [sp, #40]	; 0x28
   d775c:	2201      	movs	r2, #1
   d775e:	e9cd 6704 	strd	r6, r7, [sp, #16]
   d7762:	e9cd 4506 	strd	r4, r5, [sp, #24]
   d7766:	e9cd 2302 	strd	r2, r3, [sp, #8]
   d776a:	f1b9 0f00 	cmp.w	r9, #0
   d776e:	f43f af0f 	beq.w	d7590 <pow+0x160>
   d7772:	4652      	mov	r2, sl
   d7774:	465b      	mov	r3, fp
   d7776:	4650      	mov	r0, sl
   d7778:	4659      	mov	r1, fp
   d777a:	f001 fadd 	bl	d8d38 <__aeabi_ddiv>
   d777e:	f1b9 0f02 	cmp.w	r9, #2
   d7782:	e9cd 0108 	strd	r0, r1, [sp, #32]
   d7786:	f43f af79 	beq.w	d767c <pow+0x24c>
   d778a:	e703      	b.n	d7594 <pow+0x164>
   d778c:	3fe00000 	.word	0x3fe00000
   d7790:	fff00000 	.word	0xfff00000
   d7794:	2003e3dc 	.word	0x2003e3dc
   d7798:	000d96ac 	.word	0x000d96ac
   d779c:	00000000 	.word	0x00000000

000d77a0 <__ieee754_pow>:
   d77a0:	e92d 4ff0 	stmdb	sp!, {r4, r5, r6, r7, r8, r9, sl, fp, lr}
   d77a4:	ec57 6b11 	vmov	r6, r7, d1
   d77a8:	ed2d 8b0a 	vpush	{d8-d12}
   d77ac:	f027 4a00 	bic.w	sl, r7, #2147483648	; 0x80000000
   d77b0:	ea5a 0206 	orrs.w	r2, sl, r6
   d77b4:	b089      	sub	sp, #36	; 0x24
   d77b6:	d03d      	beq.n	d7834 <__ieee754_pow+0x94>
   d77b8:	ec55 4b10 	vmov	r4, r5, d0
   d77bc:	4976      	ldr	r1, [pc, #472]	; (d7998 <__ieee754_pow+0x1f8>)
   d77be:	f025 4800 	bic.w	r8, r5, #2147483648	; 0x80000000
   d77c2:	4588      	cmp	r8, r1
   d77c4:	ee10 2a10 	vmov	r2, s0
   d77c8:	46a9      	mov	r9, r5
   d77ca:	dc2c      	bgt.n	d7826 <__ieee754_pow+0x86>
   d77cc:	ee11 3a10 	vmov	r3, s2
   d77d0:	46bb      	mov	fp, r7
   d77d2:	d03a      	beq.n	d784a <__ieee754_pow+0xaa>
   d77d4:	458a      	cmp	sl, r1
   d77d6:	dc26      	bgt.n	d7826 <__ieee754_pow+0x86>
   d77d8:	496f      	ldr	r1, [pc, #444]	; (d7998 <__ieee754_pow+0x1f8>)
   d77da:	458a      	cmp	sl, r1
   d77dc:	d021      	beq.n	d7822 <__ieee754_pow+0x82>
   d77de:	f1b9 0f00 	cmp.w	r9, #0
   d77e2:	db3d      	blt.n	d7860 <__ieee754_pow+0xc0>
   d77e4:	2100      	movs	r1, #0
   d77e6:	9103      	str	r1, [sp, #12]
   d77e8:	2b00      	cmp	r3, #0
   d77ea:	d155      	bne.n	d7898 <__ieee754_pow+0xf8>
   d77ec:	4b6a      	ldr	r3, [pc, #424]	; (d7998 <__ieee754_pow+0x1f8>)
   d77ee:	459a      	cmp	sl, r3
   d77f0:	f000 80a8 	beq.w	d7944 <__ieee754_pow+0x1a4>
   d77f4:	4b69      	ldr	r3, [pc, #420]	; (d799c <__ieee754_pow+0x1fc>)
   d77f6:	459a      	cmp	sl, r3
   d77f8:	f000 80b6 	beq.w	d7968 <__ieee754_pow+0x1c8>
   d77fc:	f1bb 4f80 	cmp.w	fp, #1073741824	; 0x40000000
   d7800:	f000 8501 	beq.w	d8206 <__ieee754_pow+0xa66>
   d7804:	4b66      	ldr	r3, [pc, #408]	; (d79a0 <__ieee754_pow+0x200>)
   d7806:	459b      	cmp	fp, r3
   d7808:	d146      	bne.n	d7898 <__ieee754_pow+0xf8>
   d780a:	f1b9 0f00 	cmp.w	r9, #0
   d780e:	db43      	blt.n	d7898 <__ieee754_pow+0xf8>
   d7810:	ec45 4b10 	vmov	d0, r4, r5
   d7814:	b009      	add	sp, #36	; 0x24
   d7816:	ecbd 8b0a 	vpop	{d8-d12}
   d781a:	e8bd 4ff0 	ldmia.w	sp!, {r4, r5, r6, r7, r8, r9, sl, fp, lr}
   d781e:	f000 bd99 	b.w	d8354 <__ieee754_sqrt>
   d7822:	2b00      	cmp	r3, #0
   d7824:	d0db      	beq.n	d77de <__ieee754_pow+0x3e>
   d7826:	f108 4840 	add.w	r8, r8, #3221225472	; 0xc0000000
   d782a:	f508 1880 	add.w	r8, r8, #1048576	; 0x100000
   d782e:	ea58 0302 	orrs.w	r3, r8, r2
   d7832:	d10d      	bne.n	d7850 <__ieee754_pow+0xb0>
   d7834:	ed9f 7b54 	vldr	d7, [pc, #336]	; d7988 <__ieee754_pow+0x1e8>
   d7838:	ed8d 7b00 	vstr	d7, [sp]
   d783c:	ed9d 0b00 	vldr	d0, [sp]
   d7840:	b009      	add	sp, #36	; 0x24
   d7842:	ecbd 8b0a 	vpop	{d8-d12}
   d7846:	e8bd 8ff0 	ldmia.w	sp!, {r4, r5, r6, r7, r8, r9, sl, fp, pc}
   d784a:	b90c      	cbnz	r4, d7850 <__ieee754_pow+0xb0>
   d784c:	45c2      	cmp	sl, r8
   d784e:	ddc3      	ble.n	d77d8 <__ieee754_pow+0x38>
   d7850:	4854      	ldr	r0, [pc, #336]	; (d79a4 <__ieee754_pow+0x204>)
   d7852:	b009      	add	sp, #36	; 0x24
   d7854:	ecbd 8b0a 	vpop	{d8-d12}
   d7858:	e8bd 4ff0 	ldmia.w	sp!, {r4, r5, r6, r7, r8, r9, sl, fp, lr}
   d785c:	f000 be58 	b.w	d8510 <nan>
   d7860:	4951      	ldr	r1, [pc, #324]	; (d79a8 <__ieee754_pow+0x208>)
   d7862:	458a      	cmp	sl, r1
   d7864:	f300 8087 	bgt.w	d7976 <__ieee754_pow+0x1d6>
   d7868:	f1a1 7154 	sub.w	r1, r1, #55574528	; 0x3500000
   d786c:	458a      	cmp	sl, r1
   d786e:	dd0f      	ble.n	d7890 <__ieee754_pow+0xf0>
   d7870:	ea4f 512a 	mov.w	r1, sl, asr #20
   d7874:	f2a1 31ff 	subw	r1, r1, #1023	; 0x3ff
   d7878:	2914      	cmp	r1, #20
   d787a:	f340 84ce 	ble.w	d821a <__ieee754_pow+0xa7a>
   d787e:	f1c1 0134 	rsb	r1, r1, #52	; 0x34
   d7882:	fa23 f001 	lsr.w	r0, r3, r1
   d7886:	fa00 f101 	lsl.w	r1, r0, r1
   d788a:	4299      	cmp	r1, r3
   d788c:	f000 8520 	beq.w	d82d0 <__ieee754_pow+0xb30>
   d7890:	2100      	movs	r1, #0
   d7892:	9103      	str	r1, [sp, #12]
   d7894:	2b00      	cmp	r3, #0
   d7896:	d0ad      	beq.n	d77f4 <__ieee754_pow+0x54>
   d7898:	ec45 4b10 	vmov	d0, r4, r5
   d789c:	9206      	str	r2, [sp, #24]
   d789e:	f000 fe1d 	bl	d84dc <fabs>
   d78a2:	9a06      	ldr	r2, [sp, #24]
   d78a4:	ed8d 0b00 	vstr	d0, [sp]
   d78a8:	bb5a      	cbnz	r2, d7902 <__ieee754_pow+0x162>
   d78aa:	f1b8 0f00 	cmp.w	r8, #0
   d78ae:	d004      	beq.n	d78ba <__ieee754_pow+0x11a>
   d78b0:	4b3a      	ldr	r3, [pc, #232]	; (d799c <__ieee754_pow+0x1fc>)
   d78b2:	f029 4240 	bic.w	r2, r9, #3221225472	; 0xc0000000
   d78b6:	429a      	cmp	r2, r3
   d78b8:	d123      	bne.n	d7902 <__ieee754_pow+0x162>
   d78ba:	f1bb 0f00 	cmp.w	fp, #0
   d78be:	da07      	bge.n	d78d0 <__ieee754_pow+0x130>
   d78c0:	e9dd 2300 	ldrd	r2, r3, [sp]
   d78c4:	4935      	ldr	r1, [pc, #212]	; (d799c <__ieee754_pow+0x1fc>)
   d78c6:	2000      	movs	r0, #0
   d78c8:	f001 fa36 	bl	d8d38 <__aeabi_ddiv>
   d78cc:	e9cd 0100 	strd	r0, r1, [sp]
   d78d0:	f1b9 0f00 	cmp.w	r9, #0
   d78d4:	dab2      	bge.n	d783c <__ieee754_pow+0x9c>
   d78d6:	9b03      	ldr	r3, [sp, #12]
   d78d8:	f108 4840 	add.w	r8, r8, #3221225472	; 0xc0000000
   d78dc:	f508 1880 	add.w	r8, r8, #1048576	; 0x100000
   d78e0:	ea58 0303 	orrs.w	r3, r8, r3
   d78e4:	f040 84be 	bne.w	d8264 <__ieee754_pow+0xac4>
   d78e8:	e9dd 2300 	ldrd	r2, r3, [sp]
   d78ec:	4610      	mov	r0, r2
   d78ee:	4619      	mov	r1, r3
   d78f0:	f000 ff40 	bl	d8774 <__aeabi_dsub>
   d78f4:	4602      	mov	r2, r0
   d78f6:	460b      	mov	r3, r1
   d78f8:	f001 fa1e 	bl	d8d38 <__aeabi_ddiv>
   d78fc:	e9cd 0100 	strd	r0, r1, [sp]
   d7900:	e79c      	b.n	d783c <__ieee754_pow+0x9c>
   d7902:	9a03      	ldr	r2, [sp, #12]
   d7904:	ea4f 73d9 	mov.w	r3, r9, lsr #31
   d7908:	3b01      	subs	r3, #1
   d790a:	9306      	str	r3, [sp, #24]
   d790c:	4313      	orrs	r3, r2
   d790e:	d035      	beq.n	d797c <__ieee754_pow+0x1dc>
   d7910:	4b26      	ldr	r3, [pc, #152]	; (d79ac <__ieee754_pow+0x20c>)
   d7912:	459a      	cmp	sl, r3
   d7914:	dd4e      	ble.n	d79b4 <__ieee754_pow+0x214>
   d7916:	f103 7304 	add.w	r3, r3, #34603008	; 0x2100000
   d791a:	459a      	cmp	sl, r3
   d791c:	4b24      	ldr	r3, [pc, #144]	; (d79b0 <__ieee754_pow+0x210>)
   d791e:	f340 83ed 	ble.w	d80fc <__ieee754_pow+0x95c>
   d7922:	4598      	cmp	r8, r3
   d7924:	f340 836b 	ble.w	d7ffe <__ieee754_pow+0x85e>
   d7928:	f1bb 0f00 	cmp.w	fp, #0
   d792c:	f340 836b 	ble.w	d8006 <__ieee754_pow+0x866>
   d7930:	a317      	add	r3, pc, #92	; (adr r3, d7990 <__ieee754_pow+0x1f0>)
   d7932:	e9d3 2300 	ldrd	r2, r3, [r3]
   d7936:	4610      	mov	r0, r2
   d7938:	4619      	mov	r1, r3
   d793a:	f001 f8d3 	bl	d8ae4 <__aeabi_dmul>
   d793e:	e9cd 0100 	strd	r0, r1, [sp]
   d7942:	e77b      	b.n	d783c <__ieee754_pow+0x9c>
   d7944:	f108 4340 	add.w	r3, r8, #3221225472	; 0xc0000000
   d7948:	f503 1380 	add.w	r3, r3, #1048576	; 0x100000
   d794c:	4313      	orrs	r3, r2
   d794e:	f43f af71 	beq.w	d7834 <__ieee754_pow+0x94>
   d7952:	4b17      	ldr	r3, [pc, #92]	; (d79b0 <__ieee754_pow+0x210>)
   d7954:	4598      	cmp	r8, r3
   d7956:	f340 8388 	ble.w	d806a <__ieee754_pow+0x8ca>
   d795a:	f1bb 0f00 	cmp.w	fp, #0
   d795e:	f2c0 8352 	blt.w	d8006 <__ieee754_pow+0x866>
   d7962:	e9cd 6700 	strd	r6, r7, [sp]
   d7966:	e769      	b.n	d783c <__ieee754_pow+0x9c>
   d7968:	f1bb 0f00 	cmp.w	fp, #0
   d796c:	f2c0 8441 	blt.w	d81f2 <__ieee754_pow+0xa52>
   d7970:	e9cd 4500 	strd	r4, r5, [sp]
   d7974:	e762      	b.n	d783c <__ieee754_pow+0x9c>
   d7976:	2102      	movs	r1, #2
   d7978:	9103      	str	r1, [sp, #12]
   d797a:	e735      	b.n	d77e8 <__ieee754_pow+0x48>
   d797c:	4622      	mov	r2, r4
   d797e:	462b      	mov	r3, r5
   d7980:	e7b4      	b.n	d78ec <__ieee754_pow+0x14c>
   d7982:	bf00      	nop
   d7984:	f3af 8000 	nop.w
   d7988:	00000000 	.word	0x00000000
   d798c:	3ff00000 	.word	0x3ff00000
   d7990:	8800759c 	.word	0x8800759c
   d7994:	7e37e43c 	.word	0x7e37e43c
   d7998:	7ff00000 	.word	0x7ff00000
   d799c:	3ff00000 	.word	0x3ff00000
   d79a0:	3fe00000 	.word	0x3fe00000
   d79a4:	000d96b0 	.word	0x000d96b0
   d79a8:	433fffff 	.word	0x433fffff
   d79ac:	41e00000 	.word	0x41e00000
   d79b0:	3fefffff 	.word	0x3fefffff
   d79b4:	4be4      	ldr	r3, [pc, #912]	; (d7d48 <__ieee754_pow+0x5a8>)
   d79b6:	ea09 0303 	and.w	r3, r9, r3
   d79ba:	2b00      	cmp	r3, #0
   d79bc:	f040 8416 	bne.w	d81ec <__ieee754_pow+0xa4c>
   d79c0:	e9dd 0100 	ldrd	r0, r1, [sp]
   d79c4:	4be1      	ldr	r3, [pc, #900]	; (d7d4c <__ieee754_pow+0x5ac>)
   d79c6:	2200      	movs	r2, #0
   d79c8:	f001 f88c 	bl	d8ae4 <__aeabi_dmul>
   d79cc:	e9cd 0100 	strd	r0, r1, [sp]
   d79d0:	f8dd 8004 	ldr.w	r8, [sp, #4]
   d79d4:	f06f 0034 	mvn.w	r0, #52	; 0x34
   d79d8:	ea4f 5328 	mov.w	r3, r8, asr #20
   d79dc:	49dc      	ldr	r1, [pc, #880]	; (d7d50 <__ieee754_pow+0x5b0>)
   d79de:	f3c8 0213 	ubfx	r2, r8, #0, #20
   d79e2:	f2a3 33ff 	subw	r3, r3, #1023	; 0x3ff
   d79e6:	f042 587f 	orr.w	r8, r2, #1069547520	; 0x3fc00000
   d79ea:	1818      	adds	r0, r3, r0
   d79ec:	428a      	cmp	r2, r1
   d79ee:	9007      	str	r0, [sp, #28]
   d79f0:	f448 1840 	orr.w	r8, r8, #3145728	; 0x300000
   d79f4:	f340 83e9 	ble.w	d81ca <__ieee754_pow+0xa2a>
   d79f8:	4bd6      	ldr	r3, [pc, #856]	; (d7d54 <__ieee754_pow+0x5b4>)
   d79fa:	429a      	cmp	r2, r3
   d79fc:	f340 843e 	ble.w	d827c <__ieee754_pow+0xadc>
   d7a00:	ed9f 7bbb 	vldr	d7, [pc, #748]	; d7cf0 <__ieee754_pow+0x550>
   d7a04:	eeb0 ba47 	vmov.f32	s22, s14
   d7a08:	eef0 ba67 	vmov.f32	s23, s15
   d7a0c:	eeb0 ca47 	vmov.f32	s24, s14
   d7a10:	eef0 ca67 	vmov.f32	s25, s15
   d7a14:	ed9f 7bb8 	vldr	d7, [pc, #736]	; d7cf8 <__ieee754_pow+0x558>
   d7a18:	3001      	adds	r0, #1
   d7a1a:	ec54 3b17 	vmov	r3, r4, d7
   d7a1e:	9007      	str	r0, [sp, #28]
   d7a20:	f5a8 1880 	sub.w	r8, r8, #1048576	; 0x100000
   d7a24:	f04f 0900 	mov.w	r9, #0
   d7a28:	e9dd ab00 	ldrd	sl, fp, [sp]
   d7a2c:	ec44 3b18 	vmov	d8, r3, r4
   d7a30:	461a      	mov	r2, r3
   d7a32:	4650      	mov	r0, sl
   d7a34:	4623      	mov	r3, r4
   d7a36:	4641      	mov	r1, r8
   d7a38:	f000 fe9c 	bl	d8774 <__aeabi_dsub>
   d7a3c:	ec53 2b18 	vmov	r2, r3, d8
   d7a40:	4604      	mov	r4, r0
   d7a42:	460d      	mov	r5, r1
   d7a44:	4650      	mov	r0, sl
   d7a46:	4641      	mov	r1, r8
   d7a48:	f000 fe96 	bl	d8778 <__adddf3>
   d7a4c:	4602      	mov	r2, r0
   d7a4e:	460b      	mov	r3, r1
   d7a50:	2000      	movs	r0, #0
   d7a52:	49c1      	ldr	r1, [pc, #772]	; (d7d58 <__ieee754_pow+0x5b8>)
   d7a54:	f001 f970 	bl	d8d38 <__aeabi_ddiv>
   d7a58:	ec45 4b1a 	vmov	d10, r4, r5
   d7a5c:	ec41 0b19 	vmov	d9, r0, r1
   d7a60:	ec51 0b1a 	vmov	r0, r1, d10
   d7a64:	ec53 2b19 	vmov	r2, r3, d9
   d7a68:	f001 f83c 	bl	d8ae4 <__aeabi_dmul>
   d7a6c:	46c3      	mov	fp, r8
   d7a6e:	ea4f 0868 	mov.w	r8, r8, asr #1
   d7a72:	f048 5800 	orr.w	r8, r8, #536870912	; 0x20000000
   d7a76:	f508 2300 	add.w	r3, r8, #524288	; 0x80000
   d7a7a:	eb03 0509 	add.w	r5, r3, r9
   d7a7e:	460a      	mov	r2, r1
   d7a80:	2300      	movs	r3, #0
   d7a82:	4601      	mov	r1, r0
   d7a84:	e9cd 1200 	strd	r1, r2, [sp]
   d7a88:	9300      	str	r3, [sp, #0]
   d7a8a:	e9dd 8900 	ldrd	r8, r9, [sp]
   d7a8e:	2400      	movs	r4, #0
   d7a90:	e9cd 1204 	strd	r1, r2, [sp, #16]
   d7a94:	462b      	mov	r3, r5
   d7a96:	4622      	mov	r2, r4
   d7a98:	4640      	mov	r0, r8
   d7a9a:	4649      	mov	r1, r9
   d7a9c:	f001 f822 	bl	d8ae4 <__aeabi_dmul>
   d7aa0:	4602      	mov	r2, r0
   d7aa2:	460b      	mov	r3, r1
   d7aa4:	ec51 0b1a 	vmov	r0, r1, d10
   d7aa8:	f000 fe64 	bl	d8774 <__aeabi_dsub>
   d7aac:	ec41 0b17 	vmov	d7, r0, r1
   d7ab0:	ec53 2b18 	vmov	r2, r3, d8
   d7ab4:	4620      	mov	r0, r4
   d7ab6:	4629      	mov	r1, r5
   d7ab8:	ec55 4b17 	vmov	r4, r5, d7
   d7abc:	f000 fe5a 	bl	d8774 <__aeabi_dsub>
   d7ac0:	4602      	mov	r2, r0
   d7ac2:	460b      	mov	r3, r1
   d7ac4:	4650      	mov	r0, sl
   d7ac6:	4659      	mov	r1, fp
   d7ac8:	f000 fe54 	bl	d8774 <__aeabi_dsub>
   d7acc:	4642      	mov	r2, r8
   d7ace:	464b      	mov	r3, r9
   d7ad0:	f001 f808 	bl	d8ae4 <__aeabi_dmul>
   d7ad4:	4602      	mov	r2, r0
   d7ad6:	460b      	mov	r3, r1
   d7ad8:	4620      	mov	r0, r4
   d7ada:	4629      	mov	r1, r5
   d7adc:	f000 fe4a 	bl	d8774 <__aeabi_dsub>
   d7ae0:	ec53 2b19 	vmov	r2, r3, d9
   d7ae4:	f000 fffe 	bl	d8ae4 <__aeabi_dmul>
   d7ae8:	e9dd ab04 	ldrd	sl, fp, [sp, #16]
   d7aec:	4604      	mov	r4, r0
   d7aee:	460d      	mov	r5, r1
   d7af0:	4652      	mov	r2, sl
   d7af2:	465b      	mov	r3, fp
   d7af4:	4650      	mov	r0, sl
   d7af6:	4659      	mov	r1, fp
   d7af8:	f000 fff4 	bl	d8ae4 <__aeabi_dmul>
   d7afc:	a380      	add	r3, pc, #512	; (adr r3, d7d00 <__ieee754_pow+0x560>)
   d7afe:	e9d3 2300 	ldrd	r2, r3, [r3]
   d7b02:	ec45 4b1a 	vmov	d10, r4, r5
   d7b06:	4604      	mov	r4, r0
   d7b08:	460d      	mov	r5, r1
   d7b0a:	f000 ffeb 	bl	d8ae4 <__aeabi_dmul>
   d7b0e:	a37e      	add	r3, pc, #504	; (adr r3, d7d08 <__ieee754_pow+0x568>)
   d7b10:	e9d3 2300 	ldrd	r2, r3, [r3]
   d7b14:	f000 fe30 	bl	d8778 <__adddf3>
   d7b18:	4622      	mov	r2, r4
   d7b1a:	462b      	mov	r3, r5
   d7b1c:	f000 ffe2 	bl	d8ae4 <__aeabi_dmul>
   d7b20:	a37b      	add	r3, pc, #492	; (adr r3, d7d10 <__ieee754_pow+0x570>)
   d7b22:	e9d3 2300 	ldrd	r2, r3, [r3]
   d7b26:	f000 fe27 	bl	d8778 <__adddf3>
   d7b2a:	4622      	mov	r2, r4
   d7b2c:	462b      	mov	r3, r5
   d7b2e:	f000 ffd9 	bl	d8ae4 <__aeabi_dmul>
   d7b32:	a379      	add	r3, pc, #484	; (adr r3, d7d18 <__ieee754_pow+0x578>)
   d7b34:	e9d3 2300 	ldrd	r2, r3, [r3]
   d7b38:	f000 fe1e 	bl	d8778 <__adddf3>
   d7b3c:	4622      	mov	r2, r4
   d7b3e:	462b      	mov	r3, r5
   d7b40:	f000 ffd0 	bl	d8ae4 <__aeabi_dmul>
   d7b44:	a376      	add	r3, pc, #472	; (adr r3, d7d20 <__ieee754_pow+0x580>)
   d7b46:	e9d3 2300 	ldrd	r2, r3, [r3]
   d7b4a:	f000 fe15 	bl	d8778 <__adddf3>
   d7b4e:	4622      	mov	r2, r4
   d7b50:	462b      	mov	r3, r5
   d7b52:	f000 ffc7 	bl	d8ae4 <__aeabi_dmul>
   d7b56:	a374      	add	r3, pc, #464	; (adr r3, d7d28 <__ieee754_pow+0x588>)
   d7b58:	e9d3 2300 	ldrd	r2, r3, [r3]
   d7b5c:	f000 fe0c 	bl	d8778 <__adddf3>
   d7b60:	4622      	mov	r2, r4
   d7b62:	462b      	mov	r3, r5
   d7b64:	4604      	mov	r4, r0
   d7b66:	460d      	mov	r5, r1
   d7b68:	4610      	mov	r0, r2
   d7b6a:	4619      	mov	r1, r3
   d7b6c:	f000 ffba 	bl	d8ae4 <__aeabi_dmul>
   d7b70:	4602      	mov	r2, r0
   d7b72:	460b      	mov	r3, r1
   d7b74:	4620      	mov	r0, r4
   d7b76:	4629      	mov	r1, r5
   d7b78:	f000 ffb4 	bl	d8ae4 <__aeabi_dmul>
   d7b7c:	4642      	mov	r2, r8
   d7b7e:	4604      	mov	r4, r0
   d7b80:	460d      	mov	r5, r1
   d7b82:	464b      	mov	r3, r9
   d7b84:	4650      	mov	r0, sl
   d7b86:	4659      	mov	r1, fp
   d7b88:	e9cd ab04 	strd	sl, fp, [sp, #16]
   d7b8c:	f000 fdf4 	bl	d8778 <__adddf3>
   d7b90:	ec53 2b1a 	vmov	r2, r3, d10
   d7b94:	f000 ffa6 	bl	d8ae4 <__aeabi_dmul>
   d7b98:	4622      	mov	r2, r4
   d7b9a:	462b      	mov	r3, r5
   d7b9c:	f000 fdec 	bl	d8778 <__adddf3>
   d7ba0:	4642      	mov	r2, r8
   d7ba2:	4604      	mov	r4, r0
   d7ba4:	460d      	mov	r5, r1
   d7ba6:	464b      	mov	r3, r9
   d7ba8:	4640      	mov	r0, r8
   d7baa:	4649      	mov	r1, r9
   d7bac:	f000 ff9a 	bl	d8ae4 <__aeabi_dmul>
   d7bb0:	ec45 4b19 	vmov	d9, r4, r5
   d7bb4:	4b69      	ldr	r3, [pc, #420]	; (d7d5c <__ieee754_pow+0x5bc>)
   d7bb6:	2200      	movs	r2, #0
   d7bb8:	4682      	mov	sl, r0
   d7bba:	468b      	mov	fp, r1
   d7bbc:	f000 fddc 	bl	d8778 <__adddf3>
   d7bc0:	ec53 2b19 	vmov	r2, r3, d9
   d7bc4:	f000 fdd8 	bl	d8778 <__adddf3>
   d7bc8:	9c00      	ldr	r4, [sp, #0]
   d7bca:	460d      	mov	r5, r1
   d7bcc:	4622      	mov	r2, r4
   d7bce:	462b      	mov	r3, r5
   d7bd0:	4640      	mov	r0, r8
   d7bd2:	4649      	mov	r1, r9
   d7bd4:	f000 ff86 	bl	d8ae4 <__aeabi_dmul>
   d7bd8:	4b60      	ldr	r3, [pc, #384]	; (d7d5c <__ieee754_pow+0x5bc>)
   d7bda:	4680      	mov	r8, r0
   d7bdc:	4689      	mov	r9, r1
   d7bde:	2200      	movs	r2, #0
   d7be0:	4620      	mov	r0, r4
   d7be2:	4629      	mov	r1, r5
   d7be4:	f000 fdc6 	bl	d8774 <__aeabi_dsub>
   d7be8:	4652      	mov	r2, sl
   d7bea:	465b      	mov	r3, fp
   d7bec:	f000 fdc2 	bl	d8774 <__aeabi_dsub>
   d7bf0:	4602      	mov	r2, r0
   d7bf2:	460b      	mov	r3, r1
   d7bf4:	ec51 0b19 	vmov	r0, r1, d9
   d7bf8:	f000 fdbc 	bl	d8774 <__aeabi_dsub>
   d7bfc:	e9dd 2304 	ldrd	r2, r3, [sp, #16]
   d7c00:	f000 ff70 	bl	d8ae4 <__aeabi_dmul>
   d7c04:	ec49 8b18 	vmov	d8, r8, r9
   d7c08:	4622      	mov	r2, r4
   d7c0a:	4680      	mov	r8, r0
   d7c0c:	4689      	mov	r9, r1
   d7c0e:	462b      	mov	r3, r5
   d7c10:	ec51 0b1a 	vmov	r0, r1, d10
   d7c14:	f000 ff66 	bl	d8ae4 <__aeabi_dmul>
   d7c18:	4602      	mov	r2, r0
   d7c1a:	460b      	mov	r3, r1
   d7c1c:	4640      	mov	r0, r8
   d7c1e:	4649      	mov	r1, r9
   d7c20:	f000 fdaa 	bl	d8778 <__adddf3>
   d7c24:	4682      	mov	sl, r0
   d7c26:	468b      	mov	fp, r1
   d7c28:	4652      	mov	r2, sl
   d7c2a:	465b      	mov	r3, fp
   d7c2c:	ec51 0b18 	vmov	r0, r1, d8
   d7c30:	f000 fda2 	bl	d8778 <__adddf3>
   d7c34:	9c00      	ldr	r4, [sp, #0]
   d7c36:	a33e      	add	r3, pc, #248	; (adr r3, d7d30 <__ieee754_pow+0x590>)
   d7c38:	e9d3 2300 	ldrd	r2, r3, [r3]
   d7c3c:	4620      	mov	r0, r4
   d7c3e:	460d      	mov	r5, r1
   d7c40:	f000 ff50 	bl	d8ae4 <__aeabi_dmul>
   d7c44:	ec53 2b18 	vmov	r2, r3, d8
   d7c48:	4680      	mov	r8, r0
   d7c4a:	4689      	mov	r9, r1
   d7c4c:	4620      	mov	r0, r4
   d7c4e:	4629      	mov	r1, r5
   d7c50:	f000 fd90 	bl	d8774 <__aeabi_dsub>
   d7c54:	4602      	mov	r2, r0
   d7c56:	460b      	mov	r3, r1
   d7c58:	4650      	mov	r0, sl
   d7c5a:	4659      	mov	r1, fp
   d7c5c:	f000 fd8a 	bl	d8774 <__aeabi_dsub>
   d7c60:	a335      	add	r3, pc, #212	; (adr r3, d7d38 <__ieee754_pow+0x598>)
   d7c62:	e9d3 2300 	ldrd	r2, r3, [r3]
   d7c66:	f000 ff3d 	bl	d8ae4 <__aeabi_dmul>
   d7c6a:	ec49 8b19 	vmov	d9, r8, r9
   d7c6e:	a334      	add	r3, pc, #208	; (adr r3, d7d40 <__ieee754_pow+0x5a0>)
   d7c70:	e9d3 2300 	ldrd	r2, r3, [r3]
   d7c74:	4680      	mov	r8, r0
   d7c76:	4689      	mov	r9, r1
   d7c78:	4620      	mov	r0, r4
   d7c7a:	4629      	mov	r1, r5
   d7c7c:	f000 ff32 	bl	d8ae4 <__aeabi_dmul>
   d7c80:	4602      	mov	r2, r0
   d7c82:	460b      	mov	r3, r1
   d7c84:	4640      	mov	r0, r8
   d7c86:	4649      	mov	r1, r9
   d7c88:	f000 fd76 	bl	d8778 <__adddf3>
   d7c8c:	ec53 2b1c 	vmov	r2, r3, d12
   d7c90:	f000 fd72 	bl	d8778 <__adddf3>
   d7c94:	4682      	mov	sl, r0
   d7c96:	9807      	ldr	r0, [sp, #28]
   d7c98:	468b      	mov	fp, r1
   d7c9a:	f000 feb9 	bl	d8a10 <__aeabi_i2d>
   d7c9e:	4652      	mov	r2, sl
   d7ca0:	4680      	mov	r8, r0
   d7ca2:	4689      	mov	r9, r1
   d7ca4:	465b      	mov	r3, fp
   d7ca6:	ec51 0b19 	vmov	r0, r1, d9
   d7caa:	f000 fd65 	bl	d8778 <__adddf3>
   d7cae:	ec53 2b1b 	vmov	r2, r3, d11
   d7cb2:	f000 fd61 	bl	d8778 <__adddf3>
   d7cb6:	4642      	mov	r2, r8
   d7cb8:	464b      	mov	r3, r9
   d7cba:	f000 fd5d 	bl	d8778 <__adddf3>
   d7cbe:	9c00      	ldr	r4, [sp, #0]
   d7cc0:	4642      	mov	r2, r8
   d7cc2:	464b      	mov	r3, r9
   d7cc4:	4620      	mov	r0, r4
   d7cc6:	460d      	mov	r5, r1
   d7cc8:	f000 fd54 	bl	d8774 <__aeabi_dsub>
   d7ccc:	ec53 2b1b 	vmov	r2, r3, d11
   d7cd0:	f000 fd50 	bl	d8774 <__aeabi_dsub>
   d7cd4:	ec53 2b19 	vmov	r2, r3, d9
   d7cd8:	f000 fd4c 	bl	d8774 <__aeabi_dsub>
   d7cdc:	4602      	mov	r2, r0
   d7cde:	460b      	mov	r3, r1
   d7ce0:	4650      	mov	r0, sl
   d7ce2:	4659      	mov	r1, fp
   d7ce4:	f000 fd46 	bl	d8774 <__aeabi_dsub>
   d7ce8:	4682      	mov	sl, r0
   d7cea:	468b      	mov	fp, r1
   d7cec:	e038      	b.n	d7d60 <__ieee754_pow+0x5c0>
   d7cee:	bf00      	nop
	...
   d7cfc:	3ff00000 	.word	0x3ff00000
   d7d00:	4a454eef 	.word	0x4a454eef
   d7d04:	3fca7e28 	.word	0x3fca7e28
   d7d08:	93c9db65 	.word	0x93c9db65
   d7d0c:	3fcd864a 	.word	0x3fcd864a
   d7d10:	a91d4101 	.word	0xa91d4101
   d7d14:	3fd17460 	.word	0x3fd17460
   d7d18:	518f264d 	.word	0x518f264d
   d7d1c:	3fd55555 	.word	0x3fd55555
   d7d20:	db6fabff 	.word	0xdb6fabff
   d7d24:	3fdb6db6 	.word	0x3fdb6db6
   d7d28:	33333303 	.word	0x33333303
   d7d2c:	3fe33333 	.word	0x3fe33333
   d7d30:	e0000000 	.word	0xe0000000
   d7d34:	3feec709 	.word	0x3feec709
   d7d38:	dc3a03fd 	.word	0xdc3a03fd
   d7d3c:	3feec709 	.word	0x3feec709
   d7d40:	145b01f5 	.word	0x145b01f5
   d7d44:	be3e2fe0 	.word	0xbe3e2fe0
   d7d48:	7ff00000 	.word	0x7ff00000
   d7d4c:	43400000 	.word	0x43400000
   d7d50:	0003988e 	.word	0x0003988e
   d7d54:	000bb679 	.word	0x000bb679
   d7d58:	3ff00000 	.word	0x3ff00000
   d7d5c:	40080000 	.word	0x40080000
   d7d60:	9b03      	ldr	r3, [sp, #12]
   d7d62:	9a06      	ldr	r2, [sp, #24]
   d7d64:	3b01      	subs	r3, #1
   d7d66:	4313      	orrs	r3, r2
   d7d68:	f040 8178 	bne.w	d805c <__ieee754_pow+0x8bc>
   d7d6c:	ed9f 7bc4 	vldr	d7, [pc, #784]	; d8080 <__ieee754_pow+0x8e0>
   d7d70:	eeb0 9a47 	vmov.f32	s18, s14
   d7d74:	eef0 9a67 	vmov.f32	s19, s15
   d7d78:	2300      	movs	r3, #0
   d7d7a:	e9cd 6700 	strd	r6, r7, [sp]
   d7d7e:	9300      	str	r3, [sp, #0]
   d7d80:	e9dd 8900 	ldrd	r8, r9, [sp]
   d7d84:	4630      	mov	r0, r6
   d7d86:	4642      	mov	r2, r8
   d7d88:	4639      	mov	r1, r7
   d7d8a:	464b      	mov	r3, r9
   d7d8c:	f000 fcf2 	bl	d8774 <__aeabi_dsub>
   d7d90:	4622      	mov	r2, r4
   d7d92:	462b      	mov	r3, r5
   d7d94:	f000 fea6 	bl	d8ae4 <__aeabi_dmul>
   d7d98:	4632      	mov	r2, r6
   d7d9a:	463b      	mov	r3, r7
   d7d9c:	4606      	mov	r6, r0
   d7d9e:	460f      	mov	r7, r1
   d7da0:	4650      	mov	r0, sl
   d7da2:	4659      	mov	r1, fp
   d7da4:	f000 fe9e 	bl	d8ae4 <__aeabi_dmul>
   d7da8:	4602      	mov	r2, r0
   d7daa:	460b      	mov	r3, r1
   d7dac:	4630      	mov	r0, r6
   d7dae:	4639      	mov	r1, r7
   d7db0:	f000 fce2 	bl	d8778 <__adddf3>
   d7db4:	4642      	mov	r2, r8
   d7db6:	4682      	mov	sl, r0
   d7db8:	468b      	mov	fp, r1
   d7dba:	464b      	mov	r3, r9
   d7dbc:	4620      	mov	r0, r4
   d7dbe:	4629      	mov	r1, r5
   d7dc0:	f000 fe90 	bl	d8ae4 <__aeabi_dmul>
   d7dc4:	4606      	mov	r6, r0
   d7dc6:	460f      	mov	r7, r1
   d7dc8:	463b      	mov	r3, r7
   d7dca:	4650      	mov	r0, sl
   d7dcc:	4659      	mov	r1, fp
   d7dce:	4632      	mov	r2, r6
   d7dd0:	f000 fcd2 	bl	d8778 <__adddf3>
   d7dd4:	4bc4      	ldr	r3, [pc, #784]	; (d80e8 <__ieee754_pow+0x948>)
   d7dd6:	4299      	cmp	r1, r3
   d7dd8:	4604      	mov	r4, r0
   d7dda:	460d      	mov	r5, r1
   d7ddc:	4688      	mov	r8, r1
   d7dde:	f340 8117 	ble.w	d8010 <__ieee754_pow+0x870>
   d7de2:	f101 433f 	add.w	r3, r1, #3204448256	; 0xbf000000
   d7de6:	f503 03e0 	add.w	r3, r3, #7340032	; 0x700000
   d7dea:	4303      	orrs	r3, r0
   d7dec:	f040 822a 	bne.w	d8244 <__ieee754_pow+0xaa4>
   d7df0:	a3a5      	add	r3, pc, #660	; (adr r3, d8088 <__ieee754_pow+0x8e8>)
   d7df2:	e9d3 2300 	ldrd	r2, r3, [r3]
   d7df6:	4650      	mov	r0, sl
   d7df8:	4659      	mov	r1, fp
   d7dfa:	f000 fcbd 	bl	d8778 <__adddf3>
   d7dfe:	4632      	mov	r2, r6
   d7e00:	ec41 0b18 	vmov	d8, r0, r1
   d7e04:	463b      	mov	r3, r7
   d7e06:	4620      	mov	r0, r4
   d7e08:	4629      	mov	r1, r5
   d7e0a:	f000 fcb3 	bl	d8774 <__aeabi_dsub>
   d7e0e:	4602      	mov	r2, r0
   d7e10:	460b      	mov	r3, r1
   d7e12:	ec51 0b18 	vmov	r0, r1, d8
   d7e16:	f001 f8f5 	bl	d9004 <__aeabi_dcmpgt>
   d7e1a:	2800      	cmp	r0, #0
   d7e1c:	f040 8212 	bne.w	d8244 <__ieee754_pow+0xaa4>
   d7e20:	f3c8 530a 	ubfx	r3, r8, #20, #11
   d7e24:	f44f 1280 	mov.w	r2, #1048576	; 0x100000
   d7e28:	f2a3 33fe 	subw	r3, r3, #1022	; 0x3fe
   d7e2c:	fa42 f303 	asr.w	r3, r2, r3
   d7e30:	4443      	add	r3, r8
   d7e32:	49ae      	ldr	r1, [pc, #696]	; (d80ec <__ieee754_pow+0x94c>)
   d7e34:	f3c3 520a 	ubfx	r2, r3, #20, #11
   d7e38:	f2a2 32ff 	subw	r2, r2, #1023	; 0x3ff
   d7e3c:	fa41 fc02 	asr.w	ip, r1, r2
   d7e40:	f3c3 0513 	ubfx	r5, r3, #0, #20
   d7e44:	ea23 010c 	bic.w	r1, r3, ip
   d7e48:	f1c2 0414 	rsb	r4, r2, #20
   d7e4c:	f445 1580 	orr.w	r5, r5, #1048576	; 0x100000
   d7e50:	f1b8 0f00 	cmp.w	r8, #0
   d7e54:	460b      	mov	r3, r1
   d7e56:	fa45 f104 	asr.w	r1, r5, r4
   d7e5a:	9103      	str	r1, [sp, #12]
   d7e5c:	f04f 0000 	mov.w	r0, #0
   d7e60:	bfb8      	it	lt
   d7e62:	4249      	neglt	r1, r1
   d7e64:	4602      	mov	r2, r0
   d7e66:	bfb8      	it	lt
   d7e68:	9103      	strlt	r1, [sp, #12]
   d7e6a:	4630      	mov	r0, r6
   d7e6c:	4639      	mov	r1, r7
   d7e6e:	f000 fc81 	bl	d8774 <__aeabi_dsub>
   d7e72:	4606      	mov	r6, r0
   d7e74:	460f      	mov	r7, r1
   d7e76:	463b      	mov	r3, r7
   d7e78:	4650      	mov	r0, sl
   d7e7a:	4659      	mov	r1, fp
   d7e7c:	4632      	mov	r2, r6
   d7e7e:	f000 fc7b 	bl	d8778 <__adddf3>
   d7e82:	9b03      	ldr	r3, [sp, #12]
   d7e84:	051b      	lsls	r3, r3, #20
   d7e86:	9300      	str	r3, [sp, #0]
   d7e88:	460d      	mov	r5, r1
   d7e8a:	2400      	movs	r4, #0
   d7e8c:	a380      	add	r3, pc, #512	; (adr r3, d8090 <__ieee754_pow+0x8f0>)
   d7e8e:	e9d3 2300 	ldrd	r2, r3, [r3]
   d7e92:	4620      	mov	r0, r4
   d7e94:	4629      	mov	r1, r5
   d7e96:	f000 fe25 	bl	d8ae4 <__aeabi_dmul>
   d7e9a:	4632      	mov	r2, r6
   d7e9c:	4680      	mov	r8, r0
   d7e9e:	4689      	mov	r9, r1
   d7ea0:	463b      	mov	r3, r7
   d7ea2:	4620      	mov	r0, r4
   d7ea4:	4629      	mov	r1, r5
   d7ea6:	f000 fc65 	bl	d8774 <__aeabi_dsub>
   d7eaa:	4602      	mov	r2, r0
   d7eac:	460b      	mov	r3, r1
   d7eae:	4650      	mov	r0, sl
   d7eb0:	4659      	mov	r1, fp
   d7eb2:	f000 fc5f 	bl	d8774 <__aeabi_dsub>
   d7eb6:	a378      	add	r3, pc, #480	; (adr r3, d8098 <__ieee754_pow+0x8f8>)
   d7eb8:	e9d3 2300 	ldrd	r2, r3, [r3]
   d7ebc:	f000 fe12 	bl	d8ae4 <__aeabi_dmul>
   d7ec0:	a377      	add	r3, pc, #476	; (adr r3, d80a0 <__ieee754_pow+0x900>)
   d7ec2:	e9d3 2300 	ldrd	r2, r3, [r3]
   d7ec6:	4606      	mov	r6, r0
   d7ec8:	460f      	mov	r7, r1
   d7eca:	4620      	mov	r0, r4
   d7ecc:	4629      	mov	r1, r5
   d7ece:	f000 fe09 	bl	d8ae4 <__aeabi_dmul>
   d7ed2:	4602      	mov	r2, r0
   d7ed4:	460b      	mov	r3, r1
   d7ed6:	4630      	mov	r0, r6
   d7ed8:	4639      	mov	r1, r7
   d7eda:	f000 fc4d 	bl	d8778 <__adddf3>
   d7ede:	4606      	mov	r6, r0
   d7ee0:	460f      	mov	r7, r1
   d7ee2:	4632      	mov	r2, r6
   d7ee4:	463b      	mov	r3, r7
   d7ee6:	4640      	mov	r0, r8
   d7ee8:	4649      	mov	r1, r9
   d7eea:	f000 fc45 	bl	d8778 <__adddf3>
   d7eee:	4642      	mov	r2, r8
   d7ef0:	464b      	mov	r3, r9
   d7ef2:	4604      	mov	r4, r0
   d7ef4:	460d      	mov	r5, r1
   d7ef6:	f000 fc3d 	bl	d8774 <__aeabi_dsub>
   d7efa:	4602      	mov	r2, r0
   d7efc:	460b      	mov	r3, r1
   d7efe:	4630      	mov	r0, r6
   d7f00:	4639      	mov	r1, r7
   d7f02:	f000 fc37 	bl	d8774 <__aeabi_dsub>
   d7f06:	4622      	mov	r2, r4
   d7f08:	4682      	mov	sl, r0
   d7f0a:	468b      	mov	fp, r1
   d7f0c:	462b      	mov	r3, r5
   d7f0e:	4620      	mov	r0, r4
   d7f10:	4629      	mov	r1, r5
   d7f12:	f000 fde7 	bl	d8ae4 <__aeabi_dmul>
   d7f16:	a364      	add	r3, pc, #400	; (adr r3, d80a8 <__ieee754_pow+0x908>)
   d7f18:	e9d3 2300 	ldrd	r2, r3, [r3]
   d7f1c:	4606      	mov	r6, r0
   d7f1e:	460f      	mov	r7, r1
   d7f20:	f000 fde0 	bl	d8ae4 <__aeabi_dmul>
   d7f24:	a362      	add	r3, pc, #392	; (adr r3, d80b0 <__ieee754_pow+0x910>)
   d7f26:	e9d3 2300 	ldrd	r2, r3, [r3]
   d7f2a:	f000 fc23 	bl	d8774 <__aeabi_dsub>
   d7f2e:	4632      	mov	r2, r6
   d7f30:	463b      	mov	r3, r7
   d7f32:	f000 fdd7 	bl	d8ae4 <__aeabi_dmul>
   d7f36:	a360      	add	r3, pc, #384	; (adr r3, d80b8 <__ieee754_pow+0x918>)
   d7f38:	e9d3 2300 	ldrd	r2, r3, [r3]
   d7f3c:	f000 fc1c 	bl	d8778 <__adddf3>
   d7f40:	4632      	mov	r2, r6
   d7f42:	463b      	mov	r3, r7
   d7f44:	f000 fdce 	bl	d8ae4 <__aeabi_dmul>
   d7f48:	a35d      	add	r3, pc, #372	; (adr r3, d80c0 <__ieee754_pow+0x920>)
   d7f4a:	e9d3 2300 	ldrd	r2, r3, [r3]
   d7f4e:	f000 fc11 	bl	d8774 <__aeabi_dsub>
   d7f52:	4632      	mov	r2, r6
   d7f54:	463b      	mov	r3, r7
   d7f56:	f000 fdc5 	bl	d8ae4 <__aeabi_dmul>
   d7f5a:	a35b      	add	r3, pc, #364	; (adr r3, d80c8 <__ieee754_pow+0x928>)
   d7f5c:	e9d3 2300 	ldrd	r2, r3, [r3]
   d7f60:	f000 fc0a 	bl	d8778 <__adddf3>
   d7f64:	4632      	mov	r2, r6
   d7f66:	463b      	mov	r3, r7
   d7f68:	f000 fdbc 	bl	d8ae4 <__aeabi_dmul>
   d7f6c:	4602      	mov	r2, r0
   d7f6e:	460b      	mov	r3, r1
   d7f70:	4620      	mov	r0, r4
   d7f72:	4629      	mov	r1, r5
   d7f74:	f000 fbfe 	bl	d8774 <__aeabi_dsub>
   d7f78:	4606      	mov	r6, r0
   d7f7a:	460f      	mov	r7, r1
   d7f7c:	4632      	mov	r2, r6
   d7f7e:	463b      	mov	r3, r7
   d7f80:	4620      	mov	r0, r4
   d7f82:	4629      	mov	r1, r5
   d7f84:	f000 fdae 	bl	d8ae4 <__aeabi_dmul>
   d7f88:	2200      	movs	r2, #0
   d7f8a:	4680      	mov	r8, r0
   d7f8c:	4689      	mov	r9, r1
   d7f8e:	f04f 4380 	mov.w	r3, #1073741824	; 0x40000000
   d7f92:	4630      	mov	r0, r6
   d7f94:	4639      	mov	r1, r7
   d7f96:	f000 fbed 	bl	d8774 <__aeabi_dsub>
   d7f9a:	4602      	mov	r2, r0
   d7f9c:	460b      	mov	r3, r1
   d7f9e:	4640      	mov	r0, r8
   d7fa0:	4649      	mov	r1, r9
   d7fa2:	f000 fec9 	bl	d8d38 <__aeabi_ddiv>
   d7fa6:	4652      	mov	r2, sl
   d7fa8:	4606      	mov	r6, r0
   d7faa:	460f      	mov	r7, r1
   d7fac:	465b      	mov	r3, fp
   d7fae:	4620      	mov	r0, r4
   d7fb0:	4629      	mov	r1, r5
   d7fb2:	f000 fd97 	bl	d8ae4 <__aeabi_dmul>
   d7fb6:	4652      	mov	r2, sl
   d7fb8:	465b      	mov	r3, fp
   d7fba:	f000 fbdd 	bl	d8778 <__adddf3>
   d7fbe:	4602      	mov	r2, r0
   d7fc0:	460b      	mov	r3, r1
   d7fc2:	4630      	mov	r0, r6
   d7fc4:	4639      	mov	r1, r7
   d7fc6:	f000 fbd5 	bl	d8774 <__aeabi_dsub>
   d7fca:	4622      	mov	r2, r4
   d7fcc:	462b      	mov	r3, r5
   d7fce:	f000 fbd1 	bl	d8774 <__aeabi_dsub>
   d7fd2:	4602      	mov	r2, r0
   d7fd4:	460b      	mov	r3, r1
   d7fd6:	2000      	movs	r0, #0
   d7fd8:	4945      	ldr	r1, [pc, #276]	; (d80f0 <__ieee754_pow+0x950>)
   d7fda:	f000 fbcb 	bl	d8774 <__aeabi_dsub>
   d7fde:	460b      	mov	r3, r1
   d7fe0:	9900      	ldr	r1, [sp, #0]
   d7fe2:	4419      	add	r1, r3
   d7fe4:	f5b1 1f80 	cmp.w	r1, #1048576	; 0x100000
   d7fe8:	4602      	mov	r2, r0
   d7fea:	f2c0 8169 	blt.w	d82c0 <__ieee754_pow+0xb20>
   d7fee:	4610      	mov	r0, r2
   d7ff0:	ec53 2b19 	vmov	r2, r3, d9
   d7ff4:	f000 fd76 	bl	d8ae4 <__aeabi_dmul>
   d7ff8:	e9cd 0100 	strd	r0, r1, [sp]
   d7ffc:	e41e      	b.n	d783c <__ieee754_pow+0x9c>
   d7ffe:	f1bb 0f00 	cmp.w	fp, #0
   d8002:	f6ff ac95 	blt.w	d7930 <__ieee754_pow+0x190>
   d8006:	ed9f 7b32 	vldr	d7, [pc, #200]	; d80d0 <__ieee754_pow+0x930>
   d800a:	ed8d 7b00 	vstr	d7, [sp]
   d800e:	e415      	b.n	d783c <__ieee754_pow+0x9c>
   d8010:	f8df c0e4 	ldr.w	ip, [pc, #228]	; d80f8 <__ieee754_pow+0x958>
   d8014:	f021 4300 	bic.w	r3, r1, #2147483648	; 0x80000000
   d8018:	4563      	cmp	r3, ip
   d801a:	f340 810b 	ble.w	d8234 <__ieee754_pow+0xa94>
   d801e:	4b35      	ldr	r3, [pc, #212]	; (d80f4 <__ieee754_pow+0x954>)
   d8020:	440b      	add	r3, r1
   d8022:	4303      	orrs	r3, r0
   d8024:	d10a      	bne.n	d803c <__ieee754_pow+0x89c>
   d8026:	4632      	mov	r2, r6
   d8028:	463b      	mov	r3, r7
   d802a:	f000 fba3 	bl	d8774 <__aeabi_dsub>
   d802e:	4652      	mov	r2, sl
   d8030:	465b      	mov	r3, fp
   d8032:	f000 ffdd 	bl	d8ff0 <__aeabi_dcmpge>
   d8036:	2800      	cmp	r0, #0
   d8038:	f43f aef2 	beq.w	d7e20 <__ieee754_pow+0x680>
   d803c:	a326      	add	r3, pc, #152	; (adr r3, d80d8 <__ieee754_pow+0x938>)
   d803e:	e9d3 2300 	ldrd	r2, r3, [r3]
   d8042:	ec51 0b19 	vmov	r0, r1, d9
   d8046:	f000 fd4d 	bl	d8ae4 <__aeabi_dmul>
   d804a:	a323      	add	r3, pc, #140	; (adr r3, d80d8 <__ieee754_pow+0x938>)
   d804c:	e9d3 2300 	ldrd	r2, r3, [r3]
   d8050:	f000 fd48 	bl	d8ae4 <__aeabi_dmul>
   d8054:	e9cd 0100 	strd	r0, r1, [sp]
   d8058:	f7ff bbf0 	b.w	d783c <__ieee754_pow+0x9c>
   d805c:	ed9f 7b20 	vldr	d7, [pc, #128]	; d80e0 <__ieee754_pow+0x940>
   d8060:	eeb0 9a47 	vmov.f32	s18, s14
   d8064:	eef0 9a67 	vmov.f32	s19, s15
   d8068:	e686      	b.n	d7d78 <__ieee754_pow+0x5d8>
   d806a:	f1bb 0f00 	cmp.w	fp, #0
   d806e:	daca      	bge.n	d8006 <__ieee754_pow+0x866>
   d8070:	f107 4300 	add.w	r3, r7, #2147483648	; 0x80000000
   d8074:	9600      	str	r6, [sp, #0]
   d8076:	9301      	str	r3, [sp, #4]
   d8078:	f7ff bbe0 	b.w	d783c <__ieee754_pow+0x9c>
   d807c:	f3af 8000 	nop.w
   d8080:	00000000 	.word	0x00000000
   d8084:	bff00000 	.word	0xbff00000
   d8088:	652b82fe 	.word	0x652b82fe
   d808c:	3c971547 	.word	0x3c971547
   d8090:	00000000 	.word	0x00000000
   d8094:	3fe62e43 	.word	0x3fe62e43
   d8098:	fefa39ef 	.word	0xfefa39ef
   d809c:	3fe62e42 	.word	0x3fe62e42
   d80a0:	0ca86c39 	.word	0x0ca86c39
   d80a4:	be205c61 	.word	0xbe205c61
   d80a8:	72bea4d0 	.word	0x72bea4d0
   d80ac:	3e663769 	.word	0x3e663769
   d80b0:	c5d26bf1 	.word	0xc5d26bf1
   d80b4:	3ebbbd41 	.word	0x3ebbbd41
   d80b8:	af25de2c 	.word	0xaf25de2c
   d80bc:	3f11566a 	.word	0x3f11566a
   d80c0:	16bebd93 	.word	0x16bebd93
   d80c4:	3f66c16c 	.word	0x3f66c16c
   d80c8:	5555553e 	.word	0x5555553e
   d80cc:	3fc55555 	.word	0x3fc55555
	...
   d80d8:	c2f8f359 	.word	0xc2f8f359
   d80dc:	01a56e1f 	.word	0x01a56e1f
   d80e0:	00000000 	.word	0x00000000
   d80e4:	3ff00000 	.word	0x3ff00000
   d80e8:	408fffff 	.word	0x408fffff
   d80ec:	000fffff 	.word	0x000fffff
   d80f0:	3ff00000 	.word	0x3ff00000
   d80f4:	3f6f3400 	.word	0x3f6f3400
   d80f8:	4090cbff 	.word	0x4090cbff
   d80fc:	4598      	cmp	r8, r3
   d80fe:	f6ff af7e 	blt.w	d7ffe <__ieee754_pow+0x85e>
   d8102:	4b91      	ldr	r3, [pc, #580]	; (d8348 <__ieee754_pow+0xba8>)
   d8104:	4598      	cmp	r8, r3
   d8106:	f73f ac0f 	bgt.w	d7928 <__ieee754_pow+0x188>
   d810a:	4b8f      	ldr	r3, [pc, #572]	; (d8348 <__ieee754_pow+0xba8>)
   d810c:	2200      	movs	r2, #0
   d810e:	e9dd 0100 	ldrd	r0, r1, [sp]
   d8112:	f000 fb2f 	bl	d8774 <__aeabi_dsub>
   d8116:	a378      	add	r3, pc, #480	; (adr r3, d82f8 <__ieee754_pow+0xb58>)
   d8118:	e9d3 2300 	ldrd	r2, r3, [r3]
   d811c:	4604      	mov	r4, r0
   d811e:	460d      	mov	r5, r1
   d8120:	f000 fce0 	bl	d8ae4 <__aeabi_dmul>
   d8124:	a376      	add	r3, pc, #472	; (adr r3, d8300 <__ieee754_pow+0xb60>)
   d8126:	e9d3 2300 	ldrd	r2, r3, [r3]
   d812a:	4682      	mov	sl, r0
   d812c:	468b      	mov	fp, r1
   d812e:	4620      	mov	r0, r4
   d8130:	4629      	mov	r1, r5
   d8132:	f000 fcd7 	bl	d8ae4 <__aeabi_dmul>
   d8136:	4b85      	ldr	r3, [pc, #532]	; (d834c <__ieee754_pow+0xbac>)
   d8138:	4680      	mov	r8, r0
   d813a:	4689      	mov	r9, r1
   d813c:	2200      	movs	r2, #0
   d813e:	4620      	mov	r0, r4
   d8140:	4629      	mov	r1, r5
   d8142:	f000 fccf 	bl	d8ae4 <__aeabi_dmul>
   d8146:	4602      	mov	r2, r0
   d8148:	460b      	mov	r3, r1
   d814a:	a16f      	add	r1, pc, #444	; (adr r1, d8308 <__ieee754_pow+0xb68>)
   d814c:	e9d1 0100 	ldrd	r0, r1, [r1]
   d8150:	f000 fb10 	bl	d8774 <__aeabi_dsub>
   d8154:	4622      	mov	r2, r4
   d8156:	462b      	mov	r3, r5
   d8158:	f000 fcc4 	bl	d8ae4 <__aeabi_dmul>
   d815c:	4602      	mov	r2, r0
   d815e:	460b      	mov	r3, r1
   d8160:	2000      	movs	r0, #0
   d8162:	497b      	ldr	r1, [pc, #492]	; (d8350 <__ieee754_pow+0xbb0>)
   d8164:	f000 fb06 	bl	d8774 <__aeabi_dsub>
   d8168:	4622      	mov	r2, r4
   d816a:	462b      	mov	r3, r5
   d816c:	4604      	mov	r4, r0
   d816e:	460d      	mov	r5, r1
   d8170:	4610      	mov	r0, r2
   d8172:	4619      	mov	r1, r3
   d8174:	f000 fcb6 	bl	d8ae4 <__aeabi_dmul>
   d8178:	4602      	mov	r2, r0
   d817a:	460b      	mov	r3, r1
   d817c:	4620      	mov	r0, r4
   d817e:	4629      	mov	r1, r5
   d8180:	f000 fcb0 	bl	d8ae4 <__aeabi_dmul>
   d8184:	a362      	add	r3, pc, #392	; (adr r3, d8310 <__ieee754_pow+0xb70>)
   d8186:	e9d3 2300 	ldrd	r2, r3, [r3]
   d818a:	f000 fcab 	bl	d8ae4 <__aeabi_dmul>
   d818e:	4602      	mov	r2, r0
   d8190:	460b      	mov	r3, r1
   d8192:	4640      	mov	r0, r8
   d8194:	4649      	mov	r1, r9
   d8196:	f000 faed 	bl	d8774 <__aeabi_dsub>
   d819a:	4680      	mov	r8, r0
   d819c:	4689      	mov	r9, r1
   d819e:	4650      	mov	r0, sl
   d81a0:	4659      	mov	r1, fp
   d81a2:	4642      	mov	r2, r8
   d81a4:	464b      	mov	r3, r9
   d81a6:	f000 fae7 	bl	d8778 <__adddf3>
   d81aa:	2400      	movs	r4, #0
   d81ac:	4652      	mov	r2, sl
   d81ae:	465b      	mov	r3, fp
   d81b0:	4620      	mov	r0, r4
   d81b2:	460d      	mov	r5, r1
   d81b4:	f000 fade 	bl	d8774 <__aeabi_dsub>
   d81b8:	4602      	mov	r2, r0
   d81ba:	460b      	mov	r3, r1
   d81bc:	4640      	mov	r0, r8
   d81be:	4649      	mov	r1, r9
   d81c0:	f000 fad8 	bl	d8774 <__aeabi_dsub>
   d81c4:	4682      	mov	sl, r0
   d81c6:	468b      	mov	fp, r1
   d81c8:	e5ca      	b.n	d7d60 <__ieee754_pow+0x5c0>
   d81ca:	ed9f 7b53 	vldr	d7, [pc, #332]	; d8318 <__ieee754_pow+0xb78>
   d81ce:	eeb0 ba47 	vmov.f32	s22, s14
   d81d2:	eef0 ba67 	vmov.f32	s23, s15
   d81d6:	eeb0 ca47 	vmov.f32	s24, s14
   d81da:	eef0 ca67 	vmov.f32	s25, s15
   d81de:	ed9f 7b50 	vldr	d7, [pc, #320]	; d8320 <__ieee754_pow+0xb80>
   d81e2:	f04f 0900 	mov.w	r9, #0
   d81e6:	ec54 3b17 	vmov	r3, r4, d7
   d81ea:	e41d      	b.n	d7a28 <__ieee754_pow+0x288>
   d81ec:	2000      	movs	r0, #0
   d81ee:	f7ff bbf3 	b.w	d79d8 <__ieee754_pow+0x238>
   d81f2:	4955      	ldr	r1, [pc, #340]	; (d8348 <__ieee754_pow+0xba8>)
   d81f4:	4622      	mov	r2, r4
   d81f6:	462b      	mov	r3, r5
   d81f8:	2000      	movs	r0, #0
   d81fa:	f000 fd9d 	bl	d8d38 <__aeabi_ddiv>
   d81fe:	e9cd 0100 	strd	r0, r1, [sp]
   d8202:	f7ff bb1b 	b.w	d783c <__ieee754_pow+0x9c>
   d8206:	4622      	mov	r2, r4
   d8208:	462b      	mov	r3, r5
   d820a:	4620      	mov	r0, r4
   d820c:	4629      	mov	r1, r5
   d820e:	f000 fc69 	bl	d8ae4 <__aeabi_dmul>
   d8212:	e9cd 0100 	strd	r0, r1, [sp]
   d8216:	f7ff bb11 	b.w	d783c <__ieee754_pow+0x9c>
   d821a:	2b00      	cmp	r3, #0
   d821c:	d142      	bne.n	d82a4 <__ieee754_pow+0xb04>
   d821e:	f1c1 0114 	rsb	r1, r1, #20
   d8222:	fa4a f001 	asr.w	r0, sl, r1
   d8226:	fa00 f101 	lsl.w	r1, r0, r1
   d822a:	4551      	cmp	r1, sl
   d822c:	d05a      	beq.n	d82e4 <__ieee754_pow+0xb44>
   d822e:	9303      	str	r3, [sp, #12]
   d8230:	f7ff bae0 	b.w	d77f4 <__ieee754_pow+0x54>
   d8234:	4a46      	ldr	r2, [pc, #280]	; (d8350 <__ieee754_pow+0xbb0>)
   d8236:	4293      	cmp	r3, r2
   d8238:	dc5b      	bgt.n	d82f2 <__ieee754_pow+0xb52>
   d823a:	e9dd 1200 	ldrd	r1, r2, [sp]
   d823e:	9100      	str	r1, [sp, #0]
   d8240:	9103      	str	r1, [sp, #12]
   d8242:	e622      	b.n	d7e8a <__ieee754_pow+0x6ea>
   d8244:	a338      	add	r3, pc, #224	; (adr r3, d8328 <__ieee754_pow+0xb88>)
   d8246:	e9d3 2300 	ldrd	r2, r3, [r3]
   d824a:	ec51 0b19 	vmov	r0, r1, d9
   d824e:	f000 fc49 	bl	d8ae4 <__aeabi_dmul>
   d8252:	a335      	add	r3, pc, #212	; (adr r3, d8328 <__ieee754_pow+0xb88>)
   d8254:	e9d3 2300 	ldrd	r2, r3, [r3]
   d8258:	f000 fc44 	bl	d8ae4 <__aeabi_dmul>
   d825c:	e9cd 0100 	strd	r0, r1, [sp]
   d8260:	f7ff baec 	b.w	d783c <__ieee754_pow+0x9c>
   d8264:	9b03      	ldr	r3, [sp, #12]
   d8266:	2b01      	cmp	r3, #1
   d8268:	f47f aae8 	bne.w	d783c <__ieee754_pow+0x9c>
   d826c:	e9dd 2100 	ldrd	r2, r1, [sp]
   d8270:	f101 4300 	add.w	r3, r1, #2147483648	; 0x80000000
   d8274:	e9cd 2300 	strd	r2, r3, [sp]
   d8278:	f7ff bae0 	b.w	d783c <__ieee754_pow+0x9c>
   d827c:	ed9f 7b2c 	vldr	d7, [pc, #176]	; d8330 <__ieee754_pow+0xb90>
   d8280:	eeb0 ba47 	vmov.f32	s22, s14
   d8284:	eef0 ba67 	vmov.f32	s23, s15
   d8288:	ed9f 7b2b 	vldr	d7, [pc, #172]	; d8338 <__ieee754_pow+0xb98>
   d828c:	eeb0 ca47 	vmov.f32	s24, s14
   d8290:	eef0 ca67 	vmov.f32	s25, s15
   d8294:	ed9f 7b2a 	vldr	d7, [pc, #168]	; d8340 <__ieee754_pow+0xba0>
   d8298:	f44f 2980 	mov.w	r9, #262144	; 0x40000
   d829c:	ec54 3b17 	vmov	r3, r4, d7
   d82a0:	f7ff bbc2 	b.w	d7a28 <__ieee754_pow+0x288>
   d82a4:	ec45 4b10 	vmov	d0, r4, r5
   d82a8:	9203      	str	r2, [sp, #12]
   d82aa:	f000 f917 	bl	d84dc <fabs>
   d82ae:	9a03      	ldr	r2, [sp, #12]
   d82b0:	ed8d 0b00 	vstr	d0, [sp]
   d82b4:	2a00      	cmp	r2, #0
   d82b6:	f47f ab61 	bne.w	d797c <__ieee754_pow+0x1dc>
   d82ba:	9203      	str	r2, [sp, #12]
   d82bc:	f7ff baf5 	b.w	d78aa <__ieee754_pow+0x10a>
   d82c0:	9803      	ldr	r0, [sp, #12]
   d82c2:	ec43 2b10 	vmov	d0, r2, r3
   d82c6:	f000 f9bf 	bl	d8648 <scalbn>
   d82ca:	ec51 0b10 	vmov	r0, r1, d0
   d82ce:	e68f      	b.n	d7ff0 <__ieee754_pow+0x850>
   d82d0:	f000 0001 	and.w	r0, r0, #1
   d82d4:	f1c0 0102 	rsb	r1, r0, #2
   d82d8:	9103      	str	r1, [sp, #12]
   d82da:	2b00      	cmp	r3, #0
   d82dc:	f43f aa8a 	beq.w	d77f4 <__ieee754_pow+0x54>
   d82e0:	f7ff bada 	b.w	d7898 <__ieee754_pow+0xf8>
   d82e4:	f000 0001 	and.w	r0, r0, #1
   d82e8:	f1c0 0302 	rsb	r3, r0, #2
   d82ec:	9303      	str	r3, [sp, #12]
   d82ee:	f7ff ba81 	b.w	d77f4 <__ieee754_pow+0x54>
   d82f2:	151b      	asrs	r3, r3, #20
   d82f4:	e596      	b.n	d7e24 <__ieee754_pow+0x684>
   d82f6:	bf00      	nop
   d82f8:	60000000 	.word	0x60000000
   d82fc:	3ff71547 	.word	0x3ff71547
   d8300:	f85ddf44 	.word	0xf85ddf44
   d8304:	3e54ae0b 	.word	0x3e54ae0b
   d8308:	55555555 	.word	0x55555555
   d830c:	3fd55555 	.word	0x3fd55555
   d8310:	652b82fe 	.word	0x652b82fe
   d8314:	3ff71547 	.word	0x3ff71547
	...
   d8324:	3ff00000 	.word	0x3ff00000
   d8328:	8800759c 	.word	0x8800759c
   d832c:	7e37e43c 	.word	0x7e37e43c
   d8330:	40000000 	.word	0x40000000
   d8334:	3fe2b803 	.word	0x3fe2b803
   d8338:	43cfd006 	.word	0x43cfd006
   d833c:	3e4cfdeb 	.word	0x3e4cfdeb
   d8340:	00000000 	.word	0x00000000
   d8344:	3ff80000 	.word	0x3ff80000
   d8348:	3ff00000 	.word	0x3ff00000
   d834c:	3fd00000 	.word	0x3fd00000
   d8350:	3fe00000 	.word	0x3fe00000

000d8354 <__ieee754_sqrt>:
   d8354:	e92d 41f0 	stmdb	sp!, {r4, r5, r6, r7, r8, lr}
   d8358:	4a5f      	ldr	r2, [pc, #380]	; (d84d8 <__ieee754_sqrt+0x184>)
   d835a:	ec57 6b10 	vmov	r6, r7, d0
   d835e:	43ba      	bics	r2, r7
   d8360:	f000 8098 	beq.w	d8494 <__ieee754_sqrt+0x140>
   d8364:	2f00      	cmp	r7, #0
   d8366:	ee10 4a10 	vmov	r4, s0
   d836a:	463b      	mov	r3, r7
   d836c:	dd4e      	ble.n	d840c <__ieee754_sqrt+0xb8>
   d836e:	1539      	asrs	r1, r7, #20
   d8370:	d05b      	beq.n	d842a <__ieee754_sqrt+0xd6>
   d8372:	f3c3 0313 	ubfx	r3, r3, #0, #20
   d8376:	07ca      	lsls	r2, r1, #31
   d8378:	f443 1380 	orr.w	r3, r3, #1048576	; 0x100000
   d837c:	f2a1 3eff 	subw	lr, r1, #1023	; 0x3ff
   d8380:	d403      	bmi.n	d838a <__ieee754_sqrt+0x36>
   d8382:	005b      	lsls	r3, r3, #1
   d8384:	eb03 73d4 	add.w	r3, r3, r4, lsr #31
   d8388:	0064      	lsls	r4, r4, #1
   d838a:	0fe2      	lsrs	r2, r4, #31
   d838c:	f04f 0c00 	mov.w	ip, #0
   d8390:	eb02 0343 	add.w	r3, r2, r3, lsl #1
   d8394:	ea4f 0e6e 	mov.w	lr, lr, asr #1
   d8398:	0064      	lsls	r4, r4, #1
   d839a:	4666      	mov	r6, ip
   d839c:	2516      	movs	r5, #22
   d839e:	f44f 1200 	mov.w	r2, #2097152	; 0x200000
   d83a2:	18b1      	adds	r1, r6, r2
   d83a4:	4299      	cmp	r1, r3
   d83a6:	dc02      	bgt.n	d83ae <__ieee754_sqrt+0x5a>
   d83a8:	1a5b      	subs	r3, r3, r1
   d83aa:	188e      	adds	r6, r1, r2
   d83ac:	4494      	add	ip, r2
   d83ae:	005b      	lsls	r3, r3, #1
   d83b0:	3d01      	subs	r5, #1
   d83b2:	eb03 73d4 	add.w	r3, r3, r4, lsr #31
   d83b6:	ea4f 0252 	mov.w	r2, r2, lsr #1
   d83ba:	ea4f 0444 	mov.w	r4, r4, lsl #1
   d83be:	d1f0      	bne.n	d83a2 <__ieee754_sqrt+0x4e>
   d83c0:	462f      	mov	r7, r5
   d83c2:	2020      	movs	r0, #32
   d83c4:	f04f 4200 	mov.w	r2, #2147483648	; 0x80000000
   d83c8:	e009      	b.n	d83de <__ieee754_sqrt+0x8a>
   d83ca:	d03e      	beq.n	d844a <__ieee754_sqrt+0xf6>
   d83cc:	0fe1      	lsrs	r1, r4, #31
   d83ce:	3801      	subs	r0, #1
   d83d0:	ea4f 0252 	mov.w	r2, r2, lsr #1
   d83d4:	eb01 0343 	add.w	r3, r1, r3, lsl #1
   d83d8:	ea4f 0444 	mov.w	r4, r4, lsl #1
   d83dc:	d03e      	beq.n	d845c <__ieee754_sqrt+0x108>
   d83de:	42b3      	cmp	r3, r6
   d83e0:	eb02 0105 	add.w	r1, r2, r5
   d83e4:	ddf1      	ble.n	d83ca <__ieee754_sqrt+0x76>
   d83e6:	2900      	cmp	r1, #0
   d83e8:	eb01 0502 	add.w	r5, r1, r2
   d83ec:	db09      	blt.n	d8402 <__ieee754_sqrt+0xae>
   d83ee:	46b0      	mov	r8, r6
   d83f0:	1b9b      	subs	r3, r3, r6
   d83f2:	42a1      	cmp	r1, r4
   d83f4:	bf88      	it	hi
   d83f6:	f103 33ff 	addhi.w	r3, r3, #4294967295	; 0xffffffff
   d83fa:	1a64      	subs	r4, r4, r1
   d83fc:	4417      	add	r7, r2
   d83fe:	4646      	mov	r6, r8
   d8400:	e7e4      	b.n	d83cc <__ieee754_sqrt+0x78>
   d8402:	2d00      	cmp	r5, #0
   d8404:	dbf3      	blt.n	d83ee <__ieee754_sqrt+0x9a>
   d8406:	f106 0801 	add.w	r8, r6, #1
   d840a:	e7f1      	b.n	d83f0 <__ieee754_sqrt+0x9c>
   d840c:	f027 4200 	bic.w	r2, r7, #2147483648	; 0x80000000
   d8410:	4332      	orrs	r2, r6
   d8412:	d036      	beq.n	d8482 <__ieee754_sqrt+0x12e>
   d8414:	2f00      	cmp	r7, #0
   d8416:	d14d      	bne.n	d84b4 <__ieee754_sqrt+0x160>
   d8418:	4639      	mov	r1, r7
   d841a:	0ae2      	lsrs	r2, r4, #11
   d841c:	3915      	subs	r1, #21
   d841e:	0564      	lsls	r4, r4, #21
   d8420:	4613      	mov	r3, r2
   d8422:	2a00      	cmp	r2, #0
   d8424:	d0f9      	beq.n	d841a <__ieee754_sqrt+0xc6>
   d8426:	02d7      	lsls	r7, r2, #11
   d8428:	d451      	bmi.n	d84ce <__ieee754_sqrt+0x17a>
   d842a:	2000      	movs	r0, #0
   d842c:	005b      	lsls	r3, r3, #1
   d842e:	02de      	lsls	r6, r3, #11
   d8430:	4605      	mov	r5, r0
   d8432:	f100 0001 	add.w	r0, r0, #1
   d8436:	d5f9      	bpl.n	d842c <__ieee754_sqrt+0xd8>
   d8438:	461a      	mov	r2, r3
   d843a:	4623      	mov	r3, r4
   d843c:	4084      	lsls	r4, r0
   d843e:	f1c0 0020 	rsb	r0, r0, #32
   d8442:	40c3      	lsrs	r3, r0
   d8444:	4313      	orrs	r3, r2
   d8446:	1b49      	subs	r1, r1, r5
   d8448:	e793      	b.n	d8372 <__ieee754_sqrt+0x1e>
   d844a:	42a1      	cmp	r1, r4
   d844c:	d8be      	bhi.n	d83cc <__ieee754_sqrt+0x78>
   d844e:	2900      	cmp	r1, #0
   d8450:	eb01 0502 	add.w	r5, r1, r2
   d8454:	dbd5      	blt.n	d8402 <__ieee754_sqrt+0xae>
   d8456:	4698      	mov	r8, r3
   d8458:	2300      	movs	r3, #0
   d845a:	e7ce      	b.n	d83fa <__ieee754_sqrt+0xa6>
   d845c:	4323      	orrs	r3, r4
   d845e:	d112      	bne.n	d8486 <__ieee754_sqrt+0x132>
   d8460:	0878      	lsrs	r0, r7, #1
   d8462:	ea4f 016c 	mov.w	r1, ip, asr #1
   d8466:	f101 517f 	add.w	r1, r1, #1069547520	; 0x3fc00000
   d846a:	f01c 0f01 	tst.w	ip, #1
   d846e:	f501 1100 	add.w	r1, r1, #2097152	; 0x200000
   d8472:	bf18      	it	ne
   d8474:	f040 4000 	orrne.w	r0, r0, #2147483648	; 0x80000000
   d8478:	eb01 530e 	add.w	r3, r1, lr, lsl #20
   d847c:	4602      	mov	r2, r0
   d847e:	ec43 2b10 	vmov	d0, r2, r3
   d8482:	e8bd 81f0 	ldmia.w	sp!, {r4, r5, r6, r7, r8, pc}
   d8486:	1c7b      	adds	r3, r7, #1
   d8488:	bf16      	itet	ne
   d848a:	1c78      	addne	r0, r7, #1
   d848c:	f10c 0c01 	addeq.w	ip, ip, #1
   d8490:	0840      	lsrne	r0, r0, #1
   d8492:	e7e6      	b.n	d8462 <__ieee754_sqrt+0x10e>
   d8494:	ee10 2a10 	vmov	r2, s0
   d8498:	ee10 0a10 	vmov	r0, s0
   d849c:	463b      	mov	r3, r7
   d849e:	4639      	mov	r1, r7
   d84a0:	f000 fb20 	bl	d8ae4 <__aeabi_dmul>
   d84a4:	4632      	mov	r2, r6
   d84a6:	463b      	mov	r3, r7
   d84a8:	f000 f966 	bl	d8778 <__adddf3>
   d84ac:	ec41 0b10 	vmov	d0, r0, r1
   d84b0:	e8bd 81f0 	ldmia.w	sp!, {r4, r5, r6, r7, r8, pc}
   d84b4:	ee10 2a10 	vmov	r2, s0
   d84b8:	4630      	mov	r0, r6
   d84ba:	4639      	mov	r1, r7
   d84bc:	f000 f95a 	bl	d8774 <__aeabi_dsub>
   d84c0:	4602      	mov	r2, r0
   d84c2:	460b      	mov	r3, r1
   d84c4:	f000 fc38 	bl	d8d38 <__aeabi_ddiv>
   d84c8:	ec41 0b10 	vmov	d0, r0, r1
   d84cc:	e7d9      	b.n	d8482 <__ieee754_sqrt+0x12e>
   d84ce:	4623      	mov	r3, r4
   d84d0:	2020      	movs	r0, #32
   d84d2:	f04f 35ff 	mov.w	r5, #4294967295	; 0xffffffff
   d84d6:	e7b4      	b.n	d8442 <__ieee754_sqrt+0xee>
   d84d8:	7ff00000 	.word	0x7ff00000

000d84dc <fabs>:
   d84dc:	ec51 0b10 	vmov	r0, r1, d0
   d84e0:	ee10 2a10 	vmov	r2, s0
   d84e4:	f021 4300 	bic.w	r3, r1, #2147483648	; 0x80000000
   d84e8:	ec43 2b10 	vmov	d0, r2, r3
   d84ec:	4770      	bx	lr
   d84ee:	bf00      	nop

000d84f0 <finite>:
   d84f0:	b082      	sub	sp, #8
   d84f2:	ed8d 0b00 	vstr	d0, [sp]
   d84f6:	9801      	ldr	r0, [sp, #4]
   d84f8:	f040 4000 	orr.w	r0, r0, #2147483648	; 0x80000000
   d84fc:	f500 1080 	add.w	r0, r0, #1048576	; 0x100000
   d8500:	0fc0      	lsrs	r0, r0, #31
   d8502:	b002      	add	sp, #8
   d8504:	4770      	bx	lr
   d8506:	bf00      	nop

000d8508 <matherr>:
   d8508:	2000      	movs	r0, #0
   d850a:	4770      	bx	lr
   d850c:	0000      	movs	r0, r0
	...

000d8510 <nan>:
   d8510:	ed9f 0b01 	vldr	d0, [pc, #4]	; d8518 <nan+0x8>
   d8514:	4770      	bx	lr
   d8516:	bf00      	nop
   d8518:	00000000 	.word	0x00000000
   d851c:	7ff80000 	.word	0x7ff80000

000d8520 <rint>:
   d8520:	b5f0      	push	{r4, r5, r6, r7, lr}
   d8522:	ec53 2b10 	vmov	r2, r3, d0
   d8526:	f3c3 560a 	ubfx	r6, r3, #20, #11
   d852a:	f2a6 30ff 	subw	r0, r6, #1023	; 0x3ff
   d852e:	2813      	cmp	r0, #19
   d8530:	ee10 5a10 	vmov	r5, s0
   d8534:	b083      	sub	sp, #12
   d8536:	4619      	mov	r1, r3
   d8538:	ea4f 74d3 	mov.w	r4, r3, lsr #31
   d853c:	dc31      	bgt.n	d85a2 <rint+0x82>
   d853e:	2800      	cmp	r0, #0
   d8540:	db4c      	blt.n	d85dc <rint+0xbc>
   d8542:	4e3e      	ldr	r6, [pc, #248]	; (d863c <rint+0x11c>)
   d8544:	4106      	asrs	r6, r0
   d8546:	ea03 0706 	and.w	r7, r3, r6
   d854a:	4317      	orrs	r7, r2
   d854c:	d02e      	beq.n	d85ac <rint+0x8c>
   d854e:	ea03 0356 	and.w	r3, r3, r6, lsr #1
   d8552:	431d      	orrs	r5, r3
   d8554:	ea4f 0656 	mov.w	r6, r6, lsr #1
   d8558:	d00c      	beq.n	d8574 <rint+0x54>
   d855a:	f44f 2380 	mov.w	r3, #262144	; 0x40000
   d855e:	2813      	cmp	r0, #19
   d8560:	ea21 0606 	bic.w	r6, r1, r6
   d8564:	fa43 f100 	asr.w	r1, r3, r0
   d8568:	ea41 0106 	orr.w	r1, r1, r6
   d856c:	bf0c      	ite	eq
   d856e:	f04f 4500 	moveq.w	r5, #2147483648	; 0x80000000
   d8572:	2500      	movne	r5, #0
   d8574:	4832      	ldr	r0, [pc, #200]	; (d8640 <rint+0x120>)
   d8576:	eb00 04c4 	add.w	r4, r0, r4, lsl #3
   d857a:	462a      	mov	r2, r5
   d857c:	e9d4 4500 	ldrd	r4, r5, [r4]
   d8580:	460b      	mov	r3, r1
   d8582:	4620      	mov	r0, r4
   d8584:	4629      	mov	r1, r5
   d8586:	f000 f8f7 	bl	d8778 <__adddf3>
   d858a:	e9cd 0100 	strd	r0, r1, [sp]
   d858e:	e9dd 0100 	ldrd	r0, r1, [sp]
   d8592:	4622      	mov	r2, r4
   d8594:	462b      	mov	r3, r5
   d8596:	f000 f8ed 	bl	d8774 <__aeabi_dsub>
   d859a:	ec41 0b10 	vmov	d0, r0, r1
   d859e:	b003      	add	sp, #12
   d85a0:	bdf0      	pop	{r4, r5, r6, r7, pc}
   d85a2:	2833      	cmp	r0, #51	; 0x33
   d85a4:	dd06      	ble.n	d85b4 <rint+0x94>
   d85a6:	f5b0 6f80 	cmp.w	r0, #1024	; 0x400
   d85aa:	d040      	beq.n	d862e <rint+0x10e>
   d85ac:	ec43 2b10 	vmov	d0, r2, r3
   d85b0:	b003      	add	sp, #12
   d85b2:	bdf0      	pop	{r4, r5, r6, r7, pc}
   d85b4:	f2a6 4613 	subw	r6, r6, #1043	; 0x413
   d85b8:	f04f 30ff 	mov.w	r0, #4294967295	; 0xffffffff
   d85bc:	40f0      	lsrs	r0, r6
   d85be:	4202      	tst	r2, r0
   d85c0:	d0f4      	beq.n	d85ac <rint+0x8c>
   d85c2:	ea15 0250 	ands.w	r2, r5, r0, lsr #1
   d85c6:	ea4f 0350 	mov.w	r3, r0, lsr #1
   d85ca:	d0d3      	beq.n	d8574 <rint+0x54>
   d85cc:	f04f 4280 	mov.w	r2, #1073741824	; 0x40000000
   d85d0:	ea25 0503 	bic.w	r5, r5, r3
   d85d4:	fa42 f606 	asr.w	r6, r2, r6
   d85d8:	4335      	orrs	r5, r6
   d85da:	e7cb      	b.n	d8574 <rint+0x54>
   d85dc:	f023 4000 	bic.w	r0, r3, #2147483648	; 0x80000000
   d85e0:	4310      	orrs	r0, r2
   d85e2:	d0e3      	beq.n	d85ac <rint+0x8c>
   d85e4:	f3c3 0013 	ubfx	r0, r3, #0, #20
   d85e8:	4310      	orrs	r0, r2
   d85ea:	4245      	negs	r5, r0
   d85ec:	4305      	orrs	r5, r0
   d85ee:	4814      	ldr	r0, [pc, #80]	; (d8640 <rint+0x120>)
   d85f0:	eb00 00c4 	add.w	r0, r0, r4, lsl #3
   d85f4:	e9d0 6700 	ldrd	r6, r7, [r0]
   d85f8:	0c59      	lsrs	r1, r3, #17
   d85fa:	0b2d      	lsrs	r5, r5, #12
   d85fc:	0449      	lsls	r1, r1, #17
   d85fe:	f405 2500 	and.w	r5, r5, #524288	; 0x80000
   d8602:	ea45 0301 	orr.w	r3, r5, r1
   d8606:	4630      	mov	r0, r6
   d8608:	4639      	mov	r1, r7
   d860a:	f000 f8b5 	bl	d8778 <__adddf3>
   d860e:	e9cd 0100 	strd	r0, r1, [sp]
   d8612:	463b      	mov	r3, r7
   d8614:	e9dd 0100 	ldrd	r0, r1, [sp]
   d8618:	4632      	mov	r2, r6
   d861a:	f000 f8ab 	bl	d8774 <__aeabi_dsub>
   d861e:	f021 4300 	bic.w	r3, r1, #2147483648	; 0x80000000
   d8622:	ea43 71c4 	orr.w	r1, r3, r4, lsl #31
   d8626:	ec41 0b10 	vmov	d0, r0, r1
   d862a:	b003      	add	sp, #12
   d862c:	bdf0      	pop	{r4, r5, r6, r7, pc}
   d862e:	ee10 0a10 	vmov	r0, s0
   d8632:	f000 f8a1 	bl	d8778 <__adddf3>
   d8636:	ec41 0b10 	vmov	d0, r0, r1
   d863a:	e7b9      	b.n	d85b0 <rint+0x90>
   d863c:	000fffff 	.word	0x000fffff
   d8640:	000d96b8 	.word	0x000d96b8
   d8644:	00000000 	.word	0x00000000

000d8648 <scalbn>:
   d8648:	b538      	push	{r3, r4, r5, lr}
   d864a:	ec53 2b10 	vmov	r2, r3, d0
   d864e:	f3c3 510a 	ubfx	r1, r3, #20, #11
   d8652:	461c      	mov	r4, r3
   d8654:	4605      	mov	r5, r0
   d8656:	bb81      	cbnz	r1, d86ba <scalbn+0x72>
   d8658:	ee10 1a10 	vmov	r1, s0
   d865c:	f023 4400 	bic.w	r4, r3, #2147483648	; 0x80000000
   d8660:	4321      	orrs	r1, r4
   d8662:	d029      	beq.n	d86b8 <scalbn+0x70>
   d8664:	4619      	mov	r1, r3
   d8666:	2200      	movs	r2, #0
   d8668:	4b3d      	ldr	r3, [pc, #244]	; (d8760 <scalbn+0x118>)
   d866a:	4c3e      	ldr	r4, [pc, #248]	; (d8764 <scalbn+0x11c>)
   d866c:	ee10 0a10 	vmov	r0, s0
   d8670:	f000 fa38 	bl	d8ae4 <__aeabi_dmul>
   d8674:	42a5      	cmp	r5, r4
   d8676:	4602      	mov	r2, r0
   d8678:	460b      	mov	r3, r1
   d867a:	db16      	blt.n	d86aa <scalbn+0x62>
   d867c:	460c      	mov	r4, r1
   d867e:	f3c1 510a 	ubfx	r1, r1, #20, #11
   d8682:	3936      	subs	r1, #54	; 0x36
   d8684:	4429      	add	r1, r5
   d8686:	f240 70fe 	movw	r0, #2046	; 0x7fe
   d868a:	4281      	cmp	r1, r0
   d868c:	dc21      	bgt.n	d86d2 <scalbn+0x8a>
   d868e:	2900      	cmp	r1, #0
   d8690:	dc47      	bgt.n	d8722 <scalbn+0xda>
   d8692:	f111 0f35 	cmn.w	r1, #53	; 0x35
   d8696:	da34      	bge.n	d8702 <scalbn+0xba>
   d8698:	f24c 3150 	movw	r1, #50000	; 0xc350
   d869c:	428d      	cmp	r5, r1
   d869e:	dc18      	bgt.n	d86d2 <scalbn+0x8a>
   d86a0:	2b00      	cmp	r3, #0
   d86a2:	a127      	add	r1, pc, #156	; (adr r1, d8740 <scalbn+0xf8>)
   d86a4:	e9d1 0100 	ldrd	r0, r1, [r1]
   d86a8:	db44      	blt.n	d8734 <scalbn+0xec>
   d86aa:	a325      	add	r3, pc, #148	; (adr r3, d8740 <scalbn+0xf8>)
   d86ac:	e9d3 2300 	ldrd	r2, r3, [r3]
   d86b0:	f000 fa18 	bl	d8ae4 <__aeabi_dmul>
   d86b4:	ec41 0b10 	vmov	d0, r0, r1
   d86b8:	bd38      	pop	{r3, r4, r5, pc}
   d86ba:	f240 70ff 	movw	r0, #2047	; 0x7ff
   d86be:	4281      	cmp	r1, r0
   d86c0:	d1e0      	bne.n	d8684 <scalbn+0x3c>
   d86c2:	ee10 0a10 	vmov	r0, s0
   d86c6:	4619      	mov	r1, r3
   d86c8:	f000 f856 	bl	d8778 <__adddf3>
   d86cc:	ec41 0b10 	vmov	d0, r0, r1
   d86d0:	bd38      	pop	{r3, r4, r5, pc}
   d86d2:	2b00      	cmp	r3, #0
   d86d4:	a11c      	add	r1, pc, #112	; (adr r1, d8748 <scalbn+0x100>)
   d86d6:	e9d1 0100 	ldrd	r0, r1, [r1]
   d86da:	db07      	blt.n	d86ec <scalbn+0xa4>
   d86dc:	a31a      	add	r3, pc, #104	; (adr r3, d8748 <scalbn+0x100>)
   d86de:	e9d3 2300 	ldrd	r2, r3, [r3]
   d86e2:	f000 f9ff 	bl	d8ae4 <__aeabi_dmul>
   d86e6:	ec41 0b10 	vmov	d0, r0, r1
   d86ea:	bd38      	pop	{r3, r4, r5, pc}
   d86ec:	a118      	add	r1, pc, #96	; (adr r1, d8750 <scalbn+0x108>)
   d86ee:	e9d1 0100 	ldrd	r0, r1, [r1]
   d86f2:	a315      	add	r3, pc, #84	; (adr r3, d8748 <scalbn+0x100>)
   d86f4:	e9d3 2300 	ldrd	r2, r3, [r3]
   d86f8:	f000 f9f4 	bl	d8ae4 <__aeabi_dmul>
   d86fc:	ec41 0b10 	vmov	d0, r0, r1
   d8700:	e7f3      	b.n	d86ea <scalbn+0xa2>
   d8702:	f024 44ff 	bic.w	r4, r4, #2139095040	; 0x7f800000
   d8706:	f424 04e0 	bic.w	r4, r4, #7340032	; 0x700000
   d870a:	3136      	adds	r1, #54	; 0x36
   d870c:	ea44 5301 	orr.w	r3, r4, r1, lsl #20
   d8710:	4610      	mov	r0, r2
   d8712:	4619      	mov	r1, r3
   d8714:	2200      	movs	r2, #0
   d8716:	4b14      	ldr	r3, [pc, #80]	; (d8768 <scalbn+0x120>)
   d8718:	f000 f9e4 	bl	d8ae4 <__aeabi_dmul>
   d871c:	ec41 0b10 	vmov	d0, r0, r1
   d8720:	bd38      	pop	{r3, r4, r5, pc}
   d8722:	f024 44ff 	bic.w	r4, r4, #2139095040	; 0x7f800000
   d8726:	f424 04e0 	bic.w	r4, r4, #7340032	; 0x700000
   d872a:	ea44 5301 	orr.w	r3, r4, r1, lsl #20
   d872e:	ec43 2b10 	vmov	d0, r2, r3
   d8732:	bd38      	pop	{r3, r4, r5, pc}
   d8734:	a108      	add	r1, pc, #32	; (adr r1, d8758 <scalbn+0x110>)
   d8736:	e9d1 0100 	ldrd	r0, r1, [r1]
   d873a:	e7b6      	b.n	d86aa <scalbn+0x62>
   d873c:	f3af 8000 	nop.w
   d8740:	c2f8f359 	.word	0xc2f8f359
   d8744:	01a56e1f 	.word	0x01a56e1f
   d8748:	8800759c 	.word	0x8800759c
   d874c:	7e37e43c 	.word	0x7e37e43c
   d8750:	8800759c 	.word	0x8800759c
   d8754:	fe37e43c 	.word	0xfe37e43c
   d8758:	c2f8f359 	.word	0xc2f8f359
   d875c:	81a56e1f 	.word	0x81a56e1f
   d8760:	43500000 	.word	0x43500000
   d8764:	ffff3cb0 	.word	0xffff3cb0
   d8768:	3c900000 	.word	0x3c900000

000d876c <__aeabi_drsub>:
   d876c:	f081 4100 	eor.w	r1, r1, #2147483648	; 0x80000000
   d8770:	e002      	b.n	d8778 <__adddf3>
   d8772:	bf00      	nop

000d8774 <__aeabi_dsub>:
   d8774:	f083 4300 	eor.w	r3, r3, #2147483648	; 0x80000000

000d8778 <__adddf3>:
   d8778:	b530      	push	{r4, r5, lr}
   d877a:	ea4f 0441 	mov.w	r4, r1, lsl #1
   d877e:	ea4f 0543 	mov.w	r5, r3, lsl #1
   d8782:	ea94 0f05 	teq	r4, r5
   d8786:	bf08      	it	eq
   d8788:	ea90 0f02 	teqeq	r0, r2
   d878c:	bf1f      	itttt	ne
   d878e:	ea54 0c00 	orrsne.w	ip, r4, r0
   d8792:	ea55 0c02 	orrsne.w	ip, r5, r2
   d8796:	ea7f 5c64 	mvnsne.w	ip, r4, asr #21
   d879a:	ea7f 5c65 	mvnsne.w	ip, r5, asr #21
   d879e:	f000 80e2 	beq.w	d8966 <__adddf3+0x1ee>
   d87a2:	ea4f 5454 	mov.w	r4, r4, lsr #21
   d87a6:	ebd4 5555 	rsbs	r5, r4, r5, lsr #21
   d87aa:	bfb8      	it	lt
   d87ac:	426d      	neglt	r5, r5
   d87ae:	dd0c      	ble.n	d87ca <__adddf3+0x52>
   d87b0:	442c      	add	r4, r5
   d87b2:	ea80 0202 	eor.w	r2, r0, r2
   d87b6:	ea81 0303 	eor.w	r3, r1, r3
   d87ba:	ea82 0000 	eor.w	r0, r2, r0
   d87be:	ea83 0101 	eor.w	r1, r3, r1
   d87c2:	ea80 0202 	eor.w	r2, r0, r2
   d87c6:	ea81 0303 	eor.w	r3, r1, r3
   d87ca:	2d36      	cmp	r5, #54	; 0x36
   d87cc:	bf88      	it	hi
   d87ce:	bd30      	pophi	{r4, r5, pc}
   d87d0:	f011 4f00 	tst.w	r1, #2147483648	; 0x80000000
   d87d4:	ea4f 3101 	mov.w	r1, r1, lsl #12
   d87d8:	f44f 1c80 	mov.w	ip, #1048576	; 0x100000
   d87dc:	ea4c 3111 	orr.w	r1, ip, r1, lsr #12
   d87e0:	d002      	beq.n	d87e8 <__adddf3+0x70>
   d87e2:	4240      	negs	r0, r0
   d87e4:	eb61 0141 	sbc.w	r1, r1, r1, lsl #1
   d87e8:	f013 4f00 	tst.w	r3, #2147483648	; 0x80000000
   d87ec:	ea4f 3303 	mov.w	r3, r3, lsl #12
   d87f0:	ea4c 3313 	orr.w	r3, ip, r3, lsr #12
   d87f4:	d002      	beq.n	d87fc <__adddf3+0x84>
   d87f6:	4252      	negs	r2, r2
   d87f8:	eb63 0343 	sbc.w	r3, r3, r3, lsl #1
   d87fc:	ea94 0f05 	teq	r4, r5
   d8800:	f000 80a7 	beq.w	d8952 <__adddf3+0x1da>
   d8804:	f1a4 0401 	sub.w	r4, r4, #1
   d8808:	f1d5 0e20 	rsbs	lr, r5, #32
   d880c:	db0d      	blt.n	d882a <__adddf3+0xb2>
   d880e:	fa02 fc0e 	lsl.w	ip, r2, lr
   d8812:	fa22 f205 	lsr.w	r2, r2, r5
   d8816:	1880      	adds	r0, r0, r2
   d8818:	f141 0100 	adc.w	r1, r1, #0
   d881c:	fa03 f20e 	lsl.w	r2, r3, lr
   d8820:	1880      	adds	r0, r0, r2
   d8822:	fa43 f305 	asr.w	r3, r3, r5
   d8826:	4159      	adcs	r1, r3
   d8828:	e00e      	b.n	d8848 <__adddf3+0xd0>
   d882a:	f1a5 0520 	sub.w	r5, r5, #32
   d882e:	f10e 0e20 	add.w	lr, lr, #32
   d8832:	2a01      	cmp	r2, #1
   d8834:	fa03 fc0e 	lsl.w	ip, r3, lr
   d8838:	bf28      	it	cs
   d883a:	f04c 0c02 	orrcs.w	ip, ip, #2
   d883e:	fa43 f305 	asr.w	r3, r3, r5
   d8842:	18c0      	adds	r0, r0, r3
   d8844:	eb51 71e3 	adcs.w	r1, r1, r3, asr #31
   d8848:	f001 4500 	and.w	r5, r1, #2147483648	; 0x80000000
   d884c:	d507      	bpl.n	d885e <__adddf3+0xe6>
   d884e:	f04f 0e00 	mov.w	lr, #0
   d8852:	f1dc 0c00 	rsbs	ip, ip, #0
   d8856:	eb7e 0000 	sbcs.w	r0, lr, r0
   d885a:	eb6e 0101 	sbc.w	r1, lr, r1
   d885e:	f5b1 1f80 	cmp.w	r1, #1048576	; 0x100000
   d8862:	d31b      	bcc.n	d889c <__adddf3+0x124>
   d8864:	f5b1 1f00 	cmp.w	r1, #2097152	; 0x200000
   d8868:	d30c      	bcc.n	d8884 <__adddf3+0x10c>
   d886a:	0849      	lsrs	r1, r1, #1
   d886c:	ea5f 0030 	movs.w	r0, r0, rrx
   d8870:	ea4f 0c3c 	mov.w	ip, ip, rrx
   d8874:	f104 0401 	add.w	r4, r4, #1
   d8878:	ea4f 5244 	mov.w	r2, r4, lsl #21
   d887c:	f512 0f80 	cmn.w	r2, #4194304	; 0x400000
   d8880:	f080 809a 	bcs.w	d89b8 <__adddf3+0x240>
   d8884:	f1bc 4f00 	cmp.w	ip, #2147483648	; 0x80000000
   d8888:	bf08      	it	eq
   d888a:	ea5f 0c50 	movseq.w	ip, r0, lsr #1
   d888e:	f150 0000 	adcs.w	r0, r0, #0
   d8892:	eb41 5104 	adc.w	r1, r1, r4, lsl #20
   d8896:	ea41 0105 	orr.w	r1, r1, r5
   d889a:	bd30      	pop	{r4, r5, pc}
   d889c:	ea5f 0c4c 	movs.w	ip, ip, lsl #1
   d88a0:	4140      	adcs	r0, r0
   d88a2:	eb41 0101 	adc.w	r1, r1, r1
   d88a6:	3c01      	subs	r4, #1
   d88a8:	bf28      	it	cs
   d88aa:	f5b1 1f80 	cmpcs.w	r1, #1048576	; 0x100000
   d88ae:	d2e9      	bcs.n	d8884 <__adddf3+0x10c>
   d88b0:	f091 0f00 	teq	r1, #0
   d88b4:	bf04      	itt	eq
   d88b6:	4601      	moveq	r1, r0
   d88b8:	2000      	moveq	r0, #0
   d88ba:	fab1 f381 	clz	r3, r1
   d88be:	bf08      	it	eq
   d88c0:	3320      	addeq	r3, #32
   d88c2:	f1a3 030b 	sub.w	r3, r3, #11
   d88c6:	f1b3 0220 	subs.w	r2, r3, #32
   d88ca:	da0c      	bge.n	d88e6 <__adddf3+0x16e>
   d88cc:	320c      	adds	r2, #12
   d88ce:	dd08      	ble.n	d88e2 <__adddf3+0x16a>
   d88d0:	f102 0c14 	add.w	ip, r2, #20
   d88d4:	f1c2 020c 	rsb	r2, r2, #12
   d88d8:	fa01 f00c 	lsl.w	r0, r1, ip
   d88dc:	fa21 f102 	lsr.w	r1, r1, r2
   d88e0:	e00c      	b.n	d88fc <__adddf3+0x184>
   d88e2:	f102 0214 	add.w	r2, r2, #20
   d88e6:	bfd8      	it	le
   d88e8:	f1c2 0c20 	rsble	ip, r2, #32
   d88ec:	fa01 f102 	lsl.w	r1, r1, r2
   d88f0:	fa20 fc0c 	lsr.w	ip, r0, ip
   d88f4:	bfdc      	itt	le
   d88f6:	ea41 010c 	orrle.w	r1, r1, ip
   d88fa:	4090      	lslle	r0, r2
   d88fc:	1ae4      	subs	r4, r4, r3
   d88fe:	bfa2      	ittt	ge
   d8900:	eb01 5104 	addge.w	r1, r1, r4, lsl #20
   d8904:	4329      	orrge	r1, r5
   d8906:	bd30      	popge	{r4, r5, pc}
   d8908:	ea6f 0404 	mvn.w	r4, r4
   d890c:	3c1f      	subs	r4, #31
   d890e:	da1c      	bge.n	d894a <__adddf3+0x1d2>
   d8910:	340c      	adds	r4, #12
   d8912:	dc0e      	bgt.n	d8932 <__adddf3+0x1ba>
   d8914:	f104 0414 	add.w	r4, r4, #20
   d8918:	f1c4 0220 	rsb	r2, r4, #32
   d891c:	fa20 f004 	lsr.w	r0, r0, r4
   d8920:	fa01 f302 	lsl.w	r3, r1, r2
   d8924:	ea40 0003 	orr.w	r0, r0, r3
   d8928:	fa21 f304 	lsr.w	r3, r1, r4
   d892c:	ea45 0103 	orr.w	r1, r5, r3
   d8930:	bd30      	pop	{r4, r5, pc}
   d8932:	f1c4 040c 	rsb	r4, r4, #12
   d8936:	f1c4 0220 	rsb	r2, r4, #32
   d893a:	fa20 f002 	lsr.w	r0, r0, r2
   d893e:	fa01 f304 	lsl.w	r3, r1, r4
   d8942:	ea40 0003 	orr.w	r0, r0, r3
   d8946:	4629      	mov	r1, r5
   d8948:	bd30      	pop	{r4, r5, pc}
   d894a:	fa21 f004 	lsr.w	r0, r1, r4
   d894e:	4629      	mov	r1, r5
   d8950:	bd30      	pop	{r4, r5, pc}
   d8952:	f094 0f00 	teq	r4, #0
   d8956:	f483 1380 	eor.w	r3, r3, #1048576	; 0x100000
   d895a:	bf06      	itte	eq
   d895c:	f481 1180 	eoreq.w	r1, r1, #1048576	; 0x100000
   d8960:	3401      	addeq	r4, #1
   d8962:	3d01      	subne	r5, #1
   d8964:	e74e      	b.n	d8804 <__adddf3+0x8c>
   d8966:	ea7f 5c64 	mvns.w	ip, r4, asr #21
   d896a:	bf18      	it	ne
   d896c:	ea7f 5c65 	mvnsne.w	ip, r5, asr #21
   d8970:	d029      	beq.n	d89c6 <__adddf3+0x24e>
   d8972:	ea94 0f05 	teq	r4, r5
   d8976:	bf08      	it	eq
   d8978:	ea90 0f02 	teqeq	r0, r2
   d897c:	d005      	beq.n	d898a <__adddf3+0x212>
   d897e:	ea54 0c00 	orrs.w	ip, r4, r0
   d8982:	bf04      	itt	eq
   d8984:	4619      	moveq	r1, r3
   d8986:	4610      	moveq	r0, r2
   d8988:	bd30      	pop	{r4, r5, pc}
   d898a:	ea91 0f03 	teq	r1, r3
   d898e:	bf1e      	ittt	ne
   d8990:	2100      	movne	r1, #0
   d8992:	2000      	movne	r0, #0
   d8994:	bd30      	popne	{r4, r5, pc}
   d8996:	ea5f 5c54 	movs.w	ip, r4, lsr #21
   d899a:	d105      	bne.n	d89a8 <__adddf3+0x230>
   d899c:	0040      	lsls	r0, r0, #1
   d899e:	4149      	adcs	r1, r1
   d89a0:	bf28      	it	cs
   d89a2:	f041 4100 	orrcs.w	r1, r1, #2147483648	; 0x80000000
   d89a6:	bd30      	pop	{r4, r5, pc}
   d89a8:	f514 0480 	adds.w	r4, r4, #4194304	; 0x400000
   d89ac:	bf3c      	itt	cc
   d89ae:	f501 1180 	addcc.w	r1, r1, #1048576	; 0x100000
   d89b2:	bd30      	popcc	{r4, r5, pc}
   d89b4:	f001 4500 	and.w	r5, r1, #2147483648	; 0x80000000
   d89b8:	f045 41fe 	orr.w	r1, r5, #2130706432	; 0x7f000000
   d89bc:	f441 0170 	orr.w	r1, r1, #15728640	; 0xf00000
   d89c0:	f04f 0000 	mov.w	r0, #0
   d89c4:	bd30      	pop	{r4, r5, pc}
   d89c6:	ea7f 5c64 	mvns.w	ip, r4, asr #21
   d89ca:	bf1a      	itte	ne
   d89cc:	4619      	movne	r1, r3
   d89ce:	4610      	movne	r0, r2
   d89d0:	ea7f 5c65 	mvnseq.w	ip, r5, asr #21
   d89d4:	bf1c      	itt	ne
   d89d6:	460b      	movne	r3, r1
   d89d8:	4602      	movne	r2, r0
   d89da:	ea50 3401 	orrs.w	r4, r0, r1, lsl #12
   d89de:	bf06      	itte	eq
   d89e0:	ea52 3503 	orrseq.w	r5, r2, r3, lsl #12
   d89e4:	ea91 0f03 	teqeq	r1, r3
   d89e8:	f441 2100 	orrne.w	r1, r1, #524288	; 0x80000
   d89ec:	bd30      	pop	{r4, r5, pc}
   d89ee:	bf00      	nop

000d89f0 <__aeabi_ui2d>:
   d89f0:	f090 0f00 	teq	r0, #0
   d89f4:	bf04      	itt	eq
   d89f6:	2100      	moveq	r1, #0
   d89f8:	4770      	bxeq	lr
   d89fa:	b530      	push	{r4, r5, lr}
   d89fc:	f44f 6480 	mov.w	r4, #1024	; 0x400
   d8a00:	f104 0432 	add.w	r4, r4, #50	; 0x32
   d8a04:	f04f 0500 	mov.w	r5, #0
   d8a08:	f04f 0100 	mov.w	r1, #0
   d8a0c:	e750      	b.n	d88b0 <__adddf3+0x138>
   d8a0e:	bf00      	nop

000d8a10 <__aeabi_i2d>:
   d8a10:	f090 0f00 	teq	r0, #0
   d8a14:	bf04      	itt	eq
   d8a16:	2100      	moveq	r1, #0
   d8a18:	4770      	bxeq	lr
   d8a1a:	b530      	push	{r4, r5, lr}
   d8a1c:	f44f 6480 	mov.w	r4, #1024	; 0x400
   d8a20:	f104 0432 	add.w	r4, r4, #50	; 0x32
   d8a24:	f010 4500 	ands.w	r5, r0, #2147483648	; 0x80000000
   d8a28:	bf48      	it	mi
   d8a2a:	4240      	negmi	r0, r0
   d8a2c:	f04f 0100 	mov.w	r1, #0
   d8a30:	e73e      	b.n	d88b0 <__adddf3+0x138>
   d8a32:	bf00      	nop

000d8a34 <__aeabi_f2d>:
   d8a34:	0042      	lsls	r2, r0, #1
   d8a36:	ea4f 01e2 	mov.w	r1, r2, asr #3
   d8a3a:	ea4f 0131 	mov.w	r1, r1, rrx
   d8a3e:	ea4f 7002 	mov.w	r0, r2, lsl #28
   d8a42:	bf1f      	itttt	ne
   d8a44:	f012 437f 	andsne.w	r3, r2, #4278190080	; 0xff000000
   d8a48:	f093 4f7f 	teqne	r3, #4278190080	; 0xff000000
   d8a4c:	f081 5160 	eorne.w	r1, r1, #939524096	; 0x38000000
   d8a50:	4770      	bxne	lr
   d8a52:	f032 427f 	bics.w	r2, r2, #4278190080	; 0xff000000
   d8a56:	bf08      	it	eq
   d8a58:	4770      	bxeq	lr
   d8a5a:	f093 4f7f 	teq	r3, #4278190080	; 0xff000000
   d8a5e:	bf04      	itt	eq
   d8a60:	f441 2100 	orreq.w	r1, r1, #524288	; 0x80000
   d8a64:	4770      	bxeq	lr
   d8a66:	b530      	push	{r4, r5, lr}
   d8a68:	f44f 7460 	mov.w	r4, #896	; 0x380
   d8a6c:	f001 4500 	and.w	r5, r1, #2147483648	; 0x80000000
   d8a70:	f021 4100 	bic.w	r1, r1, #2147483648	; 0x80000000
   d8a74:	e71c      	b.n	d88b0 <__adddf3+0x138>
   d8a76:	bf00      	nop

000d8a78 <__aeabi_ul2d>:
   d8a78:	ea50 0201 	orrs.w	r2, r0, r1
   d8a7c:	bf08      	it	eq
   d8a7e:	4770      	bxeq	lr
   d8a80:	b530      	push	{r4, r5, lr}
   d8a82:	f04f 0500 	mov.w	r5, #0
   d8a86:	e00a      	b.n	d8a9e <__aeabi_l2d+0x16>

000d8a88 <__aeabi_l2d>:
   d8a88:	ea50 0201 	orrs.w	r2, r0, r1
   d8a8c:	bf08      	it	eq
   d8a8e:	4770      	bxeq	lr
   d8a90:	b530      	push	{r4, r5, lr}
   d8a92:	f011 4500 	ands.w	r5, r1, #2147483648	; 0x80000000
   d8a96:	d502      	bpl.n	d8a9e <__aeabi_l2d+0x16>
   d8a98:	4240      	negs	r0, r0
   d8a9a:	eb61 0141 	sbc.w	r1, r1, r1, lsl #1
   d8a9e:	f44f 6480 	mov.w	r4, #1024	; 0x400
   d8aa2:	f104 0432 	add.w	r4, r4, #50	; 0x32
   d8aa6:	ea5f 5c91 	movs.w	ip, r1, lsr #22
   d8aaa:	f43f aed8 	beq.w	d885e <__adddf3+0xe6>
   d8aae:	f04f 0203 	mov.w	r2, #3
   d8ab2:	ea5f 0cdc 	movs.w	ip, ip, lsr #3
   d8ab6:	bf18      	it	ne
   d8ab8:	3203      	addne	r2, #3
   d8aba:	ea5f 0cdc 	movs.w	ip, ip, lsr #3
   d8abe:	bf18      	it	ne
   d8ac0:	3203      	addne	r2, #3
   d8ac2:	eb02 02dc 	add.w	r2, r2, ip, lsr #3
   d8ac6:	f1c2 0320 	rsb	r3, r2, #32
   d8aca:	fa00 fc03 	lsl.w	ip, r0, r3
   d8ace:	fa20 f002 	lsr.w	r0, r0, r2
   d8ad2:	fa01 fe03 	lsl.w	lr, r1, r3
   d8ad6:	ea40 000e 	orr.w	r0, r0, lr
   d8ada:	fa21 f102 	lsr.w	r1, r1, r2
   d8ade:	4414      	add	r4, r2
   d8ae0:	e6bd      	b.n	d885e <__adddf3+0xe6>
   d8ae2:	bf00      	nop

000d8ae4 <__aeabi_dmul>:
   d8ae4:	b570      	push	{r4, r5, r6, lr}
   d8ae6:	f04f 0cff 	mov.w	ip, #255	; 0xff
   d8aea:	f44c 6ce0 	orr.w	ip, ip, #1792	; 0x700
   d8aee:	ea1c 5411 	ands.w	r4, ip, r1, lsr #20
   d8af2:	bf1d      	ittte	ne
   d8af4:	ea1c 5513 	andsne.w	r5, ip, r3, lsr #20
   d8af8:	ea94 0f0c 	teqne	r4, ip
   d8afc:	ea95 0f0c 	teqne	r5, ip
   d8b00:	f000 f8de 	bleq	d8cc0 <__aeabi_dmul+0x1dc>
   d8b04:	442c      	add	r4, r5
   d8b06:	ea81 0603 	eor.w	r6, r1, r3
   d8b0a:	ea21 514c 	bic.w	r1, r1, ip, lsl #21
   d8b0e:	ea23 534c 	bic.w	r3, r3, ip, lsl #21
   d8b12:	ea50 3501 	orrs.w	r5, r0, r1, lsl #12
   d8b16:	bf18      	it	ne
   d8b18:	ea52 3503 	orrsne.w	r5, r2, r3, lsl #12
   d8b1c:	f441 1180 	orr.w	r1, r1, #1048576	; 0x100000
   d8b20:	f443 1380 	orr.w	r3, r3, #1048576	; 0x100000
   d8b24:	d038      	beq.n	d8b98 <__aeabi_dmul+0xb4>
   d8b26:	fba0 ce02 	umull	ip, lr, r0, r2
   d8b2a:	f04f 0500 	mov.w	r5, #0
   d8b2e:	fbe1 e502 	umlal	lr, r5, r1, r2
   d8b32:	f006 4200 	and.w	r2, r6, #2147483648	; 0x80000000
   d8b36:	fbe0 e503 	umlal	lr, r5, r0, r3
   d8b3a:	f04f 0600 	mov.w	r6, #0
   d8b3e:	fbe1 5603 	umlal	r5, r6, r1, r3
   d8b42:	f09c 0f00 	teq	ip, #0
   d8b46:	bf18      	it	ne
   d8b48:	f04e 0e01 	orrne.w	lr, lr, #1
   d8b4c:	f1a4 04ff 	sub.w	r4, r4, #255	; 0xff
   d8b50:	f5b6 7f00 	cmp.w	r6, #512	; 0x200
   d8b54:	f564 7440 	sbc.w	r4, r4, #768	; 0x300
   d8b58:	d204      	bcs.n	d8b64 <__aeabi_dmul+0x80>
   d8b5a:	ea5f 0e4e 	movs.w	lr, lr, lsl #1
   d8b5e:	416d      	adcs	r5, r5
   d8b60:	eb46 0606 	adc.w	r6, r6, r6
   d8b64:	ea42 21c6 	orr.w	r1, r2, r6, lsl #11
   d8b68:	ea41 5155 	orr.w	r1, r1, r5, lsr #21
   d8b6c:	ea4f 20c5 	mov.w	r0, r5, lsl #11
   d8b70:	ea40 505e 	orr.w	r0, r0, lr, lsr #21
   d8b74:	ea4f 2ece 	mov.w	lr, lr, lsl #11
   d8b78:	f1b4 0cfd 	subs.w	ip, r4, #253	; 0xfd
   d8b7c:	bf88      	it	hi
   d8b7e:	f5bc 6fe0 	cmphi.w	ip, #1792	; 0x700
   d8b82:	d81e      	bhi.n	d8bc2 <__aeabi_dmul+0xde>
   d8b84:	f1be 4f00 	cmp.w	lr, #2147483648	; 0x80000000
   d8b88:	bf08      	it	eq
   d8b8a:	ea5f 0e50 	movseq.w	lr, r0, lsr #1
   d8b8e:	f150 0000 	adcs.w	r0, r0, #0
   d8b92:	eb41 5104 	adc.w	r1, r1, r4, lsl #20
   d8b96:	bd70      	pop	{r4, r5, r6, pc}
   d8b98:	f006 4600 	and.w	r6, r6, #2147483648	; 0x80000000
   d8b9c:	ea46 0101 	orr.w	r1, r6, r1
   d8ba0:	ea40 0002 	orr.w	r0, r0, r2
   d8ba4:	ea81 0103 	eor.w	r1, r1, r3
   d8ba8:	ebb4 045c 	subs.w	r4, r4, ip, lsr #1
   d8bac:	bfc2      	ittt	gt
   d8bae:	ebd4 050c 	rsbsgt	r5, r4, ip
   d8bb2:	ea41 5104 	orrgt.w	r1, r1, r4, lsl #20
   d8bb6:	bd70      	popgt	{r4, r5, r6, pc}
   d8bb8:	f441 1180 	orr.w	r1, r1, #1048576	; 0x100000
   d8bbc:	f04f 0e00 	mov.w	lr, #0
   d8bc0:	3c01      	subs	r4, #1
   d8bc2:	f300 80ab 	bgt.w	d8d1c <__aeabi_dmul+0x238>
   d8bc6:	f114 0f36 	cmn.w	r4, #54	; 0x36
   d8bca:	bfde      	ittt	le
   d8bcc:	2000      	movle	r0, #0
   d8bce:	f001 4100 	andle.w	r1, r1, #2147483648	; 0x80000000
   d8bd2:	bd70      	pople	{r4, r5, r6, pc}
   d8bd4:	f1c4 0400 	rsb	r4, r4, #0
   d8bd8:	3c20      	subs	r4, #32
   d8bda:	da35      	bge.n	d8c48 <__aeabi_dmul+0x164>
   d8bdc:	340c      	adds	r4, #12
   d8bde:	dc1b      	bgt.n	d8c18 <__aeabi_dmul+0x134>
   d8be0:	f104 0414 	add.w	r4, r4, #20
   d8be4:	f1c4 0520 	rsb	r5, r4, #32
   d8be8:	fa00 f305 	lsl.w	r3, r0, r5
   d8bec:	fa20 f004 	lsr.w	r0, r0, r4
   d8bf0:	fa01 f205 	lsl.w	r2, r1, r5
   d8bf4:	ea40 0002 	orr.w	r0, r0, r2
   d8bf8:	f001 4200 	and.w	r2, r1, #2147483648	; 0x80000000
   d8bfc:	f021 4100 	bic.w	r1, r1, #2147483648	; 0x80000000
   d8c00:	eb10 70d3 	adds.w	r0, r0, r3, lsr #31
   d8c04:	fa21 f604 	lsr.w	r6, r1, r4
   d8c08:	eb42 0106 	adc.w	r1, r2, r6
   d8c0c:	ea5e 0e43 	orrs.w	lr, lr, r3, lsl #1
   d8c10:	bf08      	it	eq
   d8c12:	ea20 70d3 	biceq.w	r0, r0, r3, lsr #31
   d8c16:	bd70      	pop	{r4, r5, r6, pc}
   d8c18:	f1c4 040c 	rsb	r4, r4, #12
   d8c1c:	f1c4 0520 	rsb	r5, r4, #32
   d8c20:	fa00 f304 	lsl.w	r3, r0, r4
   d8c24:	fa20 f005 	lsr.w	r0, r0, r5
   d8c28:	fa01 f204 	lsl.w	r2, r1, r4
   d8c2c:	ea40 0002 	orr.w	r0, r0, r2
   d8c30:	f001 4100 	and.w	r1, r1, #2147483648	; 0x80000000
   d8c34:	eb10 70d3 	adds.w	r0, r0, r3, lsr #31
   d8c38:	f141 0100 	adc.w	r1, r1, #0
   d8c3c:	ea5e 0e43 	orrs.w	lr, lr, r3, lsl #1
   d8c40:	bf08      	it	eq
   d8c42:	ea20 70d3 	biceq.w	r0, r0, r3, lsr #31
   d8c46:	bd70      	pop	{r4, r5, r6, pc}
   d8c48:	f1c4 0520 	rsb	r5, r4, #32
   d8c4c:	fa00 f205 	lsl.w	r2, r0, r5
   d8c50:	ea4e 0e02 	orr.w	lr, lr, r2
   d8c54:	fa20 f304 	lsr.w	r3, r0, r4
   d8c58:	fa01 f205 	lsl.w	r2, r1, r5
   d8c5c:	ea43 0302 	orr.w	r3, r3, r2
   d8c60:	fa21 f004 	lsr.w	r0, r1, r4
   d8c64:	f001 4100 	and.w	r1, r1, #2147483648	; 0x80000000
   d8c68:	fa21 f204 	lsr.w	r2, r1, r4
   d8c6c:	ea20 0002 	bic.w	r0, r0, r2
   d8c70:	eb00 70d3 	add.w	r0, r0, r3, lsr #31
   d8c74:	ea5e 0e43 	orrs.w	lr, lr, r3, lsl #1
   d8c78:	bf08      	it	eq
   d8c7a:	ea20 70d3 	biceq.w	r0, r0, r3, lsr #31
   d8c7e:	bd70      	pop	{r4, r5, r6, pc}
   d8c80:	f094 0f00 	teq	r4, #0
   d8c84:	d10f      	bne.n	d8ca6 <__aeabi_dmul+0x1c2>
   d8c86:	f001 4600 	and.w	r6, r1, #2147483648	; 0x80000000
   d8c8a:	0040      	lsls	r0, r0, #1
   d8c8c:	eb41 0101 	adc.w	r1, r1, r1
   d8c90:	f411 1f80 	tst.w	r1, #1048576	; 0x100000
   d8c94:	bf08      	it	eq
   d8c96:	3c01      	subeq	r4, #1
   d8c98:	d0f7      	beq.n	d8c8a <__aeabi_dmul+0x1a6>
   d8c9a:	ea41 0106 	orr.w	r1, r1, r6
   d8c9e:	f095 0f00 	teq	r5, #0
   d8ca2:	bf18      	it	ne
   d8ca4:	4770      	bxne	lr
   d8ca6:	f003 4600 	and.w	r6, r3, #2147483648	; 0x80000000
   d8caa:	0052      	lsls	r2, r2, #1
   d8cac:	eb43 0303 	adc.w	r3, r3, r3
   d8cb0:	f413 1f80 	tst.w	r3, #1048576	; 0x100000
   d8cb4:	bf08      	it	eq
   d8cb6:	3d01      	subeq	r5, #1
   d8cb8:	d0f7      	beq.n	d8caa <__aeabi_dmul+0x1c6>
   d8cba:	ea43 0306 	orr.w	r3, r3, r6
   d8cbe:	4770      	bx	lr
   d8cc0:	ea94 0f0c 	teq	r4, ip
   d8cc4:	ea0c 5513 	and.w	r5, ip, r3, lsr #20
   d8cc8:	bf18      	it	ne
   d8cca:	ea95 0f0c 	teqne	r5, ip
   d8cce:	d00c      	beq.n	d8cea <__aeabi_dmul+0x206>
   d8cd0:	ea50 0641 	orrs.w	r6, r0, r1, lsl #1
   d8cd4:	bf18      	it	ne
   d8cd6:	ea52 0643 	orrsne.w	r6, r2, r3, lsl #1
   d8cda:	d1d1      	bne.n	d8c80 <__aeabi_dmul+0x19c>
   d8cdc:	ea81 0103 	eor.w	r1, r1, r3
   d8ce0:	f001 4100 	and.w	r1, r1, #2147483648	; 0x80000000
   d8ce4:	f04f 0000 	mov.w	r0, #0
   d8ce8:	bd70      	pop	{r4, r5, r6, pc}
   d8cea:	ea50 0641 	orrs.w	r6, r0, r1, lsl #1
   d8cee:	bf06      	itte	eq
   d8cf0:	4610      	moveq	r0, r2
   d8cf2:	4619      	moveq	r1, r3
   d8cf4:	ea52 0643 	orrsne.w	r6, r2, r3, lsl #1
   d8cf8:	d019      	beq.n	d8d2e <__aeabi_dmul+0x24a>
   d8cfa:	ea94 0f0c 	teq	r4, ip
   d8cfe:	d102      	bne.n	d8d06 <__aeabi_dmul+0x222>
   d8d00:	ea50 3601 	orrs.w	r6, r0, r1, lsl #12
   d8d04:	d113      	bne.n	d8d2e <__aeabi_dmul+0x24a>
   d8d06:	ea95 0f0c 	teq	r5, ip
   d8d0a:	d105      	bne.n	d8d18 <__aeabi_dmul+0x234>
   d8d0c:	ea52 3603 	orrs.w	r6, r2, r3, lsl #12
   d8d10:	bf1c      	itt	ne
   d8d12:	4610      	movne	r0, r2
   d8d14:	4619      	movne	r1, r3
   d8d16:	d10a      	bne.n	d8d2e <__aeabi_dmul+0x24a>
   d8d18:	ea81 0103 	eor.w	r1, r1, r3
   d8d1c:	f001 4100 	and.w	r1, r1, #2147483648	; 0x80000000
   d8d20:	f041 41fe 	orr.w	r1, r1, #2130706432	; 0x7f000000
   d8d24:	f441 0170 	orr.w	r1, r1, #15728640	; 0xf00000
   d8d28:	f04f 0000 	mov.w	r0, #0
   d8d2c:	bd70      	pop	{r4, r5, r6, pc}
   d8d2e:	f041 41fe 	orr.w	r1, r1, #2130706432	; 0x7f000000
   d8d32:	f441 0178 	orr.w	r1, r1, #16252928	; 0xf80000
   d8d36:	bd70      	pop	{r4, r5, r6, pc}

000d8d38 <__aeabi_ddiv>:
   d8d38:	b570      	push	{r4, r5, r6, lr}
   d8d3a:	f04f 0cff 	mov.w	ip, #255	; 0xff
   d8d3e:	f44c 6ce0 	orr.w	ip, ip, #1792	; 0x700
   d8d42:	ea1c 5411 	ands.w	r4, ip, r1, lsr #20
   d8d46:	bf1d      	ittte	ne
   d8d48:	ea1c 5513 	andsne.w	r5, ip, r3, lsr #20
   d8d4c:	ea94 0f0c 	teqne	r4, ip
   d8d50:	ea95 0f0c 	teqne	r5, ip
   d8d54:	f000 f8a7 	bleq	d8ea6 <__aeabi_ddiv+0x16e>
   d8d58:	eba4 0405 	sub.w	r4, r4, r5
   d8d5c:	ea81 0e03 	eor.w	lr, r1, r3
   d8d60:	ea52 3503 	orrs.w	r5, r2, r3, lsl #12
   d8d64:	ea4f 3101 	mov.w	r1, r1, lsl #12
   d8d68:	f000 8088 	beq.w	d8e7c <__aeabi_ddiv+0x144>
   d8d6c:	ea4f 3303 	mov.w	r3, r3, lsl #12
   d8d70:	f04f 5580 	mov.w	r5, #268435456	; 0x10000000
   d8d74:	ea45 1313 	orr.w	r3, r5, r3, lsr #4
   d8d78:	ea43 6312 	orr.w	r3, r3, r2, lsr #24
   d8d7c:	ea4f 2202 	mov.w	r2, r2, lsl #8
   d8d80:	ea45 1511 	orr.w	r5, r5, r1, lsr #4
   d8d84:	ea45 6510 	orr.w	r5, r5, r0, lsr #24
   d8d88:	ea4f 2600 	mov.w	r6, r0, lsl #8
   d8d8c:	f00e 4100 	and.w	r1, lr, #2147483648	; 0x80000000
   d8d90:	429d      	cmp	r5, r3
   d8d92:	bf08      	it	eq
   d8d94:	4296      	cmpeq	r6, r2
   d8d96:	f144 04fd 	adc.w	r4, r4, #253	; 0xfd
   d8d9a:	f504 7440 	add.w	r4, r4, #768	; 0x300
   d8d9e:	d202      	bcs.n	d8da6 <__aeabi_ddiv+0x6e>
   d8da0:	085b      	lsrs	r3, r3, #1
   d8da2:	ea4f 0232 	mov.w	r2, r2, rrx
   d8da6:	1ab6      	subs	r6, r6, r2
   d8da8:	eb65 0503 	sbc.w	r5, r5, r3
   d8dac:	085b      	lsrs	r3, r3, #1
   d8dae:	ea4f 0232 	mov.w	r2, r2, rrx
   d8db2:	f44f 1080 	mov.w	r0, #1048576	; 0x100000
   d8db6:	f44f 2c00 	mov.w	ip, #524288	; 0x80000
   d8dba:	ebb6 0e02 	subs.w	lr, r6, r2
   d8dbe:	eb75 0e03 	sbcs.w	lr, r5, r3
   d8dc2:	bf22      	ittt	cs
   d8dc4:	1ab6      	subcs	r6, r6, r2
   d8dc6:	4675      	movcs	r5, lr
   d8dc8:	ea40 000c 	orrcs.w	r0, r0, ip
   d8dcc:	085b      	lsrs	r3, r3, #1
   d8dce:	ea4f 0232 	mov.w	r2, r2, rrx
   d8dd2:	ebb6 0e02 	subs.w	lr, r6, r2
   d8dd6:	eb75 0e03 	sbcs.w	lr, r5, r3
   d8dda:	bf22      	ittt	cs
   d8ddc:	1ab6      	subcs	r6, r6, r2
   d8dde:	4675      	movcs	r5, lr
   d8de0:	ea40 005c 	orrcs.w	r0, r0, ip, lsr #1
   d8de4:	085b      	lsrs	r3, r3, #1
   d8de6:	ea4f 0232 	mov.w	r2, r2, rrx
   d8dea:	ebb6 0e02 	subs.w	lr, r6, r2
   d8dee:	eb75 0e03 	sbcs.w	lr, r5, r3
   d8df2:	bf22      	ittt	cs
   d8df4:	1ab6      	subcs	r6, r6, r2
   d8df6:	4675      	movcs	r5, lr
   d8df8:	ea40 009c 	orrcs.w	r0, r0, ip, lsr #2
   d8dfc:	085b      	lsrs	r3, r3, #1
   d8dfe:	ea4f 0232 	mov.w	r2, r2, rrx
   d8e02:	ebb6 0e02 	subs.w	lr, r6, r2
   d8e06:	eb75 0e03 	sbcs.w	lr, r5, r3
   d8e0a:	bf22      	ittt	cs
   d8e0c:	1ab6      	subcs	r6, r6, r2
   d8e0e:	4675      	movcs	r5, lr
   d8e10:	ea40 00dc 	orrcs.w	r0, r0, ip, lsr #3
   d8e14:	ea55 0e06 	orrs.w	lr, r5, r6
   d8e18:	d018      	beq.n	d8e4c <__aeabi_ddiv+0x114>
   d8e1a:	ea4f 1505 	mov.w	r5, r5, lsl #4
   d8e1e:	ea45 7516 	orr.w	r5, r5, r6, lsr #28
   d8e22:	ea4f 1606 	mov.w	r6, r6, lsl #4
   d8e26:	ea4f 03c3 	mov.w	r3, r3, lsl #3
   d8e2a:	ea43 7352 	orr.w	r3, r3, r2, lsr #29
   d8e2e:	ea4f 02c2 	mov.w	r2, r2, lsl #3
   d8e32:	ea5f 1c1c 	movs.w	ip, ip, lsr #4
   d8e36:	d1c0      	bne.n	d8dba <__aeabi_ddiv+0x82>
   d8e38:	f411 1f80 	tst.w	r1, #1048576	; 0x100000
   d8e3c:	d10b      	bne.n	d8e56 <__aeabi_ddiv+0x11e>
   d8e3e:	ea41 0100 	orr.w	r1, r1, r0
   d8e42:	f04f 0000 	mov.w	r0, #0
   d8e46:	f04f 4c00 	mov.w	ip, #2147483648	; 0x80000000
   d8e4a:	e7b6      	b.n	d8dba <__aeabi_ddiv+0x82>
   d8e4c:	f411 1f80 	tst.w	r1, #1048576	; 0x100000
   d8e50:	bf04      	itt	eq
   d8e52:	4301      	orreq	r1, r0
   d8e54:	2000      	moveq	r0, #0
   d8e56:	f1b4 0cfd 	subs.w	ip, r4, #253	; 0xfd
   d8e5a:	bf88      	it	hi
   d8e5c:	f5bc 6fe0 	cmphi.w	ip, #1792	; 0x700
   d8e60:	f63f aeaf 	bhi.w	d8bc2 <__aeabi_dmul+0xde>
   d8e64:	ebb5 0c03 	subs.w	ip, r5, r3
   d8e68:	bf04      	itt	eq
   d8e6a:	ebb6 0c02 	subseq.w	ip, r6, r2
   d8e6e:	ea5f 0c50 	movseq.w	ip, r0, lsr #1
   d8e72:	f150 0000 	adcs.w	r0, r0, #0
   d8e76:	eb41 5104 	adc.w	r1, r1, r4, lsl #20
   d8e7a:	bd70      	pop	{r4, r5, r6, pc}
   d8e7c:	f00e 4e00 	and.w	lr, lr, #2147483648	; 0x80000000
   d8e80:	ea4e 3111 	orr.w	r1, lr, r1, lsr #12
   d8e84:	eb14 045c 	adds.w	r4, r4, ip, lsr #1
   d8e88:	bfc2      	ittt	gt
   d8e8a:	ebd4 050c 	rsbsgt	r5, r4, ip
   d8e8e:	ea41 5104 	orrgt.w	r1, r1, r4, lsl #20
   d8e92:	bd70      	popgt	{r4, r5, r6, pc}
   d8e94:	f441 1180 	orr.w	r1, r1, #1048576	; 0x100000
   d8e98:	f04f 0e00 	mov.w	lr, #0
   d8e9c:	3c01      	subs	r4, #1
   d8e9e:	e690      	b.n	d8bc2 <__aeabi_dmul+0xde>
   d8ea0:	ea45 0e06 	orr.w	lr, r5, r6
   d8ea4:	e68d      	b.n	d8bc2 <__aeabi_dmul+0xde>
   d8ea6:	ea0c 5513 	and.w	r5, ip, r3, lsr #20
   d8eaa:	ea94 0f0c 	teq	r4, ip
   d8eae:	bf08      	it	eq
   d8eb0:	ea95 0f0c 	teqeq	r5, ip
   d8eb4:	f43f af3b 	beq.w	d8d2e <__aeabi_dmul+0x24a>
   d8eb8:	ea94 0f0c 	teq	r4, ip
   d8ebc:	d10a      	bne.n	d8ed4 <__aeabi_ddiv+0x19c>
   d8ebe:	ea50 3401 	orrs.w	r4, r0, r1, lsl #12
   d8ec2:	f47f af34 	bne.w	d8d2e <__aeabi_dmul+0x24a>
   d8ec6:	ea95 0f0c 	teq	r5, ip
   d8eca:	f47f af25 	bne.w	d8d18 <__aeabi_dmul+0x234>
   d8ece:	4610      	mov	r0, r2
   d8ed0:	4619      	mov	r1, r3
   d8ed2:	e72c      	b.n	d8d2e <__aeabi_dmul+0x24a>
   d8ed4:	ea95 0f0c 	teq	r5, ip
   d8ed8:	d106      	bne.n	d8ee8 <__aeabi_ddiv+0x1b0>
   d8eda:	ea52 3503 	orrs.w	r5, r2, r3, lsl #12
   d8ede:	f43f aefd 	beq.w	d8cdc <__aeabi_dmul+0x1f8>
   d8ee2:	4610      	mov	r0, r2
   d8ee4:	4619      	mov	r1, r3
   d8ee6:	e722      	b.n	d8d2e <__aeabi_dmul+0x24a>
   d8ee8:	ea50 0641 	orrs.w	r6, r0, r1, lsl #1
   d8eec:	bf18      	it	ne
   d8eee:	ea52 0643 	orrsne.w	r6, r2, r3, lsl #1
   d8ef2:	f47f aec5 	bne.w	d8c80 <__aeabi_dmul+0x19c>
   d8ef6:	ea50 0441 	orrs.w	r4, r0, r1, lsl #1
   d8efa:	f47f af0d 	bne.w	d8d18 <__aeabi_dmul+0x234>
   d8efe:	ea52 0543 	orrs.w	r5, r2, r3, lsl #1
   d8f02:	f47f aeeb 	bne.w	d8cdc <__aeabi_dmul+0x1f8>
   d8f06:	e712      	b.n	d8d2e <__aeabi_dmul+0x24a>

000d8f08 <__gedf2>:
   d8f08:	f04f 3cff 	mov.w	ip, #4294967295	; 0xffffffff
   d8f0c:	e006      	b.n	d8f1c <__cmpdf2+0x4>
   d8f0e:	bf00      	nop

000d8f10 <__ledf2>:
   d8f10:	f04f 0c01 	mov.w	ip, #1
   d8f14:	e002      	b.n	d8f1c <__cmpdf2+0x4>
   d8f16:	bf00      	nop

000d8f18 <__cmpdf2>:
   d8f18:	f04f 0c01 	mov.w	ip, #1
   d8f1c:	f84d cd04 	str.w	ip, [sp, #-4]!
   d8f20:	ea4f 0c41 	mov.w	ip, r1, lsl #1
   d8f24:	ea7f 5c6c 	mvns.w	ip, ip, asr #21
   d8f28:	ea4f 0c43 	mov.w	ip, r3, lsl #1
   d8f2c:	bf18      	it	ne
   d8f2e:	ea7f 5c6c 	mvnsne.w	ip, ip, asr #21
   d8f32:	d01b      	beq.n	d8f6c <__cmpdf2+0x54>
   d8f34:	b001      	add	sp, #4
   d8f36:	ea50 0c41 	orrs.w	ip, r0, r1, lsl #1
   d8f3a:	bf0c      	ite	eq
   d8f3c:	ea52 0c43 	orrseq.w	ip, r2, r3, lsl #1
   d8f40:	ea91 0f03 	teqne	r1, r3
   d8f44:	bf02      	ittt	eq
   d8f46:	ea90 0f02 	teqeq	r0, r2
   d8f4a:	2000      	moveq	r0, #0
   d8f4c:	4770      	bxeq	lr
   d8f4e:	f110 0f00 	cmn.w	r0, #0
   d8f52:	ea91 0f03 	teq	r1, r3
   d8f56:	bf58      	it	pl
   d8f58:	4299      	cmppl	r1, r3
   d8f5a:	bf08      	it	eq
   d8f5c:	4290      	cmpeq	r0, r2
   d8f5e:	bf2c      	ite	cs
   d8f60:	17d8      	asrcs	r0, r3, #31
   d8f62:	ea6f 70e3 	mvncc.w	r0, r3, asr #31
   d8f66:	f040 0001 	orr.w	r0, r0, #1
   d8f6a:	4770      	bx	lr
   d8f6c:	ea4f 0c41 	mov.w	ip, r1, lsl #1
   d8f70:	ea7f 5c6c 	mvns.w	ip, ip, asr #21
   d8f74:	d102      	bne.n	d8f7c <__cmpdf2+0x64>
   d8f76:	ea50 3c01 	orrs.w	ip, r0, r1, lsl #12
   d8f7a:	d107      	bne.n	d8f8c <__cmpdf2+0x74>
   d8f7c:	ea4f 0c43 	mov.w	ip, r3, lsl #1
   d8f80:	ea7f 5c6c 	mvns.w	ip, ip, asr #21
   d8f84:	d1d6      	bne.n	d8f34 <__cmpdf2+0x1c>
   d8f86:	ea52 3c03 	orrs.w	ip, r2, r3, lsl #12
   d8f8a:	d0d3      	beq.n	d8f34 <__cmpdf2+0x1c>
   d8f8c:	f85d 0b04 	ldr.w	r0, [sp], #4
   d8f90:	4770      	bx	lr
   d8f92:	bf00      	nop

000d8f94 <__aeabi_cdrcmple>:
   d8f94:	4684      	mov	ip, r0
   d8f96:	4610      	mov	r0, r2
   d8f98:	4662      	mov	r2, ip
   d8f9a:	468c      	mov	ip, r1
   d8f9c:	4619      	mov	r1, r3
   d8f9e:	4663      	mov	r3, ip
   d8fa0:	e000      	b.n	d8fa4 <__aeabi_cdcmpeq>
   d8fa2:	bf00      	nop

000d8fa4 <__aeabi_cdcmpeq>:
   d8fa4:	b501      	push	{r0, lr}
   d8fa6:	f7ff ffb7 	bl	d8f18 <__cmpdf2>
   d8faa:	2800      	cmp	r0, #0
   d8fac:	bf48      	it	mi
   d8fae:	f110 0f00 	cmnmi.w	r0, #0
   d8fb2:	bd01      	pop	{r0, pc}

000d8fb4 <__aeabi_dcmpeq>:
   d8fb4:	f84d ed08 	str.w	lr, [sp, #-8]!
   d8fb8:	f7ff fff4 	bl	d8fa4 <__aeabi_cdcmpeq>
   d8fbc:	bf0c      	ite	eq
   d8fbe:	2001      	moveq	r0, #1
   d8fc0:	2000      	movne	r0, #0
   d8fc2:	f85d fb08 	ldr.w	pc, [sp], #8
   d8fc6:	bf00      	nop

000d8fc8 <__aeabi_dcmplt>:
   d8fc8:	f84d ed08 	str.w	lr, [sp, #-8]!
   d8fcc:	f7ff ffea 	bl	d8fa4 <__aeabi_cdcmpeq>
   d8fd0:	bf34      	ite	cc
   d8fd2:	2001      	movcc	r0, #1
   d8fd4:	2000      	movcs	r0, #0
   d8fd6:	f85d fb08 	ldr.w	pc, [sp], #8
   d8fda:	bf00      	nop

000d8fdc <__aeabi_dcmple>:
   d8fdc:	f84d ed08 	str.w	lr, [sp, #-8]!
   d8fe0:	f7ff ffe0 	bl	d8fa4 <__aeabi_cdcmpeq>
   d8fe4:	bf94      	ite	ls
   d8fe6:	2001      	movls	r0, #1
   d8fe8:	2000      	movhi	r0, #0
   d8fea:	f85d fb08 	ldr.w	pc, [sp], #8
   d8fee:	bf00      	nop

000d8ff0 <__aeabi_dcmpge>:
   d8ff0:	f84d ed08 	str.w	lr, [sp, #-8]!
   d8ff4:	f7ff ffce 	bl	d8f94 <__aeabi_cdrcmple>
   d8ff8:	bf94      	ite	ls
   d8ffa:	2001      	movls	r0, #1
   d8ffc:	2000      	movhi	r0, #0
   d8ffe:	f85d fb08 	ldr.w	pc, [sp], #8
   d9002:	bf00      	nop

000d9004 <__aeabi_dcmpgt>:
   d9004:	f84d ed08 	str.w	lr, [sp, #-8]!
   d9008:	f7ff ffc4 	bl	d8f94 <__aeabi_cdrcmple>
   d900c:	bf34      	ite	cc
   d900e:	2001      	movcc	r0, #1
   d9010:	2000      	movcs	r0, #0
   d9012:	f85d fb08 	ldr.w	pc, [sp], #8
   d9016:	bf00      	nop

000d9018 <__aeabi_dcmpun>:
   d9018:	ea4f 0c41 	mov.w	ip, r1, lsl #1
   d901c:	ea7f 5c6c 	mvns.w	ip, ip, asr #21
   d9020:	d102      	bne.n	d9028 <__aeabi_dcmpun+0x10>
   d9022:	ea50 3c01 	orrs.w	ip, r0, r1, lsl #12
   d9026:	d10a      	bne.n	d903e <__aeabi_dcmpun+0x26>
   d9028:	ea4f 0c43 	mov.w	ip, r3, lsl #1
   d902c:	ea7f 5c6c 	mvns.w	ip, ip, asr #21
   d9030:	d102      	bne.n	d9038 <__aeabi_dcmpun+0x20>
   d9032:	ea52 3c03 	orrs.w	ip, r2, r3, lsl #12
   d9036:	d102      	bne.n	d903e <__aeabi_dcmpun+0x26>
   d9038:	f04f 0000 	mov.w	r0, #0
   d903c:	4770      	bx	lr
   d903e:	f04f 0001 	mov.w	r0, #1
   d9042:	4770      	bx	lr

000d9044 <__aeabi_d2f>:
   d9044:	ea4f 0241 	mov.w	r2, r1, lsl #1
   d9048:	f1b2 43e0 	subs.w	r3, r2, #1879048192	; 0x70000000
   d904c:	bf24      	itt	cs
   d904e:	f5b3 1c00 	subscs.w	ip, r3, #2097152	; 0x200000
   d9052:	f1dc 5cfe 	rsbscs	ip, ip, #532676608	; 0x1fc00000
   d9056:	d90d      	bls.n	d9074 <__aeabi_d2f+0x30>
   d9058:	f001 4c00 	and.w	ip, r1, #2147483648	; 0x80000000
   d905c:	ea4f 02c0 	mov.w	r2, r0, lsl #3
   d9060:	ea4c 7050 	orr.w	r0, ip, r0, lsr #29
   d9064:	f1b2 4f00 	cmp.w	r2, #2147483648	; 0x80000000
   d9068:	eb40 0083 	adc.w	r0, r0, r3, lsl #2
   d906c:	bf08      	it	eq
   d906e:	f020 0001 	biceq.w	r0, r0, #1
   d9072:	4770      	bx	lr
   d9074:	f011 4f80 	tst.w	r1, #1073741824	; 0x40000000
   d9078:	d121      	bne.n	d90be <__aeabi_d2f+0x7a>
   d907a:	f113 7238 	adds.w	r2, r3, #48234496	; 0x2e00000
   d907e:	bfbc      	itt	lt
   d9080:	f001 4000 	andlt.w	r0, r1, #2147483648	; 0x80000000
   d9084:	4770      	bxlt	lr
   d9086:	f441 1180 	orr.w	r1, r1, #1048576	; 0x100000
   d908a:	ea4f 5252 	mov.w	r2, r2, lsr #21
   d908e:	f1c2 0218 	rsb	r2, r2, #24
   d9092:	f1c2 0c20 	rsb	ip, r2, #32
   d9096:	fa10 f30c 	lsls.w	r3, r0, ip
   d909a:	fa20 f002 	lsr.w	r0, r0, r2
   d909e:	bf18      	it	ne
   d90a0:	f040 0001 	orrne.w	r0, r0, #1
   d90a4:	ea4f 23c1 	mov.w	r3, r1, lsl #11
   d90a8:	ea4f 23d3 	mov.w	r3, r3, lsr #11
   d90ac:	fa03 fc0c 	lsl.w	ip, r3, ip
   d90b0:	ea40 000c 	orr.w	r0, r0, ip
   d90b4:	fa23 f302 	lsr.w	r3, r3, r2
   d90b8:	ea4f 0343 	mov.w	r3, r3, lsl #1
   d90bc:	e7cc      	b.n	d9058 <__aeabi_d2f+0x14>
   d90be:	ea7f 5362 	mvns.w	r3, r2, asr #21
   d90c2:	d107      	bne.n	d90d4 <__aeabi_d2f+0x90>
   d90c4:	ea50 3301 	orrs.w	r3, r0, r1, lsl #12
   d90c8:	bf1e      	ittt	ne
   d90ca:	f04f 40fe 	movne.w	r0, #2130706432	; 0x7f000000
   d90ce:	f440 0040 	orrne.w	r0, r0, #12582912	; 0xc00000
   d90d2:	4770      	bxne	lr
   d90d4:	f001 4000 	and.w	r0, r1, #2147483648	; 0x80000000
   d90d8:	f040 40fe 	orr.w	r0, r0, #2130706432	; 0x7f000000
   d90dc:	f440 0000 	orr.w	r0, r0, #8388608	; 0x800000
   d90e0:	4770      	bx	lr
   d90e2:	bf00      	nop

000d90e4 <__cxa_atexit>:
   d90e4:	b510      	push	{r4, lr}
   d90e6:	4c05      	ldr	r4, [pc, #20]	; (d90fc <__cxa_atexit+0x18>)
   d90e8:	4613      	mov	r3, r2
   d90ea:	b12c      	cbz	r4, d90f8 <__cxa_atexit+0x14>
   d90ec:	460a      	mov	r2, r1
   d90ee:	4601      	mov	r1, r0
   d90f0:	2002      	movs	r0, #2
   d90f2:	f3af 8000 	nop.w
   d90f6:	bd10      	pop	{r4, pc}
   d90f8:	4620      	mov	r0, r4
   d90fa:	e7fc      	b.n	d90f6 <__cxa_atexit+0x12>
   d90fc:	00000000 	.word	0x00000000

000d9100 <memcpy>:
   d9100:	440a      	add	r2, r1
   d9102:	4291      	cmp	r1, r2
   d9104:	f100 33ff 	add.w	r3, r0, #4294967295	; 0xffffffff
   d9108:	d100      	bne.n	d910c <memcpy+0xc>
   d910a:	4770      	bx	lr
   d910c:	b510      	push	{r4, lr}
   d910e:	f811 4b01 	ldrb.w	r4, [r1], #1
   d9112:	f803 4f01 	strb.w	r4, [r3, #1]!
   d9116:	4291      	cmp	r1, r2
   d9118:	d1f9      	bne.n	d910e <memcpy+0xe>
   d911a:	bd10      	pop	{r4, pc}

000d911c <memset>:
   d911c:	4402      	add	r2, r0
   d911e:	4603      	mov	r3, r0
   d9120:	4293      	cmp	r3, r2
   d9122:	d100      	bne.n	d9126 <memset+0xa>
   d9124:	4770      	bx	lr
   d9126:	f803 1b01 	strb.w	r1, [r3], #1
   d912a:	e7f9      	b.n	d9120 <memset+0x4>

000d912c <srand>:
   d912c:	b538      	push	{r3, r4, r5, lr}
   d912e:	4b0d      	ldr	r3, [pc, #52]	; (d9164 <srand+0x38>)
   d9130:	681d      	ldr	r5, [r3, #0]
   d9132:	6bab      	ldr	r3, [r5, #56]	; 0x38
   d9134:	4604      	mov	r4, r0
   d9136:	b97b      	cbnz	r3, d9158 <srand+0x2c>
   d9138:	2018      	movs	r0, #24
   d913a:	f7fc fdf1 	bl	d5d20 <malloc>
   d913e:	4a0a      	ldr	r2, [pc, #40]	; (d9168 <srand+0x3c>)
   d9140:	4b0a      	ldr	r3, [pc, #40]	; (d916c <srand+0x40>)
   d9142:	63a8      	str	r0, [r5, #56]	; 0x38
   d9144:	e9c0 2300 	strd	r2, r3, [r0]
   d9148:	4b09      	ldr	r3, [pc, #36]	; (d9170 <srand+0x44>)
   d914a:	6083      	str	r3, [r0, #8]
   d914c:	230b      	movs	r3, #11
   d914e:	8183      	strh	r3, [r0, #12]
   d9150:	2201      	movs	r2, #1
   d9152:	2300      	movs	r3, #0
   d9154:	e9c0 2304 	strd	r2, r3, [r0, #16]
   d9158:	6bab      	ldr	r3, [r5, #56]	; 0x38
   d915a:	2200      	movs	r2, #0
   d915c:	611c      	str	r4, [r3, #16]
   d915e:	615a      	str	r2, [r3, #20]
   d9160:	bd38      	pop	{r3, r4, r5, pc}
   d9162:	bf00      	nop
   d9164:	2003e3e0 	.word	0x2003e3e0
   d9168:	abcd330e 	.word	0xabcd330e
   d916c:	e66d1234 	.word	0xe66d1234
   d9170:	0005deec 	.word	0x0005deec

000d9174 <rand>:
   d9174:	4b13      	ldr	r3, [pc, #76]	; (d91c4 <rand+0x50>)
   d9176:	b510      	push	{r4, lr}
   d9178:	681c      	ldr	r4, [r3, #0]
   d917a:	6ba3      	ldr	r3, [r4, #56]	; 0x38
   d917c:	b97b      	cbnz	r3, d919e <rand+0x2a>
   d917e:	2018      	movs	r0, #24
   d9180:	f7fc fdce 	bl	d5d20 <malloc>
   d9184:	4a10      	ldr	r2, [pc, #64]	; (d91c8 <rand+0x54>)
   d9186:	4b11      	ldr	r3, [pc, #68]	; (d91cc <rand+0x58>)
   d9188:	63a0      	str	r0, [r4, #56]	; 0x38
   d918a:	e9c0 2300 	strd	r2, r3, [r0]
   d918e:	4b10      	ldr	r3, [pc, #64]	; (d91d0 <rand+0x5c>)
   d9190:	6083      	str	r3, [r0, #8]
   d9192:	230b      	movs	r3, #11
   d9194:	8183      	strh	r3, [r0, #12]
   d9196:	2201      	movs	r2, #1
   d9198:	2300      	movs	r3, #0
   d919a:	e9c0 2304 	strd	r2, r3, [r0, #16]
   d919e:	6ba1      	ldr	r1, [r4, #56]	; 0x38
   d91a0:	480c      	ldr	r0, [pc, #48]	; (d91d4 <rand+0x60>)
   d91a2:	690a      	ldr	r2, [r1, #16]
   d91a4:	694b      	ldr	r3, [r1, #20]
   d91a6:	4c0c      	ldr	r4, [pc, #48]	; (d91d8 <rand+0x64>)
   d91a8:	4350      	muls	r0, r2
   d91aa:	fb04 0003 	mla	r0, r4, r3, r0
   d91ae:	fba2 3404 	umull	r3, r4, r2, r4
   d91b2:	1c5a      	adds	r2, r3, #1
   d91b4:	4404      	add	r4, r0
   d91b6:	f144 0000 	adc.w	r0, r4, #0
   d91ba:	e9c1 2004 	strd	r2, r0, [r1, #16]
   d91be:	f020 4000 	bic.w	r0, r0, #2147483648	; 0x80000000
   d91c2:	bd10      	pop	{r4, pc}
   d91c4:	2003e3e0 	.word	0x2003e3e0
   d91c8:	abcd330e 	.word	0xabcd330e
   d91cc:	e66d1234 	.word	0xe66d1234
   d91d0:	0005deec 	.word	0x0005deec
   d91d4:	5851f42d 	.word	0x5851f42d
   d91d8:	4c957f2d 	.word	0x4c957f2d

000d91dc <strcpy>:
   d91dc:	4603      	mov	r3, r0
   d91de:	f811 2b01 	ldrb.w	r2, [r1], #1
   d91e2:	f803 2b01 	strb.w	r2, [r3], #1
   d91e6:	2a00      	cmp	r2, #0
   d91e8:	d1f9      	bne.n	d91de <strcpy+0x2>
   d91ea:	4770      	bx	lr

000d91ec <strdup>:
   d91ec:	4b02      	ldr	r3, [pc, #8]	; (d91f8 <strdup+0xc>)
   d91ee:	4601      	mov	r1, r0
   d91f0:	6818      	ldr	r0, [r3, #0]
   d91f2:	f000 b803 	b.w	d91fc <_strdup_r>
   d91f6:	bf00      	nop
   d91f8:	2003e3e0 	.word	0x2003e3e0

000d91fc <_strdup_r>:
   d91fc:	b537      	push	{r0, r1, r2, r4, r5, lr}
   d91fe:	4604      	mov	r4, r0
   d9200:	4608      	mov	r0, r1
   d9202:	460d      	mov	r5, r1
   d9204:	f000 f80f 	bl	d9226 <strlen>
   d9208:	1c42      	adds	r2, r0, #1
   d920a:	4611      	mov	r1, r2
   d920c:	4620      	mov	r0, r4
   d920e:	9201      	str	r2, [sp, #4]
   d9210:	f7fc fdae 	bl	d5d70 <_malloc_r>
   d9214:	4604      	mov	r4, r0
   d9216:	b118      	cbz	r0, d9220 <_strdup_r+0x24>
   d9218:	9a01      	ldr	r2, [sp, #4]
   d921a:	4629      	mov	r1, r5
   d921c:	f7ff ff70 	bl	d9100 <memcpy>
   d9220:	4620      	mov	r0, r4
   d9222:	b003      	add	sp, #12
   d9224:	bd30      	pop	{r4, r5, pc}

000d9226 <strlen>:
   d9226:	4603      	mov	r3, r0
   d9228:	f813 2b01 	ldrb.w	r2, [r3], #1
   d922c:	2a00      	cmp	r2, #0
   d922e:	d1fb      	bne.n	d9228 <strlen+0x2>
   d9230:	1a18      	subs	r0, r3, r0
   d9232:	3801      	subs	r0, #1
   d9234:	4770      	bx	lr

000d9236 <link_code_end>:
	...

000d9238 <dynalib_user>:
   d9238:	4021 000d 405d 000d 4085 000d 4089 000d     !@..]@...@...@..
   d9248:	0000 0000 207b 4122 4354 2231 203a 6425     ....{ "ATC1": %d
   d9258:	202c 4122 5054 2231 203a 6425 202c 4122     , "ATP1": %d, "A
   d9268:	4354 2232 203a 6425 202c 4122 5054 2232     TC2": %d, "ATP2"
   d9278:	203a 6425 202c 4122 5346 2252 203a 6425     : %d, "AFSR": %d
   d9288:	2020 2020 2020 2020 2020 2020 2020 2020                     
   d9298:	2020 2020 2020 2020 2020 2020 2020 2020                     
   d92a8:	2020 2c20 2220 4141 6363 2258 203a 6425        , "AAccX": %d
   d92b8:	202c 4122 6341 5963 3a22 2520 2c64 2220     , "AAccY": %d, "
   d92c8:	4141 6363 225a 203a 6425 202c 4122 7947     AAccZ": %d, "AGy
   d92d8:	5872 3a22 2520 2c64 2220 4741 7279 2259     rX": %d, "AGyrY"
   d92e8:	203a 6425 2020 2020 2020 2020 2020 2020     : %d            
   d92f8:	2020 2020 2020 2020 2020 2020 2020 2020                     
   d9308:	2020 2020 2020 2c20 2220 4741 7279 225a            , "AGyrZ"
   d9318:	203a 6425 202c 4122 5442 3a22 2520 2c64     : %d, "ABT": %d,
   d9328:	2220 544d 3150 3a22 2520 2064 2020 2020      "MTP1": %d     
   d9338:	2020 2020 2020 2020 2020 2020 2020 2020                     
   d9348:	2020 2020 2020 2020 2020 2020 2020 202c                   , 
   d9358:	4d22 5054 2232 203a 6425 202c 4d22 6341     "MTP2": %d, "MAc
   d9368:	5863 3a22 2520 2c64 2220 414d 6363 2259     cX": %d, "MAccY"
   d9378:	203a 6425 202c 4d22 6341 5a63 3a22 2520     : %d, "MAccZ": %
   d9388:	2c64 2220 474d 7279 2258 203a 6425 2020     d, "MGyrX": %d  
   d9398:	2020 2020 2020 2020 2020 2020 2020 2020                     
   d93a8:	2020 2020 2020 2020 2020 2020 2020 2020                     
   d93b8:	2c20 2220 474d 7279 2259 203a 6425 202c      , "MGyrY": %d, 
   d93c8:	4d22 7947 5a72 3a22 2520 2c64 2220 5248     "MGyrZ": %d, "HR
   d93d8:	3a22 2520 2c64 2220 5248 2256 203a 6625     ": %d, "HRV": %f
   d93e8:	2020 2020 2020 2020 2020 2020 2020 2020                     
   d93f8:	2020 2020 2020 2020 2020 2020 2020 2020                     
   d9408:	2020 2c20 2220 6142 7474 3a22 2520 2c66        , "Batt": %f,
   d9418:	2220 464d 5253 3a22 2520 7d64 2200 007d      "MFSR": %d}."}.
   d9428:	4445 3141 7b00 2220 4445 3141 3a22 2220     EDA1.{ "EDA1": "
   d9438:	5300 6d75 616d 7972 6552 6f70 7472 4900     .SummaryReport.I
   d9448:	696e 6974 6c61 7a69 7461 6f69 206e 666f     nitialization of
   d9458:	7420 6568 7320 6e65 6f73 2072 6572 7574      the sensor retu
   d9468:	6e72 6465 203a 5400 7972 6e69 2067 6761     rned: .Trying ag
   d9478:	6961 2e6e 2e2e 5500 6b6e 6f6e 6e77 5320     ain....Unknown S
   d9488:	6174 7574 0073 6c41 206c 7369 7720 6c65     tatus.All is wel
   d9498:	2e6c 4700 6e65 7265 6c61 4520 7272 726f     l..General Error
   d94a8:	4e00 746f 4920 706d 656c 656d 746e 6465     .Not Implemented
   d94b8:	5000 7261 6d61 7465 7265 4520 7272 726f     .Parameter Error
   d94c8:	5700 6f72 676e 4920 0044 6e49 6176 696c     .Wrong ID.Invali
   d94d8:	2064 6553 736e 726f 4400 7461 2061 6e55     d Sensor.Data Un
   d94e8:	6564 6672 6f6c 0077 6553 736e 726f 4e20     derflow.Sensor N
   d94f8:	746f 5320 7075 6f70 7472 6465 0000 0000     ot Supported....

000d9508 <CSWTCH.31>:
   d9508:	948e 000d 949b 000d 94a9 000d 94b9 000d     ................
   d9518:	94c9 000d 94d2 000d 94e1 000d 94f0 000d     ................

000d9528 <_ZTV13ICM_20948_I2C>:
	...
   d9530:	58b9 000d                                   .X..

000d9534 <_ZTVSt15_Sp_counted_ptrIPN8particle6detail10FutureImplIbNS1_13FutureContextEEELN9__gnu_cxx12_Lock_policyE0EE>:
	...
   d953c:	5e15 000d 5e1b 000d 5e6b 000d 5e29 000d     .^...^..k^..)^..
   d954c:	5e17 000d                                   .^..

000d9550 <_ZTVN5spark13EthernetClassE>:
	...
   d9558:	63e3 000d 63d9 000d 63cf 000d 63c5 000d     .c...c...c...c..
   d9568:	63b9 000d 63ad 000d 63a1 000d 6399 000d     .c...c...c...c..
   d9578:	638f 000d 6385 000d 6675 000d               .c...c..uf..

000d9584 <_ZTV7TwoWire>:
	...
   d958c:	6401 000d 644b 000d 6423 000d 6403 000d     .d..Kd..#d...d..
   d959c:	642b 000d 6433 000d 643b 000d 6443 000d     +d..3d..;d..Cd..

000d95ac <_ZTV9IPAddress>:
	...
   d95b4:	6529 000d 6519 000d 651b 000d 7061 0070     )e...e...e..app.

000d95c4 <_ZTVN5spark12NetworkClassE>:
	...
   d95cc:	660d 000d 6617 000d 6621 000d 662b 000d     .f...f..!f..+f..
   d95dc:	6635 000d 6641 000d 664d 000d 6659 000d     5f..Af..Mf..Yf..
   d95ec:	6661 000d 666b 000d 6675 000d 5925 252d     af..kf..uf..%Y-%
   d95fc:	2d6d 6425 2554 3a48 4d25 253a 2553 007a     m-%dT%H:%M:%S%z.
   d960c:	7361 7463 6d69 0065                         asctime.

000d9614 <_ZTV11USARTSerial>:
	...
   d961c:	6b6d 000d 6bd9 000d 6bb1 000d 675d 000d     mk...k...k..]g..
   d962c:	6b81 000d 6b9d 000d 6b8f 000d 6bab 000d     .k...k...k...k..
   d963c:	6b6f 000d 6b73 000d                         ok..sk..

000d9644 <_ZTV9USBSerial>:
	...
   d964c:	6c6d 000d 6cd5 000d 6cab 000d 675d 000d     ml...l...l..]g..
   d965c:	6c9d 000d 6c6f 000d 6c7f 000d 6ccf 000d     .l..ol...l...l..
   d966c:	6c8f 000d 6c69 000d                         .l..il..

000d9674 <_ZTVN5spark9WiFiClassE>:
	...
   d967c:	6dd7 000d 6dcd 000d 6dc3 000d 6d79 000d     .m...m...m..ym..
   d968c:	6db7 000d 6dab 000d 6d9f 000d 6d97 000d     .m...m...m...m..
   d969c:	6d8d 000d 6d83 000d 6675 000d               .m...m..uf..

000d96a8 <_ZSt7nothrow>:
   d96a8:	0000 0000 6f70 0077 0000 0000 0000 0000     ....pow.........

000d96b8 <TWO52>:
   d96b8:	0000 0000 0000 4330 0000 0000 0000 c330     ......0C......0.

000d96c8 <link_const_variable_data_end>:
   d96c8:	000d4f75 	.word	0x000d4f75
   d96cc:	000d5559 	.word	0x000d5559
   d96d0:	000d5ded 	.word	0x000d5ded
   d96d4:	000d63ed 	.word	0x000d63ed
   d96d8:	000d65fd 	.word	0x000d65fd
   d96dc:	000d6749 	.word	0x000d6749
   d96e0:	000d6859 	.word	0x000d6859
   d96e4:	000d6b1d 	.word	0x000d6b1d
   d96e8:	000d6b59 	.word	0x000d6b59
   d96ec:	000d6de1 	.word	0x000d6de1
